; Listing generated by Microsoft (R) Optimizing Compiler Version 19.26.28806.0 

include listing.inc

INCLUDELIB OLDNAMES

PUBLIC	??_C@_0BC@EOODALEL@Unknown?5exception@		; `string'
PUBLIC	??_C@_0BF@KINCDENJ@bad?5array?5new?5length@	; `string'
PUBLIC	??_C@_01CLKCMJKC@?5@				; `string'
PUBLIC	??_C@_01EEMJAFIK@?6@				; `string'
PUBLIC	??_C@_01OHGJGJJP@?$FL@				; `string'
PUBLIC	??_C@_01MJMHLOMK@O@				; `string'
PUBLIC	??_C@_01MMEEDKFM@X@				; `string'
PUBLIC	??_C@_01LBDDMOBJ@?$FN@				; `string'
PUBLIC	??_C@_0BI@MOMLKGFL@illegal?5access?5detected@	; `string'
PUBLIC	??_C@_04LPNGBNLE@fuck@				; `string'
PUBLIC	??_C@_0BG@LJKPFINI@illegal?5move?5detected@	; `string'
PUBLIC	??_C@_0BA@FOIKENOD@vector?5too?5long@		; `string'
PUBLIC	??_R4exception@std@@6B@				; std::exception::`RTTI Complete Object Locator'
PUBLIC	??_R2bad_array_new_length@std@@8		; std::bad_array_new_length::`RTTI Base Class Array'
PUBLIC	??_R0?AVbad_alloc@std@@@8			; std::bad_alloc `RTTI Type Descriptor'
PUBLIC	??_R2bad_alloc@std@@8				; std::bad_alloc::`RTTI Base Class Array'
PUBLIC	_CTA3?AVbad_array_new_length@std@@
PUBLIC	??_7bad_array_new_length@std@@6B@		; std::bad_array_new_length::`vftable'
PUBLIC	??_R1A@?0A@EA@exception@std@@8			; std::exception::`RTTI Base Class Descriptor at (0,-1,0,64)'
PUBLIC	??_R1A@?0A@EA@bad_alloc@std@@8			; std::bad_alloc::`RTTI Base Class Descriptor at (0,-1,0,64)'
PUBLIC	_TI1?AVexception@std@@
PUBLIC	??_7bad_alloc@std@@6B@				; std::bad_alloc::`vftable'
PUBLIC	??_R2exception@std@@8				; std::exception::`RTTI Base Class Array'
PUBLIC	??_7exception@std@@6B@				; std::exception::`vftable'
PUBLIC	??_R3exception@std@@8				; std::exception::`RTTI Class Hierarchy Descriptor'
PUBLIC	_CT??_R0?AVbad_array_new_length@std@@@8??0bad_array_new_length@std@@QEAA@AEBV01@@Z24
PUBLIC	??_R4bad_alloc@std@@6B@				; std::bad_alloc::`RTTI Complete Object Locator'
PUBLIC	??_R3bad_array_new_length@std@@8		; std::bad_array_new_length::`RTTI Class Hierarchy Descriptor'
PUBLIC	_CT??_R0?AVbad_alloc@std@@@8??0bad_alloc@std@@QEAA@AEBV01@@Z24
PUBLIC	?cols@Board@@2_KB				; Board::cols
PUBLIC	??_R3bad_alloc@std@@8				; std::bad_alloc::`RTTI Class Hierarchy Descriptor'
PUBLIC	??_R4bad_array_new_length@std@@6B@		; std::bad_array_new_length::`RTTI Complete Object Locator'
PUBLIC	??_R1A@?0A@EA@bad_array_new_length@std@@8	; std::bad_array_new_length::`RTTI Base Class Descriptor at (0,-1,0,64)'
PUBLIC	_CT??_R0?AVexception@std@@@8??0exception@std@@QEAA@AEBV01@@Z24
PUBLIC	_CTA1?AVexception@std@@
PUBLIC	_TI3?AVbad_array_new_length@std@@
PUBLIC	??_R0?AVexception@std@@@8			; std::exception `RTTI Type Descriptor'
PUBLIC	??_R0?AVbad_array_new_length@std@@@8		; std::bad_array_new_length `RTTI Type Descriptor'
EXTRN	__imp_?rdstate@ios_base@std@@QEBAHXZ:PROC
EXTRN	__imp_?good@ios_base@std@@QEBA_NXZ:PROC
EXTRN	__imp_?flags@ios_base@std@@QEBAHXZ:PROC
EXTRN	__imp_?width@ios_base@std@@QEBA_JXZ:PROC
EXTRN	__imp_?width@ios_base@std@@QEAA_J_J@Z:PROC
EXTRN	__imp_?fill@?$basic_ios@DU?$char_traits@D@std@@@std@@QEBADXZ:PROC
EXTRN	__imp_?rdbuf@?$basic_ios@DU?$char_traits@D@std@@@std@@QEBAPEAV?$basic_streambuf@DU?$char_traits@D@std@@@2@XZ:PROC
EXTRN	__imp_?setstate@?$basic_ios@DU?$char_traits@D@std@@@std@@QEAAXH_N@Z:PROC
EXTRN	__imp_?flush@?$basic_ostream@DU?$char_traits@D@std@@@std@@QEAAAEAV12@XZ:PROC
EXTRN	__imp_?_Osfx@?$basic_ostream@DU?$char_traits@D@std@@@std@@QEAAXXZ:PROC
EXTRN	__imp_?tie@?$basic_ios@DU?$char_traits@D@std@@@std@@QEBAPEAV?$basic_ostream@DU?$char_traits@D@std@@@2@XZ:PROC
EXTRN	__imp_?sputc@?$basic_streambuf@DU?$char_traits@D@std@@@std@@QEAAHD@Z:PROC
EXTRN	__imp_?sputn@?$basic_streambuf@DU?$char_traits@D@std@@@std@@QEAA_JPEBD_J@Z:PROC
EXTRN	__imp__invalid_parameter_noinfo_noreturn:PROC
EXTRN	??_7type_info@@6B@:BYTE				; type_info::`vftable'
EXTRN	__imp___std_terminate:PROC
EXTRN	??_U@YAPEAX_K@Z:PROC				; operator new[]
EXTRN	??3@YAXPEAX_K@Z:PROC				; operator delete
EXTRN	__imp___std_exception_copy:PROC
EXTRN	__imp_?_Xlength_error@std@@YAXPEBD@Z:PROC
EXTRN	__imp_?uncaught_exception@std@@YA_NXZ:PROC
EXTRN	__imp_?cout@std@@3V?$basic_ostream@DU?$char_traits@D@std@@@1@A:BYTE
EXTRN	??2@YAPEAX_K@Z:PROC				; operator new
EXTRN	__imp___std_exception_destroy:PROC
EXTRN	__security_check_cookie:PROC
EXTRN	__imp___CxxFrameHandler4:PROC
;	COMDAT ??_R0?AVbad_array_new_length@std@@@8
data$r	SEGMENT
??_R0?AVbad_array_new_length@std@@@8 DQ FLAT:??_7type_info@@6B@ ; std::bad_array_new_length `RTTI Type Descriptor'
	DQ	0000000000000000H
	DB	'.?AVbad_array_new_length@std@@', 00H
data$r	ENDS
;	COMDAT ??_R0?AVexception@std@@@8
data$r	SEGMENT
??_R0?AVexception@std@@@8 DQ FLAT:??_7type_info@@6B@	; std::exception `RTTI Type Descriptor'
	DQ	0000000000000000H
	DB	'.?AVexception@std@@', 00H
data$r	ENDS
;	COMDAT _TI3?AVbad_array_new_length@std@@
xdata$x	SEGMENT
_TI3?AVbad_array_new_length@std@@ DD 00H
	DD	imagerel ??1bad_array_new_length@std@@UEAA@XZ
	DD	00H
	DD	imagerel _CTA3?AVbad_array_new_length@std@@
xdata$x	ENDS
;	COMDAT _CTA1?AVexception@std@@
xdata$x	SEGMENT
_CTA1?AVexception@std@@ DD 01H
	DD	imagerel _CT??_R0?AVexception@std@@@8??0exception@std@@QEAA@AEBV01@@Z24
xdata$x	ENDS
;	COMDAT _CT??_R0?AVexception@std@@@8??0exception@std@@QEAA@AEBV01@@Z24
xdata$x	SEGMENT
_CT??_R0?AVexception@std@@@8??0exception@std@@QEAA@AEBV01@@Z24 DD 00H
	DD	imagerel ??_R0?AVexception@std@@@8
	DD	00H
	DD	0ffffffffH
	ORG $+4
	DD	018H
	DD	imagerel ??0exception@std@@QEAA@AEBV01@@Z
xdata$x	ENDS
;	COMDAT ??_R1A@?0A@EA@bad_array_new_length@std@@8
rdata$r	SEGMENT
??_R1A@?0A@EA@bad_array_new_length@std@@8 DD imagerel ??_R0?AVbad_array_new_length@std@@@8 ; std::bad_array_new_length::`RTTI Base Class Descriptor at (0,-1,0,64)'
	DD	02H
	DD	00H
	DD	0ffffffffH
	DD	00H
	DD	040H
	DD	imagerel ??_R3bad_array_new_length@std@@8
rdata$r	ENDS
;	COMDAT ??_R4bad_array_new_length@std@@6B@
rdata$r	SEGMENT
??_R4bad_array_new_length@std@@6B@ DD 01H		; std::bad_array_new_length::`RTTI Complete Object Locator'
	DD	00H
	DD	00H
	DD	imagerel ??_R0?AVbad_array_new_length@std@@@8
	DD	imagerel ??_R3bad_array_new_length@std@@8
	DD	imagerel ??_R4bad_array_new_length@std@@6B@
rdata$r	ENDS
;	COMDAT ??_R3bad_alloc@std@@8
rdata$r	SEGMENT
??_R3bad_alloc@std@@8 DD 00H				; std::bad_alloc::`RTTI Class Hierarchy Descriptor'
	DD	00H
	DD	02H
	DD	imagerel ??_R2bad_alloc@std@@8
rdata$r	ENDS
;	COMDAT ?cols@Board@@2_KB
CONST	SEGMENT
?cols@Board@@2_KB DQ 0000000000000007H			; Board::cols
CONST	ENDS
;	COMDAT _CT??_R0?AVbad_alloc@std@@@8??0bad_alloc@std@@QEAA@AEBV01@@Z24
xdata$x	SEGMENT
_CT??_R0?AVbad_alloc@std@@@8??0bad_alloc@std@@QEAA@AEBV01@@Z24 DD 010H
	DD	imagerel ??_R0?AVbad_alloc@std@@@8
	DD	00H
	DD	0ffffffffH
	ORG $+4
	DD	018H
	DD	imagerel ??0bad_alloc@std@@QEAA@AEBV01@@Z
xdata$x	ENDS
;	COMDAT ??_R3bad_array_new_length@std@@8
rdata$r	SEGMENT
??_R3bad_array_new_length@std@@8 DD 00H			; std::bad_array_new_length::`RTTI Class Hierarchy Descriptor'
	DD	00H
	DD	03H
	DD	imagerel ??_R2bad_array_new_length@std@@8
rdata$r	ENDS
;	COMDAT ??_R4bad_alloc@std@@6B@
rdata$r	SEGMENT
??_R4bad_alloc@std@@6B@ DD 01H				; std::bad_alloc::`RTTI Complete Object Locator'
	DD	00H
	DD	00H
	DD	imagerel ??_R0?AVbad_alloc@std@@@8
	DD	imagerel ??_R3bad_alloc@std@@8
	DD	imagerel ??_R4bad_alloc@std@@6B@
rdata$r	ENDS
;	COMDAT _CT??_R0?AVbad_array_new_length@std@@@8??0bad_array_new_length@std@@QEAA@AEBV01@@Z24
xdata$x	SEGMENT
_CT??_R0?AVbad_array_new_length@std@@@8??0bad_array_new_length@std@@QEAA@AEBV01@@Z24 DD 00H
	DD	imagerel ??_R0?AVbad_array_new_length@std@@@8
	DD	00H
	DD	0ffffffffH
	ORG $+4
	DD	018H
	DD	imagerel ??0bad_array_new_length@std@@QEAA@AEBV01@@Z
xdata$x	ENDS
;	COMDAT ??_R3exception@std@@8
rdata$r	SEGMENT
??_R3exception@std@@8 DD 00H				; std::exception::`RTTI Class Hierarchy Descriptor'
	DD	00H
	DD	01H
	DD	imagerel ??_R2exception@std@@8
rdata$r	ENDS
;	COMDAT ??_7exception@std@@6B@
CONST	SEGMENT
??_7exception@std@@6B@ DQ FLAT:??_R4exception@std@@6B@	; std::exception::`vftable'
	DQ	FLAT:??_Eexception@std@@UEAAPEAXI@Z
	DQ	FLAT:?what@exception@std@@UEBAPEBDXZ
CONST	ENDS
;	COMDAT ??_R2exception@std@@8
rdata$r	SEGMENT
??_R2exception@std@@8 DD imagerel ??_R1A@?0A@EA@exception@std@@8 ; std::exception::`RTTI Base Class Array'
	ORG $+3
rdata$r	ENDS
;	COMDAT ??_7bad_alloc@std@@6B@
CONST	SEGMENT
??_7bad_alloc@std@@6B@ DQ FLAT:??_R4bad_alloc@std@@6B@	; std::bad_alloc::`vftable'
	DQ	FLAT:??_Ebad_alloc@std@@UEAAPEAXI@Z
	DQ	FLAT:?what@exception@std@@UEBAPEBDXZ
CONST	ENDS
;	COMDAT _TI1?AVexception@std@@
xdata$x	SEGMENT
_TI1?AVexception@std@@ DD 00H
	DD	imagerel ??1exception@std@@UEAA@XZ
	DD	00H
	DD	imagerel _CTA1?AVexception@std@@
xdata$x	ENDS
;	COMDAT ??_R1A@?0A@EA@bad_alloc@std@@8
rdata$r	SEGMENT
??_R1A@?0A@EA@bad_alloc@std@@8 DD imagerel ??_R0?AVbad_alloc@std@@@8 ; std::bad_alloc::`RTTI Base Class Descriptor at (0,-1,0,64)'
	DD	01H
	DD	00H
	DD	0ffffffffH
	DD	00H
	DD	040H
	DD	imagerel ??_R3bad_alloc@std@@8
rdata$r	ENDS
;	COMDAT ??_R1A@?0A@EA@exception@std@@8
rdata$r	SEGMENT
??_R1A@?0A@EA@exception@std@@8 DD imagerel ??_R0?AVexception@std@@@8 ; std::exception::`RTTI Base Class Descriptor at (0,-1,0,64)'
	DD	00H
	DD	00H
	DD	0ffffffffH
	DD	00H
	DD	040H
	DD	imagerel ??_R3exception@std@@8
rdata$r	ENDS
;	COMDAT ??_7bad_array_new_length@std@@6B@
CONST	SEGMENT
??_7bad_array_new_length@std@@6B@ DQ FLAT:??_R4bad_array_new_length@std@@6B@ ; std::bad_array_new_length::`vftable'
	DQ	FLAT:??_Ebad_array_new_length@std@@UEAAPEAXI@Z
	DQ	FLAT:?what@exception@std@@UEBAPEBDXZ
CONST	ENDS
;	COMDAT _CTA3?AVbad_array_new_length@std@@
xdata$x	SEGMENT
_CTA3?AVbad_array_new_length@std@@ DD 03H
	DD	imagerel _CT??_R0?AVbad_array_new_length@std@@@8??0bad_array_new_length@std@@QEAA@AEBV01@@Z24
	DD	imagerel _CT??_R0?AVbad_alloc@std@@@8??0bad_alloc@std@@QEAA@AEBV01@@Z24
	DD	imagerel _CT??_R0?AVexception@std@@@8??0exception@std@@QEAA@AEBV01@@Z24
xdata$x	ENDS
;	COMDAT ??_R2bad_alloc@std@@8
rdata$r	SEGMENT
??_R2bad_alloc@std@@8 DD imagerel ??_R1A@?0A@EA@bad_alloc@std@@8 ; std::bad_alloc::`RTTI Base Class Array'
	DD	imagerel ??_R1A@?0A@EA@exception@std@@8
	ORG $+3
rdata$r	ENDS
;	COMDAT ??_R0?AVbad_alloc@std@@@8
data$r	SEGMENT
??_R0?AVbad_alloc@std@@@8 DQ FLAT:??_7type_info@@6B@	; std::bad_alloc `RTTI Type Descriptor'
	DQ	0000000000000000H
	DB	'.?AVbad_alloc@std@@', 00H
data$r	ENDS
;	COMDAT ??_R2bad_array_new_length@std@@8
rdata$r	SEGMENT
??_R2bad_array_new_length@std@@8 DD imagerel ??_R1A@?0A@EA@bad_array_new_length@std@@8 ; std::bad_array_new_length::`RTTI Base Class Array'
	DD	imagerel ??_R1A@?0A@EA@bad_alloc@std@@8
	DD	imagerel ??_R1A@?0A@EA@exception@std@@8
	ORG $+3
rdata$r	ENDS
;	COMDAT ??_R4exception@std@@6B@
rdata$r	SEGMENT
??_R4exception@std@@6B@ DD 01H				; std::exception::`RTTI Complete Object Locator'
	DD	00H
	DD	00H
	DD	imagerel ??_R0?AVexception@std@@@8
	DD	imagerel ??_R3exception@std@@8
	DD	imagerel ??_R4exception@std@@6B@
rdata$r	ENDS
;	COMDAT ??_C@_0BA@FOIKENOD@vector?5too?5long@
CONST	SEGMENT
??_C@_0BA@FOIKENOD@vector?5too?5long@ DB 'vector too long', 00H ; `string'
CONST	ENDS
;	COMDAT ??_C@_0BG@LJKPFINI@illegal?5move?5detected@
CONST	SEGMENT
??_C@_0BG@LJKPFINI@illegal?5move?5detected@ DB 'illegal move detected', 00H ; `string'
CONST	ENDS
;	COMDAT ??_C@_04LPNGBNLE@fuck@
CONST	SEGMENT
??_C@_04LPNGBNLE@fuck@ DB 'fuck', 00H			; `string'
CONST	ENDS
;	COMDAT ??_C@_0BI@MOMLKGFL@illegal?5access?5detected@
CONST	SEGMENT
??_C@_0BI@MOMLKGFL@illegal?5access?5detected@ DB 'illegal access detected'
	DB	00H						; `string'
CONST	ENDS
;	COMDAT ??_C@_01LBDDMOBJ@?$FN@
CONST	SEGMENT
??_C@_01LBDDMOBJ@?$FN@ DB ']', 00H			; `string'
CONST	ENDS
;	COMDAT ??_C@_01MMEEDKFM@X@
CONST	SEGMENT
??_C@_01MMEEDKFM@X@ DB 'X', 00H				; `string'
CONST	ENDS
;	COMDAT ??_C@_01MJMHLOMK@O@
CONST	SEGMENT
??_C@_01MJMHLOMK@O@ DB 'O', 00H				; `string'
CONST	ENDS
;	COMDAT ??_C@_01OHGJGJJP@?$FL@
CONST	SEGMENT
??_C@_01OHGJGJJP@?$FL@ DB '[', 00H			; `string'
CONST	ENDS
;	COMDAT ??_C@_01EEMJAFIK@?6@
CONST	SEGMENT
??_C@_01EEMJAFIK@?6@ DB 0aH, 00H			; `string'
CONST	ENDS
;	COMDAT ??_C@_01CLKCMJKC@?5@
CONST	SEGMENT
??_C@_01CLKCMJKC@?5@ DB ' ', 00H			; `string'
CONST	ENDS
;	COMDAT ??_C@_0BF@KINCDENJ@bad?5array?5new?5length@
CONST	SEGMENT
??_C@_0BF@KINCDENJ@bad?5array?5new?5length@ DB 'bad array new length', 00H ; `string'
CONST	ENDS
;	COMDAT ??_C@_0BC@EOODALEL@Unknown?5exception@
CONST	SEGMENT
??_C@_0BC@EOODALEL@Unknown?5exception@ DB 'Unknown exception', 00H ; `string'
CONST	ENDS
PUBLIC	??0?$FixedInt@$0A@@internal@Eigen@@QEAA@XZ	; Eigen::internal::FixedInt<0>::FixedInt<0>
PUBLIC	??0?$FixedInt@$01@internal@Eigen@@QEAA@XZ	; Eigen::internal::FixedInt<2>::FixedInt<2>
PUBLIC	??0?$FixedInt@$02@internal@Eigen@@QEAA@XZ	; Eigen::internal::FixedInt<3>::FixedInt<3>
PUBLIC	??$_Copy_memmove@PEAUPoint@@PEAU1@@std@@YAPEAUPoint@@PEAU1@00@Z ; std::_Copy_memmove<Point *,Point *>
PUBLIC	??$_Allocate_manually_vector_aligned@U_Default_allocate_traits@std@@@std@@YAPEAX_K@Z ; std::_Allocate_manually_vector_aligned<std::_Default_allocate_traits>
PUBLIC	??$_Seek_wrapped@PEAIAEAPEAI@std@@YAXAEAPEAI0@Z	; std::_Seek_wrapped<unsigned int *,unsigned int * &>
PUBLIC	?derived@?$BaseExpr@V?$SymbolExpr@Usymbolic_last_tag@internal@Eigen@@@symbolic@Eigen@@@symbolic@Eigen@@QEBAAEBV?$SymbolExpr@Usymbolic_last_tag@internal@Eigen@@@23@XZ ; Eigen::symbolic::BaseExpr<Eigen::symbolic::SymbolExpr<Eigen::internal::symbolic_last_tag> >::derived
PUBLIC	??0?$AddExpr@V?$SymbolExpr@Usymbolic_last_tag@internal@Eigen@@@symbolic@Eigen@@V?$ValueExpr@V?$FixedInt@$00@internal@Eigen@@@23@@symbolic@Eigen@@QEAA@AEBV?$SymbolExpr@Usymbolic_last_tag@internal@Eigen@@@12@AEBV?$ValueExpr@V?$FixedInt@$00@internal@Eigen@@@12@@Z ; Eigen::symbolic::AddExpr<Eigen::symbolic::SymbolExpr<Eigen::internal::symbolic_last_tag>,Eigen::symbolic::ValueExpr<Eigen::internal::FixedInt<1> > >::AddExpr<Eigen::symbolic::SymbolExpr<Eigen::internal::symbolic_last_tag>,Eigen::symbolic::ValueExpr<Eigen::internal::FixedInt<1> > >
PUBLIC	??0?$ValueExpr@V?$FixedInt@$00@internal@Eigen@@@symbolic@Eigen@@QEAA@XZ ; Eigen::symbolic::ValueExpr<Eigen::internal::FixedInt<1> >::ValueExpr<Eigen::internal::FixedInt<1> >
PUBLIC	??0?$allocator@UPoint@@@std@@QEAA@XZ		; std::allocator<Point>::allocator<Point>
PUBLIC	?_Umove@?$vector@UPoint@@V?$allocator@UPoint@@@std@@@std@@AEAAPEAUPoint@@PEAU3@00@Z ; std::vector<Point,std::allocator<Point> >::_Umove
PUBLIC	?_Calculate_growth@?$vector@UPoint@@V?$allocator@UPoint@@@std@@@std@@AEBA_K_K@Z ; std::vector<Point,std::allocator<Point> >::_Calculate_growth
PUBLIC	??0?$_Vector_val@U?$_Simple_types@UPoint@@@std@@@std@@QEAA@XZ ; std::_Vector_val<std::_Simple_types<Point> >::_Vector_val<std::_Simple_types<Point> >
PUBLIC	??0?$FixedInt@$00@internal@Eigen@@QEAA@XZ	; Eigen::internal::FixedInt<1>::FixedInt<1>
PUBLIC	??$_Get_unwrapped@AEBQEAUPoint@@@std@@YAPEAUPoint@@AEBQEAU1@@Z ; std::_Get_unwrapped<Point * const &>
PUBLIC	??$_Uninitialized_move@PEAUPoint@@V?$allocator@UPoint@@@std@@@std@@YAPEAUPoint@@QEAU1@0PEAU1@AEAV?$allocator@UPoint@@@0@@Z ; std::_Uninitialized_move<Point *,std::allocator<Point> >
PUBLIC	??$_Get_size_of_n@$07@std@@YA_K_K@Z		; std::_Get_size_of_n<8>
PUBLIC	??$_Deallocate@$0BA@$0A@@std@@YAXPEAX_K@Z	; std::_Deallocate<16,0>
PUBLIC	??$_Allocate@$0BA@U_Default_allocate_traits@std@@$0A@@std@@YAPEAX_K@Z ; std::_Allocate<16,std::_Default_allocate_traits,0>
PUBLIC	??$_Destroy_range@V?$allocator@UPoint@@@std@@@std@@YAXPEAUPoint@@QEAU1@AEAV?$allocator@UPoint@@@0@@Z ; std::_Destroy_range<std::allocator<Point> >
PUBLIC	??$_Get_unwrapped_n@AEAPEAI_K@std@@YAPEAIAEAPEAI_K@Z ; std::_Get_unwrapped_n<unsigned int * &,unsigned __int64>
PUBLIC	??$fill_n@PEAI_KI@std@@YAPEAIPEAI_KAEBI@Z	; std::fill_n<unsigned int *,unsigned __int64,unsigned int>
PUBLIC	??$?0$$V@?$_Compressed_pair@V?$allocator@UPoint@@@std@@V?$_Vector_val@U?$_Simple_types@UPoint@@@std@@@2@$00@std@@QEAA@U_Zero_then_variadic_args_t@1@@Z ; std::_Compressed_pair<std::allocator<Point>,std::_Vector_val<std::_Simple_types<Point> >,1>::_Compressed_pair<std::allocator<Point>,std::_Vector_val<std::_Simple_types<Point> >,1><>
PUBLIC	??$_Emplace_reallocate@UPoint@@@?$vector@UPoint@@V?$allocator@UPoint@@@std@@@std@@QEAAPEAUPoint@@QEAU2@$$QEAU2@@Z ; std::vector<Point,std::allocator<Point> >::_Emplace_reallocate<Point>
PUBLIC	??$construct@UPoint@@U1@@?$_Default_allocator_traits@V?$allocator@UPoint@@@std@@@std@@SAXAEAV?$allocator@UPoint@@@1@QEAUPoint@@$$QEAU3@@Z ; std::_Default_allocator_traits<std::allocator<Point> >::construct<Point,Point>
PUBLIC	??$forward@UPoint@@@std@@YA$$QEAUPoint@@AEAU1@@Z ; std::forward<Point>
PUBLIC	??$move@AEAUPoint@@@std@@YA$$QEAUPoint@@AEAU1@@Z ; std::move<Point &>
PUBLIC	??$destroy@UPoint@@@?$_Default_allocator_traits@V?$allocator@UPoint@@@std@@@std@@SAXAEAV?$allocator@UPoint@@@1@QEAUPoint@@@Z ; std::_Default_allocator_traits<std::allocator<Point> >::destroy<Point>
PUBLIC	??$_Unfancy@UPoint@@@std@@YAPEAUPoint@@PEAU1@@Z	; std::_Unfancy<Point>
PUBLIC	??$min@_K@std@@YAAEB_KAEB_K0@Z			; std::min<unsigned __int64>
PUBLIC	??$min@I@std@@YAAEBIAEBI0@Z			; std::min<unsigned int>
PUBLIC	??$?H$00@?$BaseExpr@V?$SymbolExpr@Usymbolic_last_tag@internal@Eigen@@@symbolic@Eigen@@@symbolic@Eigen@@QEBA?AV?$AddExpr@V?$SymbolExpr@Usymbolic_last_tag@internal@Eigen@@@symbolic@Eigen@@V?$ValueExpr@V?$FixedInt@$00@internal@Eigen@@@23@@12@V?$FixedInt@$00@internal@2@@Z ; Eigen::symbolic::BaseExpr<Eigen::symbolic::SymbolExpr<Eigen::internal::symbolic_last_tag> >::operator+<1>
PUBLIC	??$?6U?$char_traits@D@std@@@std@@YAAEAV?$basic_ostream@DU?$char_traits@D@std@@@0@AEAV10@PEBD@Z ; std::operator<<<std::char_traits<char> >
PUBLIC	??$_Min_value@_K@std@@YAAEB_KAEB_K0@Z		; std::_Min_value<unsigned __int64>
PUBLIC	?_Umove_if_noexcept1@?$vector@UPoint@@V?$allocator@UPoint@@@std@@@std@@AEAAXPEAUPoint@@00U?$integral_constant@_N$00@2@@Z ; std::vector<Point,std::allocator<Point> >::_Umove_if_noexcept1
PUBLIC	?_Get_first@?$_Compressed_pair@V?$allocator@UPoint@@@std@@V?$_Vector_val@U?$_Simple_types@UPoint@@@std@@@2@$00@std@@QEBAAEBV?$allocator@UPoint@@@2@XZ ; std::_Compressed_pair<std::allocator<Point>,std::_Vector_val<std::_Simple_types<Point> >,1>::_Get_first
PUBLIC	?deallocate@?$allocator@UPoint@@@std@@QEAAXQEAUPoint@@_K@Z ; std::allocator<Point>::deallocate
PUBLIC	?allocate@?$allocator@UPoint@@@std@@QEAAPEAUPoint@@_K@Z ; std::allocator<Point>::allocate
PUBLIC	?max_size@?$_Default_allocator_traits@V?$allocator@UPoint@@@std@@@std@@SA_KAEBV?$allocator@UPoint@@@2@@Z ; std::_Default_allocator_traits<std::allocator<Point> >::max_size
PUBLIC	?_Umove_if_noexcept@?$vector@UPoint@@V?$allocator@UPoint@@@std@@@std@@AEAAXPEAUPoint@@00@Z ; std::vector<Point,std::allocator<Point> >::_Umove_if_noexcept
PUBLIC	?_Change_array@?$vector@UPoint@@V?$allocator@UPoint@@@std@@@std@@AEAAXQEAUPoint@@_K1@Z ; std::vector<Point,std::allocator<Point> >::_Change_array
PUBLIC	?_Getal@?$vector@UPoint@@V?$allocator@UPoint@@@std@@@std@@AEBAAEBV?$allocator@UPoint@@@2@XZ ; std::vector<Point,std::allocator<Point> >::_Getal
PUBLIC	?_Get_first@?$_Compressed_pair@V?$allocator@UPoint@@@std@@V?$_Vector_val@U?$_Simple_types@UPoint@@@std@@@2@$00@std@@QEAAAEAV?$allocator@UPoint@@@2@XZ ; std::_Compressed_pair<std::allocator<Point>,std::_Vector_val<std::_Simple_types<Point> >,1>::_Get_first
PUBLIC	??0_Sentry_base@?$basic_ostream@DU?$char_traits@D@std@@@std@@QEAA@AEAV12@@Z ; std::basic_ostream<char,std::char_traits<char> >::_Sentry_base::_Sentry_base
PUBLIC	??1_Sentry_base@?$basic_ostream@DU?$char_traits@D@std@@@std@@QEAA@XZ ; std::basic_ostream<char,std::char_traits<char> >::_Sentry_base::~_Sentry_base
PUBLIC	?length@?$_Narrow_char_traits@DH@std@@SA_KQEBD@Z ; std::_Narrow_char_traits<char,int>::length
PUBLIC	?eq_int_type@?$_Narrow_char_traits@DH@std@@SA_NAEBH0@Z ; std::_Narrow_char_traits<char,int>::eq_int_type
PUBLIC	?eof@?$_Narrow_char_traits@DH@std@@SAHXZ	; std::_Narrow_char_traits<char,int>::eof
PUBLIC	?_Reallocate_exactly@?$vector@UPoint@@V?$allocator@UPoint@@@std@@@std@@AEAAX_K@Z ; std::vector<Point,std::allocator<Point> >::_Reallocate_exactly
PUBLIC	?max_size@?$vector@UPoint@@V?$allocator@UPoint@@@std@@@std@@QEBA_KXZ ; std::vector<Point,std::allocator<Point> >::max_size
PUBLIC	?capacity@?$vector@UPoint@@V?$allocator@UPoint@@@std@@@std@@QEBA_KXZ ; std::vector<Point,std::allocator<Point> >::capacity
PUBLIC	?_Destroy@?$vector@UPoint@@V?$allocator@UPoint@@@std@@@std@@AEAAXPEAUPoint@@0@Z ; std::vector<Point,std::allocator<Point> >::_Destroy
PUBLIC	?_Tidy@?$vector@UPoint@@V?$allocator@UPoint@@@std@@@std@@AEAAXXZ ; std::vector<Point,std::allocator<Point> >::_Tidy
PUBLIC	?_Xlength@?$vector@UPoint@@V?$allocator@UPoint@@@std@@@std@@CAXXZ ; std::vector<Point,std::allocator<Point> >::_Xlength
PUBLIC	?_Orphan_range@?$vector@UPoint@@V?$allocator@UPoint@@@std@@@std@@AEBAXPEAUPoint@@0@Z ; std::vector<Point,std::allocator<Point> >::_Orphan_range
PUBLIC	?_Getal@?$vector@UPoint@@V?$allocator@UPoint@@@std@@@std@@AEAAAEAV?$allocator@UPoint@@@2@XZ ; std::vector<Point,std::allocator<Point> >::_Getal
PUBLIC	??0sentry@?$basic_ostream@DU?$char_traits@D@std@@@std@@QEAA@AEAV12@@Z ; std::basic_ostream<char,std::char_traits<char> >::sentry::sentry
PUBLIC	??1sentry@?$basic_ostream@DU?$char_traits@D@std@@@std@@QEAA@XZ ; std::basic_ostream<char,std::char_traits<char> >::sentry::~sentry
PUBLIC	??Bsentry@?$basic_ostream@DU?$char_traits@D@std@@@std@@QEBA_NXZ ; std::basic_ostream<char,std::char_traits<char> >::sentry::operator bool
PUBLIC	??0?$SymbolExpr@Usymbolic_last_tag@internal@Eigen@@@symbolic@Eigen@@QEAA@XZ ; Eigen::symbolic::SymbolExpr<Eigen::internal::symbolic_last_tag>::SymbolExpr<Eigen::internal::symbolic_last_tag>
PUBLIC	??R?$FixedInt@$00@internal@Eigen@@QEBA?AV012@XZ	; Eigen::internal::FixedInt<1>::operator()
PUBLIC	?fill@?$array@I$06@std@@QEAAXAEBI@Z		; std::array<unsigned int,7>::fill
PUBLIC	?_Unchecked_begin@?$array@I$06@std@@QEAAPEAIXZ	; std::array<unsigned int,7>::_Unchecked_begin
PUBLIC	?_Unchecked_end@?$array@I$06@std@@QEAAPEAIXZ	; std::array<unsigned int,7>::_Unchecked_end
PUBLIC	??A?$array@I$06@std@@QEAAAEAI_K@Z		; std::array<unsigned int,7>::operator[]
PUBLIC	??0?$vector@UPoint@@V?$allocator@UPoint@@@std@@@std@@QEAA@XZ ; std::vector<Point,std::allocator<Point> >::vector<Point,std::allocator<Point> >
PUBLIC	??1?$vector@UPoint@@V?$allocator@UPoint@@@std@@@std@@QEAA@XZ ; std::vector<Point,std::allocator<Point> >::~vector<Point,std::allocator<Point> >
PUBLIC	??$_Emplace_back_with_unused_capacity@UPoint@@@?$vector@UPoint@@V?$allocator@UPoint@@@std@@@std@@AEAAAEAUPoint@@$$QEAU2@@Z ; std::vector<Point,std::allocator<Point> >::_Emplace_back_with_unused_capacity<Point>
PUBLIC	??$emplace_back@UPoint@@@?$vector@UPoint@@V?$allocator@UPoint@@@std@@@std@@QEAAAEAUPoint@@$$QEAU2@@Z ; std::vector<Point,std::allocator<Point> >::emplace_back<Point>
PUBLIC	?push_back@?$vector@UPoint@@V?$allocator@UPoint@@@std@@@std@@QEAAX$$QEAUPoint@@@Z ; std::vector<Point,std::allocator<Point> >::push_back
PUBLIC	?reserve@?$vector@UPoint@@V?$allocator@UPoint@@@std@@@std@@QEAAX_K@Z ; std::vector<Point,std::allocator<Point> >::reserve
PUBLIC	?pop_back@?$vector@UPoint@@V?$allocator@UPoint@@@std@@@std@@QEAAXXZ ; std::vector<Point,std::allocator<Point> >::pop_back
PUBLIC	?clear@?$vector@UPoint@@V?$allocator@UPoint@@@std@@@std@@QEAAXXZ ; std::vector<Point,std::allocator<Point> >::clear
PUBLIC	?back@?$vector@UPoint@@V?$allocator@UPoint@@@std@@@std@@QEAAAEAUPoint@@XZ ; std::vector<Point,std::allocator<Point> >::back
PUBLIC	?newGame@Board@@QEAAXXZ				; Board::newGame
PUBLIC	?undoMove@Board@@QEAAXXZ			; Board::undoMove
PUBLIC	?isOver@Board@@AEAAXXZ				; Board::isOver
PUBLIC	?doMove@Board@@QEAA_NH@Z			; Board::doMove
PUBLIC	??ABoard@@QEBAAEB_KH@Z				; Board::operator[]
PUBLIC	?printBoard@Board@@QEAAXXZ			; Board::printBoard
PUBLIC	??0Board@@QEAA@XZ				; Board::Board
PUBLIC	??0all_t@internal@Eigen@@QEAA@XZ		; Eigen::internal::all_t::all_t
PUBLIC	?_Alloc_proxy@_Container_base0@std@@QEAAXAEBU_Fake_allocator@2@@Z ; std::_Container_base0::_Alloc_proxy
PUBLIC	?_Orphan_all@_Container_base0@std@@QEAAXXZ	; std::_Container_base0::_Orphan_all
PUBLIC	?_Adjust_manually_vector_aligned@std@@YAXAEAPEAXAEA_K@Z ; std::_Adjust_manually_vector_aligned
PUBLIC	?_Allocate@_Default_allocate_traits@std@@SAPEAX_K@Z ; std::_Default_allocate_traits::_Allocate
PUBLIC	?max@?$numeric_limits@_J@std@@SA_JXZ		; std::numeric_limits<__int64>::max
PUBLIC	??0bad_alloc@std@@QEAA@AEBV01@@Z		; std::bad_alloc::bad_alloc
PUBLIC	??0bad_array_new_length@std@@QEAA@AEBV01@@Z	; std::bad_array_new_length::bad_array_new_length
PUBLIC	?_Throw_bad_array_new_length@std@@YAXXZ		; std::_Throw_bad_array_new_length
PUBLIC	??1bad_array_new_length@std@@UEAA@XZ		; std::bad_array_new_length::~bad_array_new_length
PUBLIC	??_Gbad_array_new_length@std@@UEAAPEAXI@Z	; std::bad_array_new_length::`scalar deleting destructor'
PUBLIC	??0bad_array_new_length@std@@QEAA@XZ		; std::bad_array_new_length::bad_array_new_length
PUBLIC	??1bad_alloc@std@@UEAA@XZ			; std::bad_alloc::~bad_alloc
PUBLIC	??_Gbad_alloc@std@@UEAAPEAXI@Z			; std::bad_alloc::`scalar deleting destructor'
PUBLIC	??0bad_alloc@std@@AEAA@QEBD@Z			; std::bad_alloc::bad_alloc
PUBLIC	??_Gexception@std@@UEAAPEAXI@Z			; std::exception::`scalar deleting destructor'
PUBLIC	?what@exception@std@@UEBAPEBDXZ			; std::exception::what
PUBLIC	??1exception@std@@UEAA@XZ			; std::exception::~exception
PUBLIC	??0exception@std@@QEAA@AEBV01@@Z		; std::exception::exception
PUBLIC	??0exception@std@@QEAA@QEBDH@Z			; std::exception::exception
PUBLIC	??0exception@std@@QEAA@QEBD@Z			; std::exception::exception
PUBLIC	??2@YAPEAX_KPEAX@Z				; operator new
PUBLIC	__real@3e112e0be826d695
PUBLIC	__real@3f800000
PUBLIC	__real@3fb999999999999a
PUBLIC	__real@3fc3333333333333
PUBLIC	__real@3ff0000000000000
PUBLIC	__real@404a800000000000
PUBLIC	__real@4059000000000000
PUBLIC	__real@43f0000000000000
PUBLIC	__real@bff0000000000000
PUBLIC	__real@c059000000000000
PUBLIC	__xmm@00000000000000010000000000000000
PUBLIC	__xmm@00000000000000d20000000000000006
PUBLIC	__xmm@00000004000186a000000003000186a0
PUBLIC	__xmm@00000005000000020000000400000003
PUBLIC	__xmm@00000005000186a000000002000186a0
PUBLIC	__xmm@00000006000186a000000001000186a0
PUBLIC	__xmm@ffffffffffffffff0000000000000000
PUBLIC	__xmm@ffffffffffffffffffffffffffffffff
EXTRN	??_Eexception@std@@UEAAPEAXI@Z:PROC		; std::exception::`vector deleting destructor'
EXTRN	??_Ebad_alloc@std@@UEAAPEAXI@Z:PROC		; std::bad_alloc::`vector deleting destructor'
EXTRN	??_Ebad_array_new_length@std@@UEAAPEAXI@Z:PROC	; std::bad_array_new_length::`vector deleting destructor'
EXTRN	_CxxThrowException:PROC
EXTRN	__CxxFrameHandler4:PROC
EXTRN	__GSHandlerCheck:PROC
EXTRN	__GSHandlerCheck_EH4:PROC
EXTRN	__chkstk:PROC
EXTRN	__std_terminate:PROC
EXTRN	memchr:PROC
EXTRN	memcmp:PROC
EXTRN	memcpy:PROC
EXTRN	memmove:PROC
EXTRN	memset:PROC
EXTRN	tanhf:PROC
EXTRN	__ImageBase:BYTE
EXTRN	__security_cookie:QWORD
EXTRN	_fltused:DWORD
EXTRN	_tls_index:DWORD
;	COMDAT pdata
pdata	SEGMENT
$pdata$??$_Copy_memmove@PEAUPoint@@PEAU1@@std@@YAPEAUPoint@@PEAU1@00@Z DD imagerel $LN4@Copy_memmo
	DD	imagerel $LN4@Copy_memmo+48
	DD	imagerel $unwind$??$_Copy_memmove@PEAUPoint@@PEAU1@@std@@YAPEAUPoint@@PEAU1@00@Z
pdata	ENDS
;	COMDAT pdata
pdata	SEGMENT
$pdata$??$_Allocate_manually_vector_aligned@U_Default_allocate_traits@std@@@std@@YAPEAX_K@Z DD imagerel $LN17@Allocate_m
	DD	imagerel $LN17@Allocate_m+59
	DD	imagerel $unwind$??$_Allocate_manually_vector_aligned@U_Default_allocate_traits@std@@@std@@YAPEAX_K@Z
pdata	ENDS
;	COMDAT pdata
pdata	SEGMENT
$pdata$?_Umove@?$vector@UPoint@@V?$allocator@UPoint@@@std@@@std@@AEAAPEAUPoint@@PEAU3@00@Z DD imagerel $LN8@Umove
	DD	imagerel $LN8@Umove+49
	DD	imagerel $unwind$?_Umove@?$vector@UPoint@@V?$allocator@UPoint@@@std@@@std@@AEAAPEAUPoint@@PEAU3@00@Z
pdata	ENDS
;	COMDAT pdata
pdata	SEGMENT
$pdata$??$_Uninitialized_move@PEAUPoint@@V?$allocator@UPoint@@@std@@@std@@YAPEAUPoint@@QEAU1@0PEAU1@AEAV?$allocator@UPoint@@@0@@Z DD imagerel $LN6@Uninitiali
	DD	imagerel $LN6@Uninitiali+52
	DD	imagerel $unwind$??$_Uninitialized_move@PEAUPoint@@V?$allocator@UPoint@@@std@@@std@@YAPEAUPoint@@QEAU1@0PEAU1@AEAV?$allocator@UPoint@@@0@@Z
pdata	ENDS
;	COMDAT pdata
pdata	SEGMENT
$pdata$??$_Get_size_of_n@$07@std@@YA_K_K@Z DD imagerel $LN7@Get_size_o
	DD	imagerel $LN7@Get_size_o+38
	DD	imagerel $unwind$??$_Get_size_of_n@$07@std@@YA_K_K@Z
pdata	ENDS
;	COMDAT pdata
pdata	SEGMENT
$pdata$??$_Deallocate@$0BA@$0A@@std@@YAXPEAX_K@Z DD imagerel $LN18@Deallocate
	DD	imagerel $LN18@Deallocate+53
	DD	imagerel $unwind$??$_Deallocate@$0BA@$0A@@std@@YAXPEAX_K@Z
pdata	ENDS
;	COMDAT pdata
pdata	SEGMENT
$pdata$??$_Allocate@$0BA@U_Default_allocate_traits@std@@$0A@@std@@YAPEAX_K@Z DD imagerel $LN24@Allocate
	DD	imagerel $LN24@Allocate+89
	DD	imagerel $unwind$??$_Allocate@$0BA@U_Default_allocate_traits@std@@$0A@@std@@YAPEAX_K@Z
pdata	ENDS
;	COMDAT pdata
pdata	SEGMENT
$pdata$??$_Emplace_reallocate@UPoint@@@?$vector@UPoint@@V?$allocator@UPoint@@@std@@@std@@QEAAPEAUPoint@@QEAU2@$$QEAU2@@Z DD imagerel $LN94@Emplace_re
	DD	imagerel $LN94@Emplace_re+71
	DD	imagerel $unwind$??$_Emplace_reallocate@UPoint@@@?$vector@UPoint@@V?$allocator@UPoint@@@std@@@std@@QEAAPEAUPoint@@QEAU2@$$QEAU2@@Z
pdata	ENDS
;	COMDAT pdata
pdata	SEGMENT
$pdata$2$??$_Emplace_reallocate@UPoint@@@?$vector@UPoint@@V?$allocator@UPoint@@@std@@@std@@QEAAPEAUPoint@@QEAU2@$$QEAU2@@Z DD imagerel $LN94@Emplace_re+71
	DD	imagerel $LN94@Emplace_re+381
	DD	imagerel $chain$2$??$_Emplace_reallocate@UPoint@@@?$vector@UPoint@@V?$allocator@UPoint@@@std@@@std@@QEAAPEAUPoint@@QEAU2@$$QEAU2@@Z
pdata	ENDS
;	COMDAT pdata
pdata	SEGMENT
$pdata$4$??$_Emplace_reallocate@UPoint@@@?$vector@UPoint@@V?$allocator@UPoint@@@std@@@std@@QEAAPEAUPoint@@QEAU2@$$QEAU2@@Z DD imagerel $LN94@Emplace_re+381
	DD	imagerel $LN94@Emplace_re+388
	DD	imagerel $chain$4$??$_Emplace_reallocate@UPoint@@@?$vector@UPoint@@V?$allocator@UPoint@@@std@@@std@@QEAAPEAUPoint@@QEAU2@$$QEAU2@@Z
pdata	ENDS
;	COMDAT pdata
pdata	SEGMENT
$pdata$5$??$_Emplace_reallocate@UPoint@@@?$vector@UPoint@@V?$allocator@UPoint@@@std@@@std@@QEAAPEAUPoint@@QEAU2@$$QEAU2@@Z DD imagerel $LN94@Emplace_re+388
	DD	imagerel $LN94@Emplace_re+394
	DD	imagerel $chain$5$??$_Emplace_reallocate@UPoint@@@?$vector@UPoint@@V?$allocator@UPoint@@@std@@@std@@QEAAPEAUPoint@@QEAU2@$$QEAU2@@Z
pdata	ENDS
;	COMDAT pdata
pdata	SEGMENT
$pdata$6$??$_Emplace_reallocate@UPoint@@@?$vector@UPoint@@V?$allocator@UPoint@@@std@@@std@@QEAAPEAUPoint@@QEAU2@$$QEAU2@@Z DD imagerel $LN94@Emplace_re+394
	DD	imagerel $LN94@Emplace_re+400
	DD	imagerel $chain$6$??$_Emplace_reallocate@UPoint@@@?$vector@UPoint@@V?$allocator@UPoint@@@std@@@std@@QEAAPEAUPoint@@QEAU2@$$QEAU2@@Z
pdata	ENDS
;	COMDAT pdata
pdata	SEGMENT
$pdata$??$?6U?$char_traits@D@std@@@std@@YAAEAV?$basic_ostream@DU?$char_traits@D@std@@@0@AEAV10@PEBD@Z DD imagerel $LN99@operator
	DD	imagerel $LN99@operator+458
	DD	imagerel $unwind$??$?6U?$char_traits@D@std@@@std@@YAAEAV?$basic_ostream@DU?$char_traits@D@std@@@0@AEAV10@PEBD@Z
pdata	ENDS
;	COMDAT pdata
pdata	SEGMENT
$pdata$?catch$4@?0???$?6U?$char_traits@D@std@@@std@@YAAEAV?$basic_ostream@DU?$char_traits@D@std@@@0@AEAV10@PEBD@Z@4HA DD imagerel ?catch$4@?0???$?6U?$char_traits@D@std@@@std@@YAAEAV?$basic_ostream@DU?$char_traits@D@std@@@0@AEAV10@PEBD@Z@4HA
	DD	imagerel ?catch$4@?0???$?6U?$char_traits@D@std@@@std@@YAAEAV?$basic_ostream@DU?$char_traits@D@std@@@0@AEAV10@PEBD@Z@4HA+59
	DD	imagerel $unwind$?catch$4@?0???$?6U?$char_traits@D@std@@@std@@YAAEAV?$basic_ostream@DU?$char_traits@D@std@@@0@AEAV10@PEBD@Z@4HA
pdata	ENDS
;	COMDAT pdata
pdata	SEGMENT
$pdata$?deallocate@?$allocator@UPoint@@@std@@QEAAXQEAUPoint@@_K@Z DD imagerel $LN21@deallocate
	DD	imagerel $LN21@deallocate+67
	DD	imagerel $unwind$?deallocate@?$allocator@UPoint@@@std@@QEAAXQEAUPoint@@_K@Z
pdata	ENDS
;	COMDAT pdata
pdata	SEGMENT
$pdata$?allocate@?$allocator@UPoint@@@std@@QEAAPEAUPoint@@_K@Z DD imagerel $LN30@allocate
	DD	imagerel $LN30@allocate+112
	DD	imagerel $unwind$?allocate@?$allocator@UPoint@@@std@@QEAAPEAUPoint@@_K@Z
pdata	ENDS
;	COMDAT pdata
pdata	SEGMENT
$pdata$?_Change_array@?$vector@UPoint@@V?$allocator@UPoint@@@std@@@std@@AEAAXQEAUPoint@@_K1@Z DD imagerel $LN25@Change_arr
	DD	imagerel $LN25@Change_arr+136
	DD	imagerel $unwind$?_Change_array@?$vector@UPoint@@V?$allocator@UPoint@@@std@@@std@@AEAAXQEAUPoint@@_K1@Z
pdata	ENDS
;	COMDAT pdata
pdata	SEGMENT
$pdata$??0_Sentry_base@?$basic_ostream@DU?$char_traits@D@std@@@std@@QEAA@AEAV12@@Z DD imagerel $LN8@Sentry_bas
	DD	imagerel $LN8@Sentry_bas+44
	DD	imagerel $unwind$??0_Sentry_base@?$basic_ostream@DU?$char_traits@D@std@@@std@@QEAA@AEAV12@@Z
pdata	ENDS
;	COMDAT pdata
pdata	SEGMENT
$pdata$??1_Sentry_base@?$basic_ostream@DU?$char_traits@D@std@@@std@@QEAA@XZ DD imagerel $LN8@Sentry_bas
	DD	imagerel $LN8@Sentry_bas+36
	DD	imagerel $unwind$??1_Sentry_base@?$basic_ostream@DU?$char_traits@D@std@@@std@@QEAA@XZ
pdata	ENDS
;	COMDAT pdata
pdata	SEGMENT
$pdata$?_Reallocate_exactly@?$vector@UPoint@@V?$allocator@UPoint@@@std@@@std@@AEAAX_K@Z DD imagerel $LN68@Reallocate
	DD	imagerel $LN68@Reallocate+162
	DD	imagerel $unwind$?_Reallocate_exactly@?$vector@UPoint@@V?$allocator@UPoint@@@std@@@std@@AEAAX_K@Z
pdata	ENDS
;	COMDAT pdata
pdata	SEGMENT
$pdata$?_Tidy@?$vector@UPoint@@V?$allocator@UPoint@@@std@@@std@@AEAAXXZ DD imagerel $LN25@Tidy
	DD	imagerel $LN25@Tidy+92
	DD	imagerel $unwind$?_Tidy@?$vector@UPoint@@V?$allocator@UPoint@@@std@@@std@@AEAAXXZ
pdata	ENDS
;	COMDAT pdata
pdata	SEGMENT
$pdata$?_Xlength@?$vector@UPoint@@V?$allocator@UPoint@@@std@@@std@@CAXXZ DD imagerel $LN4@Xlength
	DD	imagerel $LN4@Xlength+18
	DD	imagerel $unwind$?_Xlength@?$vector@UPoint@@V?$allocator@UPoint@@@std@@@std@@CAXXZ
pdata	ENDS
;	COMDAT pdata
pdata	SEGMENT
$pdata$??0sentry@?$basic_ostream@DU?$char_traits@D@std@@@std@@QEAA@AEAV12@@Z DD imagerel $LN24@sentry
	DD	imagerel $LN24@sentry+122
	DD	imagerel $unwind$??0sentry@?$basic_ostream@DU?$char_traits@D@std@@@std@@QEAA@AEAV12@@Z
pdata	ENDS
;	COMDAT pdata
pdata	SEGMENT
$pdata$??1sentry@?$basic_ostream@DU?$char_traits@D@std@@@std@@QEAA@XZ DD imagerel $LN13@sentry
	DD	imagerel $LN13@sentry+62
	DD	imagerel $unwind$??1sentry@?$basic_ostream@DU?$char_traits@D@std@@@std@@QEAA@XZ
pdata	ENDS
;	COMDAT pdata
pdata	SEGMENT
$pdata$??1?$vector@UPoint@@V?$allocator@UPoint@@@std@@@std@@QEAA@XZ DD imagerel $LN28@vector
	DD	imagerel $LN28@vector+92
	DD	imagerel $unwind$??1?$vector@UPoint@@V?$allocator@UPoint@@@std@@@std@@QEAA@XZ
pdata	ENDS
;	COMDAT pdata
pdata	SEGMENT
$pdata$?newGame@Board@@QEAAXXZ DD imagerel $LN37@newGame
	DD	imagerel $LN37@newGame+126
	DD	imagerel $unwind$?newGame@Board@@QEAAXXZ
pdata	ENDS
;	COMDAT pdata
pdata	SEGMENT
$pdata$?isOver@Board@@AEAAXXZ DD imagerel $LN83@isOver
	DD	imagerel $LN83@isOver+717
	DD	imagerel $unwind$?isOver@Board@@AEAAXXZ
pdata	ENDS
;	COMDAT pdata
pdata	SEGMENT
$pdata$?doMove@Board@@QEAA_NH@Z DD imagerel $LN30@doMove
	DD	imagerel $LN30@doMove+62
	DD	imagerel $unwind$?doMove@Board@@QEAA_NH@Z
pdata	ENDS
;	COMDAT pdata
pdata	SEGMENT
$pdata$0$?doMove@Board@@QEAA_NH@Z DD imagerel $LN30@doMove+62
	DD	imagerel $LN30@doMove+177
	DD	imagerel $chain$0$?doMove@Board@@QEAA_NH@Z
pdata	ENDS
;	COMDAT pdata
pdata	SEGMENT
$pdata$1$?doMove@Board@@QEAA_NH@Z DD imagerel $LN30@doMove+177
	DD	imagerel $LN30@doMove+289
	DD	imagerel $chain$1$?doMove@Board@@QEAA_NH@Z
pdata	ENDS
;	COMDAT pdata
pdata	SEGMENT
$pdata$??ABoard@@QEBAAEB_KH@Z DD imagerel $LN7@operator
	DD	imagerel $LN7@operator+96
	DD	imagerel $unwind$??ABoard@@QEBAAEB_KH@Z
pdata	ENDS
;	COMDAT pdata
pdata	SEGMENT
$pdata$?printBoard@Board@@QEAAXXZ DD imagerel $LN23@printBoard
	DD	imagerel $LN23@printBoard+258
	DD	imagerel $unwind$?printBoard@Board@@QEAAXXZ
pdata	ENDS
;	COMDAT pdata
pdata	SEGMENT
$pdata$??0Board@@QEAA@XZ DD imagerel $LN67@Board
	DD	imagerel $LN67@Board+264
	DD	imagerel $unwind$??0Board@@QEAA@XZ
pdata	ENDS
;	COMDAT pdata
pdata	SEGMENT
$pdata$?_Adjust_manually_vector_aligned@std@@YAXAEAPEAXAEA_K@Z DD imagerel $LN13@Adjust_man
	DD	imagerel $LN13@Adjust_man+43
	DD	imagerel $unwind$?_Adjust_manually_vector_aligned@std@@YAXAEAPEAXAEA_K@Z
pdata	ENDS
;	COMDAT pdata
pdata	SEGMENT
$pdata$??0bad_alloc@std@@QEAA@AEBV01@@Z DD imagerel $LN7@bad_alloc
	DD	imagerel $LN7@bad_alloc+61
	DD	imagerel $unwind$??0bad_alloc@std@@QEAA@AEBV01@@Z
pdata	ENDS
;	COMDAT pdata
pdata	SEGMENT
$pdata$??0bad_array_new_length@std@@QEAA@AEBV01@@Z DD imagerel $LN10@bad_array_
	DD	imagerel $LN10@bad_array_+61
	DD	imagerel $unwind$??0bad_array_new_length@std@@QEAA@AEBV01@@Z
pdata	ENDS
;	COMDAT pdata
pdata	SEGMENT
$pdata$?_Throw_bad_array_new_length@std@@YAXXZ DD imagerel $LN4@Throw_bad_
	DD	imagerel $LN4@Throw_bad_+32
	DD	imagerel $unwind$?_Throw_bad_array_new_length@std@@YAXXZ
pdata	ENDS
;	COMDAT pdata
pdata	SEGMENT
$pdata$??_Gbad_array_new_length@std@@UEAAPEAXI@Z DD imagerel $LN15@scalar
	DD	imagerel $LN15@scalar+67
	DD	imagerel $unwind$??_Gbad_array_new_length@std@@UEAAPEAXI@Z
pdata	ENDS
;	COMDAT pdata
pdata	SEGMENT
$pdata$??_Gbad_alloc@std@@UEAAPEAXI@Z DD imagerel $LN12@scalar
	DD	imagerel $LN12@scalar+67
	DD	imagerel $unwind$??_Gbad_alloc@std@@UEAAPEAXI@Z
pdata	ENDS
;	COMDAT pdata
pdata	SEGMENT
$pdata$??_Gexception@std@@UEAAPEAXI@Z DD imagerel $LN9@scalar
	DD	imagerel $LN9@scalar+67
	DD	imagerel $unwind$??_Gexception@std@@UEAAPEAXI@Z
pdata	ENDS
;	COMDAT pdata
pdata	SEGMENT
$pdata$??0exception@std@@QEAA@AEBV01@@Z DD imagerel $LN5@exception
	DD	imagerel $LN5@exception+51
	DD	imagerel $unwind$??0exception@std@@QEAA@AEBV01@@Z
pdata	ENDS
;	COMDAT pdata
pdata	SEGMENT
$pdata$??0exception@std@@QEAA@QEBD@Z DD imagerel $LN5@exception
	DD	imagerel $LN5@exception+94
	DD	imagerel $unwind$??0exception@std@@QEAA@QEBD@Z
;	COMDAT __xmm@ffffffffffffffffffffffffffffffff
CONST	SEGMENT
__xmm@ffffffffffffffffffffffffffffffff DB 0ffH, 0ffH, 0ffH, 0ffH, 0ffH, 0ffH
	DB	0ffH, 0ffH, 0ffH, 0ffH, 0ffH, 0ffH, 0ffH, 0ffH, 0ffH, 0ffH
CONST	ENDS
;	COMDAT __xmm@ffffffffffffffff0000000000000000
CONST	SEGMENT
__xmm@ffffffffffffffff0000000000000000 DB 00H, 00H, 00H, 00H, 00H, 00H, 00H
	DB	00H, 0ffH, 0ffH, 0ffH, 0ffH, 0ffH, 0ffH, 0ffH, 0ffH
CONST	ENDS
;	COMDAT __xmm@00000006000186a000000001000186a0
CONST	SEGMENT
__xmm@00000006000186a000000001000186a0 DB 0a0H, 086H, 01H, 00H, 01H, 00H, 00H
	DB	00H, 0a0H, 086H, 01H, 00H, 06H, 00H, 00H, 00H
CONST	ENDS
;	COMDAT __xmm@00000005000186a000000002000186a0
CONST	SEGMENT
__xmm@00000005000186a000000002000186a0 DB 0a0H, 086H, 01H, 00H, 02H, 00H, 00H
	DB	00H, 0a0H, 086H, 01H, 00H, 05H, 00H, 00H, 00H
CONST	ENDS
;	COMDAT __xmm@00000005000000020000000400000003
CONST	SEGMENT
__xmm@00000005000000020000000400000003 DB 03H, 00H, 00H, 00H, 04H, 00H, 00H
	DB	00H, 02H, 00H, 00H, 00H, 05H, 00H, 00H, 00H
CONST	ENDS
;	COMDAT __xmm@00000004000186a000000003000186a0
CONST	SEGMENT
__xmm@00000004000186a000000003000186a0 DB 0a0H, 086H, 01H, 00H, 03H, 00H, 00H
	DB	00H, 0a0H, 086H, 01H, 00H, 04H, 00H, 00H, 00H
CONST	ENDS
;	COMDAT __xmm@00000000000000d20000000000000006
CONST	SEGMENT
__xmm@00000000000000d20000000000000006 DB 06H, 00H, 00H, 00H, 00H, 00H, 00H
	DB	00H, 0d2H, 00H, 00H, 00H, 00H, 00H, 00H, 00H
CONST	ENDS
;	COMDAT __xmm@00000000000000010000000000000000
CONST	SEGMENT
__xmm@00000000000000010000000000000000 DB 00H, 00H, 00H, 00H, 00H, 00H, 00H
	DB	00H, 01H, 00H, 00H, 00H, 00H, 00H, 00H, 00H
CONST	ENDS
;	COMDAT __real@c059000000000000
CONST	SEGMENT
__real@c059000000000000 DQ 0c059000000000000r	; -100
CONST	ENDS
;	COMDAT __real@bff0000000000000
CONST	SEGMENT
__real@bff0000000000000 DQ 0bff0000000000000r	; -1
CONST	ENDS
;	COMDAT __real@43f0000000000000
CONST	SEGMENT
__real@43f0000000000000 DQ 043f0000000000000r	; 1.84467e+19
CONST	ENDS
;	COMDAT __real@4059000000000000
CONST	SEGMENT
__real@4059000000000000 DQ 04059000000000000r	; 100
CONST	ENDS
;	COMDAT __real@404a800000000000
CONST	SEGMENT
__real@404a800000000000 DQ 0404a800000000000r	; 53
CONST	ENDS
;	COMDAT __real@3ff0000000000000
CONST	SEGMENT
__real@3ff0000000000000 DQ 03ff0000000000000r	; 1
CONST	ENDS
;	COMDAT __real@3fc3333333333333
CONST	SEGMENT
__real@3fc3333333333333 DQ 03fc3333333333333r	; 0.15
CONST	ENDS
;	COMDAT __real@3fb999999999999a
CONST	SEGMENT
__real@3fb999999999999a DQ 03fb999999999999ar	; 0.1
CONST	ENDS
;	COMDAT __real@3f800000
CONST	SEGMENT
__real@3f800000 DD 03f800000r			; 1
CONST	ENDS
;	COMDAT __real@3e112e0be826d695
CONST	SEGMENT
__real@3e112e0be826d695 DQ 03e112e0be826d695r	; 1e-09
CONST	ENDS
;	COMDAT xdata
xdata	SEGMENT
$unwind$??0exception@std@@QEAA@QEBD@Z DQ 03002720600021519r ; 1.99122e-77
	DD	imagerel __GSHandlerCheck
	DD	030H
xdata	ENDS
;	COMDAT xdata
xdata	SEGMENT
$unwind$??0exception@std@@QEAA@AEBV01@@Z DQ 03002320600020601r ; 1.96423e-77
xdata	ENDS
;	COMDAT xdata
xdata	SEGMENT
$unwind$??_Gexception@std@@UEAAPEAXI@Z DQ 00006340a00040a01r ; 8.62672e-309
	DD	07006320aH
xdata	ENDS
;	COMDAT xdata
xdata	SEGMENT
$unwind$??_Gbad_alloc@std@@UEAAPEAXI@Z DQ 00006340a00040a01r ; 8.62672e-309
	DD	07006320aH
xdata	ENDS
;	COMDAT xdata
xdata	SEGMENT
$unwind$??_Gbad_array_new_length@std@@UEAAPEAXI@Z DQ 00006340a00040a01r ; 8.62672e-309
	DD	07006320aH
xdata	ENDS
;	COMDAT xdata
xdata	SEGMENT
$unwind$?_Throw_bad_array_new_length@std@@YAXXZ DQ 00000820400010401r ; 7.06285e-310
xdata	ENDS
;	COMDAT xdata
xdata	SEGMENT
$unwind$??0bad_array_new_length@std@@QEAA@AEBV01@@Z DQ 03002320600020601r ; 1.96423e-77
xdata	ENDS
;	COMDAT xdata
xdata	SEGMENT
$unwind$??0bad_alloc@std@@QEAA@AEBV01@@Z DQ 03002320600020601r ; 1.96423e-77
xdata	ENDS
;	COMDAT xdata
xdata	SEGMENT
$unwind$?_Adjust_manually_vector_aligned@std@@YAXAEAPEAXAEA_K@Z DQ 00000420400010401r ; 3.58617e-310
xdata	ENDS
;	COMDAT xdata
xdata	SEGMENT
$ip2state$??0Board@@QEAA@XZ DW 0a602H
	DB	02H
xdata	ENDS
;	COMDAT xdata
xdata	SEGMENT
$stateUnwindMap$??0Board@@QEAA@XZ DW 0e02H
	DD	imagerel ?dtor$0@?0???0Board@@QEAA@XZ@4HA
xdata	ENDS
;	COMDAT xdata
xdata	SEGMENT
$cppxdata$??0Board@@QEAA@XZ DB 028H
	DD	imagerel $stateUnwindMap$??0Board@@QEAA@XZ
	DD	imagerel $ip2state$??0Board@@QEAA@XZ
xdata	ENDS
;	COMDAT xdata
xdata	SEGMENT
$unwind$??0Board@@QEAA@XZ DQ 00009340a00040a11r	; 1.27987e-308
	DD	07006520aH
	DD	imagerel __CxxFrameHandler4
	DD	imagerel $cppxdata$??0Board@@QEAA@XZ
xdata	ENDS
;	COMDAT xdata
xdata	SEGMENT
$unwind$?printBoard@Board@@QEAAXXZ DQ 00009741a000a1a01r ; 1.31467e-308
	DQ	00007541a0008641ar		; 1.01916e-308
	DQ	0e016321a0006341ar		; -7.4399e+154
xdata	ENDS
;	COMDAT xdata
xdata	SEGMENT
$unwind$??ABoard@@QEBAAEB_KH@Z DQ 00000820400010401r ; 7.06285e-310
xdata	ENDS
;	COMDAT xdata
xdata	SEGMENT
$chain$1$?doMove@Board@@QEAA_NH@Z DD 021H
	DD	imagerel $LN30@doMove
	DD	imagerel $LN30@doMove+62
	DD	imagerel $unwind$?doMove@Board@@QEAA_NH@Z
xdata	ENDS
;	COMDAT xdata
xdata	SEGMENT
$chain$0$?doMove@Board@@QEAA_NH@Z DQ 00006640500020521r ; 8.88736e-309
	DD	imagerel $LN30@doMove
	DD	imagerel $LN30@doMove+62
	DD	imagerel $unwind$?doMove@Board@@QEAA_NH@Z
xdata	ENDS
;	COMDAT xdata
xdata	SEGMENT
$unwind$?doMove@Board@@QEAA_NH@Z DQ 00007340a00040a01r ; 1.00174e-308
	DD	07006320aH
xdata	ENDS
;	COMDAT xdata
xdata	SEGMENT
$unwind$?isOver@Board@@AEAAXXZ DQ 00007741a000b1a01r ; 1.03654e-308
	DQ	00005541a0006641ar		; 7.41022e-309
	DQ	0d018e01a0004341ar		; -7.20094e+77
	DD	0c016H
xdata	ENDS
;	COMDAT xdata
xdata	SEGMENT
$unwind$?newGame@Board@@QEAAXXZ DQ 00007340a00040a01r ; 1.00174e-308
	DD	07006320aH
xdata	ENDS
;	COMDAT xdata
xdata	SEGMENT
$unwind$??1?$vector@UPoint@@V?$allocator@UPoint@@@std@@@std@@QEAA@XZ DQ 03002320600020601r ; 1.96423e-77
xdata	ENDS
;	COMDAT xdata
xdata	SEGMENT
$ip2state$??1sentry@?$basic_ostream@DU?$char_traits@D@std@@@std@@QEAA@XZ DD 03c002c04H
	DB	02H
xdata	ENDS
;	COMDAT xdata
xdata	SEGMENT
$stateUnwindMap$??1sentry@?$basic_ostream@DU?$char_traits@D@std@@@std@@QEAA@XZ DW 0e02H
	DD	imagerel __std_terminate
xdata	ENDS
;	COMDAT xdata
xdata	SEGMENT
$cppxdata$??1sentry@?$basic_ostream@DU?$char_traits@D@std@@@std@@QEAA@XZ DB 068H
	DD	imagerel $stateUnwindMap$??1sentry@?$basic_ostream@DU?$char_traits@D@std@@@std@@QEAA@XZ
	DD	imagerel $ip2state$??1sentry@?$basic_ostream@DU?$char_traits@D@std@@@std@@QEAA@XZ
xdata	ENDS
;	COMDAT xdata
xdata	SEGMENT
$unwind$??1sentry@?$basic_ostream@DU?$char_traits@D@std@@@std@@QEAA@XZ DQ 03002320600020619r ; 1.96423e-77
	DD	imagerel __CxxFrameHandler4
	DD	imagerel $cppxdata$??1sentry@?$basic_ostream@DU?$char_traits@D@std@@@std@@QEAA@XZ
xdata	ENDS
;	COMDAT xdata
xdata	SEGMENT
$ip2state$??0sentry@?$basic_ostream@DU?$char_traits@D@std@@@std@@QEAA@AEAV12@@Z DD 048005804H
	DB	02H
xdata	ENDS
;	COMDAT xdata
xdata	SEGMENT
$stateUnwindMap$??0sentry@?$basic_ostream@DU?$char_traits@D@std@@@std@@QEAA@AEAV12@@Z DW 0c02H
	DD	imagerel ??1_Sentry_base@?$basic_ostream@DU?$char_traits@D@std@@@std@@QEAA@XZ
	DB	060H
xdata	ENDS
;	COMDAT xdata
xdata	SEGMENT
$cppxdata$??0sentry@?$basic_ostream@DU?$char_traits@D@std@@@std@@QEAA@AEAV12@@Z DB 028H
	DD	imagerel $stateUnwindMap$??0sentry@?$basic_ostream@DU?$char_traits@D@std@@@std@@QEAA@AEAV12@@Z
	DD	imagerel $ip2state$??0sentry@?$basic_ostream@DU?$char_traits@D@std@@@std@@QEAA@AEAV12@@Z
xdata	ENDS
;	COMDAT xdata
xdata	SEGMENT
$unwind$??0sentry@?$basic_ostream@DU?$char_traits@D@std@@@std@@QEAA@AEAV12@@Z DQ 00007340f00040f11r ; 1.00175e-308
	DD	0700b320fH
	DD	imagerel __CxxFrameHandler4
	DD	imagerel $cppxdata$??0sentry@?$basic_ostream@DU?$char_traits@D@std@@@std@@QEAA@AEAV12@@Z
xdata	ENDS
;	COMDAT xdata
xdata	SEGMENT
$unwind$?_Xlength@?$vector@UPoint@@V?$allocator@UPoint@@@std@@@std@@CAXXZ DQ 00000420400010401r ; 3.58617e-310
xdata	ENDS
;	COMDAT xdata
xdata	SEGMENT
$unwind$?_Tidy@?$vector@UPoint@@V?$allocator@UPoint@@@std@@@std@@AEAAXXZ DQ 03002320600020601r ; 1.96423e-77
xdata	ENDS
;	COMDAT xdata
xdata	SEGMENT
$unwind$?_Reallocate_exactly@?$vector@UPoint@@V?$allocator@UPoint@@@std@@@std@@AEAAX_K@Z DQ 00008640f00060f01r ; 1.16689e-308
	DQ	0700b320f0007340fr		; 5.2777e+231
xdata	ENDS
;	COMDAT xdata
xdata	SEGMENT
$ip2state$??1_Sentry_base@?$basic_ostream@DU?$char_traits@D@std@@@std@@QEAA@XZ DW 03602H
	DB	00H
xdata	ENDS
;	COMDAT xdata
xdata	SEGMENT
$cppxdata$??1_Sentry_base@?$basic_ostream@DU?$char_traits@D@std@@@std@@QEAA@XZ DB 060H
	DD	imagerel $ip2state$??1_Sentry_base@?$basic_ostream@DU?$char_traits@D@std@@@std@@QEAA@XZ
xdata	ENDS
;	COMDAT xdata
xdata	SEGMENT
$unwind$??1_Sentry_base@?$basic_ostream@DU?$char_traits@D@std@@@std@@QEAA@XZ DQ 00000420400010419r ; 3.58617e-310
	DD	imagerel __CxxFrameHandler4
	DD	imagerel $cppxdata$??1_Sentry_base@?$basic_ostream@DU?$char_traits@D@std@@@std@@QEAA@XZ
xdata	ENDS
;	COMDAT xdata
xdata	SEGMENT
$unwind$??0_Sentry_base@?$basic_ostream@DU?$char_traits@D@std@@@std@@QEAA@AEAV12@@Z DQ 03002320600020601r ; 1.96423e-77
xdata	ENDS
;	COMDAT xdata
xdata	SEGMENT
$unwind$?_Change_array@?$vector@UPoint@@V?$allocator@UPoint@@@std@@@std@@AEAAXQEAUPoint@@_K1@Z DQ 00009641400081401r ; 1.30597e-308
	DQ	00007341400085414r		; 1.00176e-308
	DD	070103214H
xdata	ENDS
;	COMDAT xdata
xdata	SEGMENT
$unwind$?allocate@?$allocator@UPoint@@@std@@QEAAPEAUPoint@@_K@Z DQ 00000420400010401r ; 3.58617e-310
xdata	ENDS
;	COMDAT xdata
xdata	SEGMENT
$unwind$?deallocate@?$allocator@UPoint@@@std@@QEAAXQEAUPoint@@_K@Z DQ 00000420400010401r ; 3.58617e-310
xdata	ENDS
;	COMDAT xdata
xdata	SEGMENT
$unwind$?catch$4@?0???$?6U?$char_traits@D@std@@@std@@YAAEAV?$basic_ostream@DU?$char_traits@D@std@@@0@AEAV10@PEBD@Z@4HA DQ 05006320a00020a01r ; 3.21257e+77
xdata	ENDS
;	COMDAT xdata
xdata	SEGMENT
$ip2state$??$?6U?$char_traits@D@std@@@std@@YAAEAV?$basic_ostream@DU?$char_traits@D@std@@@0@AEAV10@PEBD@Z DQ 0d806b6025400e20er ; -1.11857e+116
	DD	0280a4c04H
	DW	0320cH
	DB	00H
xdata	ENDS
;	COMDAT xdata
xdata	SEGMENT
$handlerMap$??$?6U?$char_traits@D@std@@@std@@YAAEAV?$basic_ostream@DU?$char_traits@D@std@@@0@AEAV10@PEBD@Z DW 01102H
	DB	080H
	DD	imagerel ?catch$4@?0???$?6U?$char_traits@D@std@@@std@@YAAEAV?$basic_ostream@DU?$char_traits@D@std@@@0@AEAV10@PEBD@Z@4HA
	DW	0591H
xdata	ENDS
;	COMDAT xdata
xdata	SEGMENT
$tryMap$??$?6U?$char_traits@D@std@@@std@@YAAEAV?$basic_ostream@DU?$char_traits@D@std@@@0@AEAV10@PEBD@Z DD 06040402H
	DD	imagerel $handlerMap$??$?6U?$char_traits@D@std@@@std@@YAAEAV?$basic_ostream@DU?$char_traits@D@std@@@0@AEAV10@PEBD@Z
xdata	ENDS
;	COMDAT xdata
xdata	SEGMENT
$stateUnwindMap$??$?6U?$char_traits@D@std@@@std@@YAAEAV?$basic_ostream@DU?$char_traits@D@std@@@0@AEAV10@PEBD@Z DW 0a0cH
	DD	imagerel ??1_Sentry_base@?$basic_ostream@DU?$char_traits@D@std@@@std@@QEAA@XZ
	DW	03a40H
	DD	imagerel ??1sentry@?$basic_ostream@DU?$char_traits@D@std@@@std@@QEAA@XZ
	DD	07e383040H
	DD	imagerel __std_terminate
	DB	02eH
	DD	imagerel __std_terminate
xdata	ENDS
;	COMDAT xdata
xdata	SEGMENT
$cppxdata$??$?6U?$char_traits@D@std@@@std@@YAAEAV?$basic_ostream@DU?$char_traits@D@std@@@0@AEAV10@PEBD@Z DB 038H
	DD	imagerel $stateUnwindMap$??$?6U?$char_traits@D@std@@@std@@YAAEAV?$basic_ostream@DU?$char_traits@D@std@@@0@AEAV10@PEBD@Z
	DD	imagerel $tryMap$??$?6U?$char_traits@D@std@@@std@@YAAEAV?$basic_ostream@DU?$char_traits@D@std@@@0@AEAV10@PEBD@Z
	DD	imagerel $ip2state$??$?6U?$char_traits@D@std@@@std@@YAAEAV?$basic_ostream@DU?$char_traits@D@std@@@0@AEAV10@PEBD@Z
xdata	ENDS
;	COMDAT xdata
xdata	SEGMENT
$unwind$??$?6U?$char_traits@D@std@@@std@@YAAEAV?$basic_ostream@DU?$char_traits@D@std@@@0@AEAV10@PEBD@Z DQ 0000d341600081619r ; 1.83617e-308
	DQ	0c00ee010f0125216r		; -3.85941
	DD	0600b700cH
	DD	imagerel __CxxFrameHandler4
	DD	imagerel $cppxdata$??$?6U?$char_traits@D@std@@@std@@YAAEAV?$basic_ostream@DU?$char_traits@D@std@@@0@AEAV10@PEBD@Z
xdata	ENDS
;	COMDAT xdata
xdata	SEGMENT
$chain$6$??$_Emplace_reallocate@UPoint@@@?$vector@UPoint@@V?$allocator@UPoint@@@std@@@std@@QEAAPEAUPoint@@QEAU2@$$QEAU2@@Z DQ 00004640000060021r ; 6.10592e-309
	DQ	0000c3400000d5400r		; 1.69705e-308
	DD	imagerel $LN94@Emplace_re
	DD	imagerel $LN94@Emplace_re+71
	DD	imagerel $unwind$??$_Emplace_reallocate@UPoint@@@?$vector@UPoint@@V?$allocator@UPoint@@@std@@@std@@QEAAPEAUPoint@@QEAU2@$$QEAU2@@Z
xdata	ENDS
;	COMDAT xdata
xdata	SEGMENT
$chain$5$??$_Emplace_reallocate@UPoint@@@?$vector@UPoint@@V?$allocator@UPoint@@@std@@@std@@QEAAPEAUPoint@@QEAU2@$$QEAU2@@Z DD 021H
	DD	imagerel $LN94@Emplace_re
	DD	imagerel $LN94@Emplace_re+71
	DD	imagerel $unwind$??$_Emplace_reallocate@UPoint@@@?$vector@UPoint@@V?$allocator@UPoint@@@std@@@std@@QEAAPEAUPoint@@QEAU2@$$QEAU2@@Z
xdata	ENDS
;	COMDAT xdata
xdata	SEGMENT
$chain$4$??$_Emplace_reallocate@UPoint@@@?$vector@UPoint@@V?$allocator@UPoint@@@std@@@std@@QEAAPEAUPoint@@QEAU2@$$QEAU2@@Z DQ 00004640000060021r ; 6.10592e-309
	DQ	0000c3400000d5400r		; 1.69705e-308
	DD	imagerel $LN94@Emplace_re
	DD	imagerel $LN94@Emplace_re+71
	DD	imagerel $unwind$??$_Emplace_reallocate@UPoint@@@?$vector@UPoint@@V?$allocator@UPoint@@@std@@@std@@QEAAPEAUPoint@@QEAU2@$$QEAU2@@Z
xdata	ENDS
;	COMDAT xdata
xdata	SEGMENT
$chain$2$??$_Emplace_reallocate@UPoint@@@?$vector@UPoint@@V?$allocator@UPoint@@@std@@@std@@QEAAPEAUPoint@@QEAU2@$$QEAU2@@Z DQ 00004643800063821r ; 6.1071e-309
	DQ	0000d5405000c3433r		; 1.85351e-308
	DD	imagerel $LN94@Emplace_re
	DD	imagerel $LN94@Emplace_re+71
	DD	imagerel $unwind$??$_Emplace_reallocate@UPoint@@@?$vector@UPoint@@V?$allocator@UPoint@@@std@@@std@@QEAAPEAUPoint@@QEAU2@$$QEAU2@@Z
xdata	ENDS
;	COMDAT xdata
xdata	SEGMENT
$unwind$??$_Emplace_reallocate@UPoint@@@?$vector@UPoint@@V?$allocator@UPoint@@@std@@@std@@QEAAPEAUPoint@@QEAU2@$$QEAU2@@Z DQ 0f008420c00050c01r ; -4.70762e+231
	DQ	000007002c004e006r		; 6.08477e-310
xdata	ENDS
;	COMDAT xdata
xdata	SEGMENT
$unwind$??$_Allocate@$0BA@U_Default_allocate_traits@std@@$0A@@std@@YAPEAX_K@Z DQ 00000420400010401r ; 3.58617e-310
xdata	ENDS
;	COMDAT xdata
xdata	SEGMENT
$unwind$??$_Deallocate@$0BA@$0A@@std@@YAXPEAX_K@Z DQ 00000420400010401r ; 3.58617e-310
xdata	ENDS
;	COMDAT xdata
xdata	SEGMENT
$unwind$??$_Get_size_of_n@$07@std@@YA_K_K@Z DQ 00000420400010401r ; 3.58617e-310
xdata	ENDS
;	COMDAT xdata
xdata	SEGMENT
$unwind$??$_Uninitialized_move@PEAUPoint@@V?$allocator@UPoint@@@std@@@std@@YAPEAUPoint@@QEAU1@0PEAU1@AEAV?$allocator@UPoint@@@0@@Z DQ 00009340a00040a01r ; 1.27987e-308
	DD	07006320aH
xdata	ENDS
;	COMDAT xdata
xdata	SEGMENT
$unwind$?_Umove@?$vector@UPoint@@V?$allocator@UPoint@@@std@@@std@@AEAAPEAUPoint@@PEAU3@00@Z DQ 00006340a00040a01r ; 8.62672e-309
	DD	07006320aH
xdata	ENDS
;	COMDAT xdata
xdata	SEGMENT
$unwind$??$_Allocate_manually_vector_aligned@U_Default_allocate_traits@std@@@std@@YAPEAX_K@Z DQ 00000420400010401r ; 3.58617e-310
xdata	ENDS
;	COMDAT xdata
xdata	SEGMENT
$unwind$??$_Copy_memmove@PEAUPoint@@PEAU1@@std@@YAPEAUPoint@@PEAU1@00@Z DQ 00006340a00040a01r ; 8.62672e-309
	DD	07006320aH
xdata	ENDS
CRT$XCU	ENDS
CRT$XCU	ENDS
CRT$XCU	ENDS
CRT$XCU	ENDS
CRT$XCU	ENDS
CRT$XCU	ENDS
END
