; Listing generated by Microsoft (R) Optimizing Compiler Version 19.26.28806.0 

include listing.inc

INCLUDELIB OLDNAMES

PUBLIC	??_R3?$basic_istream@DU?$char_traits@D@std@@@std@@8 ; std::basic_istream<char,std::char_traits<char> >::`RTTI Class Hierarchy Descriptor'
PUBLIC	??_R3?$basic_iostream@DU?$char_traits@D@std@@@std@@8 ; std::basic_iostream<char,std::char_traits<char> >::`RTTI Class Hierarchy Descriptor'
PUBLIC	??_R0?AV?$basic_stringstream@DU?$char_traits@D@std@@V?$allocator@D@2@@std@@@8 ; std::basic_stringstream<char,std::char_traits<char>,std::allocator<char> > `RTTI Type Descriptor'
PUBLIC	??_R0?AV?$basic_filebuf@DU?$char_traits@D@std@@@std@@@8 ; std::basic_filebuf<char,std::char_traits<char> > `RTTI Type Descriptor'
PUBLIC	??_R4?$basic_ofstream@DU?$char_traits@D@std@@@std@@6B@ ; std::basic_ofstream<char,std::char_traits<char> >::`RTTI Complete Object Locator'
PUBLIC	??_R3?$basic_ofstream@DU?$char_traits@D@std@@@std@@8 ; std::basic_ofstream<char,std::char_traits<char> >::`RTTI Class Hierarchy Descriptor'
PUBLIC	??_R1A@?0A@EA@?$basic_istream@DU?$char_traits@D@std@@@std@@8 ; std::basic_istream<char,std::char_traits<char> >::`RTTI Base Class Descriptor at (0,-1,0,64)'
PUBLIC	??_R0?AV?$basic_ifstream@DU?$char_traits@D@std@@@std@@@8 ; std::basic_ifstream<char,std::char_traits<char> > `RTTI Type Descriptor'
PUBLIC	??_R1A@?0A@EA@bad_cast@std@@8			; std::bad_cast::`RTTI Base Class Descriptor at (0,-1,0,64)'
PUBLIC	??_R3?$basic_ifstream@DU?$char_traits@D@std@@@std@@8 ; std::basic_ifstream<char,std::char_traits<char> >::`RTTI Class Hierarchy Descriptor'
PUBLIC	??_R0?AV?$basic_stringbuf@DU?$char_traits@D@std@@V?$allocator@D@2@@std@@@8 ; std::basic_stringbuf<char,std::char_traits<char>,std::allocator<char> > `RTTI Type Descriptor'
PUBLIC	??_R0?AVios_base@std@@@8			; std::ios_base `RTTI Type Descriptor'
PUBLIC	??_R2?$basic_stringbuf@DU?$char_traits@D@std@@V?$allocator@D@2@@std@@8 ; std::basic_stringbuf<char,std::char_traits<char>,std::allocator<char> >::`RTTI Base Class Array'
PUBLIC	??_R1A@?0A@EA@?$basic_ifstream@DU?$char_traits@D@std@@@std@@8 ; std::basic_ifstream<char,std::char_traits<char> >::`RTTI Base Class Descriptor at (0,-1,0,64)'
PUBLIC	??_R0?AV?$basic_iostream@DU?$char_traits@D@std@@@std@@@8 ; std::basic_iostream<char,std::char_traits<char> > `RTTI Type Descriptor'
PUBLIC	??_R17A@3EA@?$_Iosb@H@std@@8			; std::_Iosb<int>::`RTTI Base Class Descriptor at (8,0,4,64)'
PUBLIC	??_R1A@?0A@EA@?$basic_stringstream@DU?$char_traits@D@std@@V?$allocator@D@2@@std@@8 ; std::basic_stringstream<char,std::char_traits<char>,std::allocator<char> >::`RTTI Base Class Descriptor at (0,-1,0,64)'
PUBLIC	??_R2?$basic_ofstream@DU?$char_traits@D@std@@@std@@8 ; std::basic_ofstream<char,std::char_traits<char> >::`RTTI Base Class Array'
PUBLIC	??_R1A@?0A@EA@?$basic_streambuf@DU?$char_traits@D@std@@@std@@8 ; std::basic_streambuf<char,std::char_traits<char> >::`RTTI Base Class Descriptor at (0,-1,0,64)'
PUBLIC	??_7?$basic_filebuf@DU?$char_traits@D@std@@@std@@6B@ ; std::basic_filebuf<char,std::char_traits<char> >::`vftable'
PUBLIC	??_8?$basic_stringstream@DU?$char_traits@D@std@@V?$allocator@D@2@@std@@7B?$basic_ostream@DU?$char_traits@D@std@@@1@@ ; std::basic_stringstream<char,std::char_traits<char>,std::allocator<char> >::`vbtable'
PUBLIC	??_R2?$basic_istream@DU?$char_traits@D@std@@@std@@8 ; std::basic_istream<char,std::char_traits<char> >::`RTTI Base Class Array'
PUBLIC	??_R0?AV?$_Iosb@H@std@@@8			; std::_Iosb<int> `RTTI Type Descriptor'
PUBLIC	??_7?$basic_ofstream@DU?$char_traits@D@std@@@std@@6B@ ; std::basic_ofstream<char,std::char_traits<char> >::`vftable'
PUBLIC	_CTA2?AVbad_cast@std@@
PUBLIC	??_R0?AV?$basic_ofstream@DU?$char_traits@D@std@@@std@@@8 ; std::basic_ofstream<char,std::char_traits<char> > `RTTI Type Descriptor'
PUBLIC	??_R0?AV?$basic_streambuf@DU?$char_traits@D@std@@@std@@@8 ; std::basic_streambuf<char,std::char_traits<char> > `RTTI Type Descriptor'
PUBLIC	??_R3?$basic_stringbuf@DU?$char_traits@D@std@@V?$allocator@D@2@@std@@8 ; std::basic_stringbuf<char,std::char_traits<char>,std::allocator<char> >::`RTTI Class Hierarchy Descriptor'
PUBLIC	??_R2bad_cast@std@@8				; std::bad_cast::`RTTI Base Class Array'
PUBLIC	??_R2?$basic_ostream@DU?$char_traits@D@std@@@std@@8 ; std::basic_ostream<char,std::char_traits<char> >::`RTTI Base Class Array'
PUBLIC	??_7bad_cast@std@@6B@				; std::bad_cast::`vftable'
PUBLIC	??_R3?$basic_ios@DU?$char_traits@D@std@@@std@@8	; std::basic_ios<char,std::char_traits<char> >::`RTTI Class Hierarchy Descriptor'
PUBLIC	?_Stinit@?1??_Init@?$basic_filebuf@DU?$char_traits@D@std@@@std@@IEAAXPEAU_iobuf@@W4_Initfl@23@@Z@4U_Mbstatet@@A ; `std::basic_filebuf<char,std::char_traits<char> >::_Init'::`2'::_Stinit
PUBLIC	??_8?$basic_ofstream@DU?$char_traits@D@std@@@std@@7B@ ; std::basic_ofstream<char,std::char_traits<char> >::`vbtable'
PUBLIC	??_R0?AVbad_cast@std@@@8			; std::bad_cast `RTTI Type Descriptor'
PUBLIC	_TI2?AVbad_cast@std@@
PUBLIC	??_7?$basic_stringbuf@DU?$char_traits@D@std@@V?$allocator@D@2@@std@@6B@ ; std::basic_stringbuf<char,std::char_traits<char>,std::allocator<char> >::`vftable'
PUBLIC	??_R1BA@?0A@EA@?$basic_ostream@DU?$char_traits@D@std@@@std@@8 ; std::basic_ostream<char,std::char_traits<char> >::`RTTI Base Class Descriptor at (16,-1,0,64)'
PUBLIC	??_R0?AV?$basic_istream@DU?$char_traits@D@std@@@std@@@8 ; std::basic_istream<char,std::char_traits<char> > `RTTI Type Descriptor'
PUBLIC	??_R4?$basic_ifstream@DU?$char_traits@D@std@@@std@@6B@ ; std::basic_ifstream<char,std::char_traits<char> >::`RTTI Complete Object Locator'
PUBLIC	??_R1A@?0A@EA@ios_base@std@@8			; std::ios_base::`RTTI Base Class Descriptor at (0,-1,0,64)'
PUBLIC	??_R1A@?0A@EA@?$basic_ostream@DU?$char_traits@D@std@@@std@@8 ; std::basic_ostream<char,std::char_traits<char> >::`RTTI Base Class Descriptor at (0,-1,0,64)'
PUBLIC	??_R4?$basic_filebuf@DU?$char_traits@D@std@@@std@@6B@ ; std::basic_filebuf<char,std::char_traits<char> >::`RTTI Complete Object Locator'
PUBLIC	??_R0?AV?$basic_ios@DU?$char_traits@D@std@@@std@@@8 ; std::basic_ios<char,std::char_traits<char> > `RTTI Type Descriptor'
PUBLIC	??_7?$basic_stringstream@DU?$char_traits@D@std@@V?$allocator@D@2@@std@@6B@ ; std::basic_stringstream<char,std::char_traits<char>,std::allocator<char> >::`vftable'
PUBLIC	_CTA2?AVbad_alloc@std@@
PUBLIC	??_R2?$basic_streambuf@DU?$char_traits@D@std@@@std@@8 ; std::basic_streambuf<char,std::char_traits<char> >::`RTTI Base Class Array'
PUBLIC	??_R1A@?0A@EA@?$_Iosb@H@std@@8			; std::_Iosb<int>::`RTTI Base Class Descriptor at (0,-1,0,64)'
PUBLIC	??_8?$basic_ifstream@DU?$char_traits@D@std@@@std@@7B@ ; std::basic_ifstream<char,std::char_traits<char> >::`vbtable'
PUBLIC	??_R1A@?0A@EA@?$basic_stringbuf@DU?$char_traits@D@std@@V?$allocator@D@2@@std@@8 ; std::basic_stringbuf<char,std::char_traits<char>,std::allocator<char> >::`RTTI Base Class Descriptor at (0,-1,0,64)'
PUBLIC	?_Psave@?$_Facetptr@V?$codecvt@DDU_Mbstatet@@@std@@@std@@2PEBVfacet@locale@2@EB ; std::_Facetptr<std::codecvt<char,char,_Mbstatet> >::_Psave
PUBLIC	??_R2?$basic_iostream@DU?$char_traits@D@std@@@std@@8 ; std::basic_iostream<char,std::char_traits<char> >::`RTTI Base Class Array'
PUBLIC	??_R3bad_cast@std@@8				; std::bad_cast::`RTTI Class Hierarchy Descriptor'
PUBLIC	??_R2?$basic_stringstream@DU?$char_traits@D@std@@V?$allocator@D@2@@std@@8 ; std::basic_stringstream<char,std::char_traits<char>,std::allocator<char> >::`RTTI Base Class Array'
PUBLIC	??_R4bad_cast@std@@6B@				; std::bad_cast::`RTTI Complete Object Locator'
PUBLIC	_CT??_R0?AVbad_cast@std@@@8??0bad_cast@std@@QEAA@AEBV01@@Z24
PUBLIC	??_R4?$basic_stringbuf@DU?$char_traits@D@std@@V?$allocator@D@2@@std@@6B@ ; std::basic_stringbuf<char,std::char_traits<char>,std::allocator<char> >::`RTTI Complete Object Locator'
PUBLIC	??_R4?$basic_stringstream@DU?$char_traits@D@std@@V?$allocator@D@2@@std@@6B@ ; std::basic_stringstream<char,std::char_traits<char>,std::allocator<char> >::`RTTI Complete Object Locator'
PUBLIC	??_R1A@?0A@EA@?$basic_ofstream@DU?$char_traits@D@std@@@std@@8 ; std::basic_ofstream<char,std::char_traits<char> >::`RTTI Base Class Descriptor at (0,-1,0,64)'
PUBLIC	??_R1A@?0A@EA@?$basic_filebuf@DU?$char_traits@D@std@@@std@@8 ; std::basic_filebuf<char,std::char_traits<char> >::`RTTI Base Class Descriptor at (0,-1,0,64)'
PUBLIC	??_R1A@A@3FA@?$basic_ios@DU?$char_traits@D@std@@@std@@8 ; std::basic_ios<char,std::char_traits<char> >::`RTTI Base Class Descriptor at (0,0,4,80)'
PUBLIC	??_R3?$basic_filebuf@DU?$char_traits@D@std@@@std@@8 ; std::basic_filebuf<char,std::char_traits<char> >::`RTTI Class Hierarchy Descriptor'
PUBLIC	??_R0?AV?$basic_ostream@DU?$char_traits@D@std@@@std@@@8 ; std::basic_ostream<char,std::char_traits<char> > `RTTI Type Descriptor'
PUBLIC	??_R2ios_base@std@@8				; std::ios_base::`RTTI Base Class Array'
PUBLIC	??_R3?$basic_ostream@DU?$char_traits@D@std@@@std@@8 ; std::basic_ostream<char,std::char_traits<char> >::`RTTI Class Hierarchy Descriptor'
PUBLIC	??_R1A@?0A@EA@?$basic_iostream@DU?$char_traits@D@std@@@std@@8 ; std::basic_iostream<char,std::char_traits<char> >::`RTTI Base Class Descriptor at (0,-1,0,64)'
PUBLIC	??_8?$basic_stringstream@DU?$char_traits@D@std@@V?$allocator@D@2@@std@@7B?$basic_istream@DU?$char_traits@D@std@@@1@@ ; std::basic_stringstream<char,std::char_traits<char>,std::allocator<char> >::`vbtable'
PUBLIC	??_R3ios_base@std@@8				; std::ios_base::`RTTI Class Hierarchy Descriptor'
PUBLIC	??_R2?$basic_filebuf@DU?$char_traits@D@std@@@std@@8 ; std::basic_filebuf<char,std::char_traits<char> >::`RTTI Base Class Array'
PUBLIC	??_R3?$basic_streambuf@DU?$char_traits@D@std@@@std@@8 ; std::basic_streambuf<char,std::char_traits<char> >::`RTTI Class Hierarchy Descriptor'
PUBLIC	??_R3?$basic_stringstream@DU?$char_traits@D@std@@V?$allocator@D@2@@std@@8 ; std::basic_stringstream<char,std::char_traits<char>,std::allocator<char> >::`RTTI Class Hierarchy Descriptor'
PUBLIC	??_7?$basic_ifstream@DU?$char_traits@D@std@@@std@@6B@ ; std::basic_ifstream<char,std::char_traits<char> >::`vftable'
PUBLIC	??_R2?$_Iosb@H@std@@8				; std::_Iosb<int>::`RTTI Base Class Array'
PUBLIC	??_R1A@A@3EA@ios_base@std@@8			; std::ios_base::`RTTI Base Class Descriptor at (0,0,4,64)'
PUBLIC	??_R1A@?0A@EA@?$basic_ios@DU?$char_traits@D@std@@@std@@8 ; std::basic_ios<char,std::char_traits<char> >::`RTTI Base Class Descriptor at (0,-1,0,64)'
PUBLIC	??_R2?$basic_ifstream@DU?$char_traits@D@std@@@std@@8 ; std::basic_ifstream<char,std::char_traits<char> >::`RTTI Base Class Array'
PUBLIC	??_R3?$_Iosb@H@std@@8				; std::_Iosb<int>::`RTTI Class Hierarchy Descriptor'
PUBLIC	??_R17?0A@EA@?$_Iosb@H@std@@8			; std::_Iosb<int>::`RTTI Base Class Descriptor at (8,-1,0,64)'
PUBLIC	_TI2?AVbad_alloc@std@@
PUBLIC	??_R2?$basic_ios@DU?$char_traits@D@std@@@std@@8	; std::basic_ios<char,std::char_traits<char> >::`RTTI Base Class Array'
PUBLIC	??_C@_0P@GHFPNOJB@bad?5allocation@		; `string'
PUBLIC	??_C@_0BA@JFNIOLAK@string?5too?5long@		; `string'
PUBLIC	??_C@_00CNPNBAHC@@				; `string'
PUBLIC	??_C@_08EPJLHIJG@bad?5cast@			; `string'
PUBLIC	??_C@_0BI@LIIEICBE@C?3?1Users?1Anastazja?1abcd@	; `string'
PUBLIC	??_C@_08LDBNCAAL@startpos@			; `string'
PUBLIC	??_C@_0L@JPOLAILE@bestmove?3?5@			; `string'
PUBLIC	??_C@_07MIGMKNGI@score?3?5@			; `string'
PUBLIC	??_C@_02KPEDIMCA@go@				; `string'
PUBLIC	??_C@_08OAGMDKAF@position@			; `string'
PUBLIC	??_C@_05IJDJACGD@print@				; `string'
PUBLIC	??_C@_08HBLFHMBF@generate@			; `string'
PUBLIC	??_C@_08OFKCLLJE@selfplay@			; `string'
PUBLIC	??_C@_04BMFHCNCO@scan@				; `string'
PUBLIC	??_C@_04KCCPLAND@tree@				; `string'
PUBLIC	??_C@_04KGAGIKCD@eval@				; `string'
PUBLIC	??_C@_04HCCHHEEF@rate@				; `string'
PUBLIC	??_C@_09JPGCJHKH@calculate@			; `string'
PUBLIC	??_C@_0FI@MPCCAGOK@?5is?5not?5recognized?5as?5an?5intern@ ; `string'
PUBLIC	??_C@_04EHKALCEN@abcd@				; `string'
PUBLIC	??_C@_0L@NLDHCBMA@generated?6@			; `string'
PUBLIC	??_C@_07CPBAGGBK@?5games?6@			; `string'
PUBLIC	??_C@_01KMDKNFGN@?1@				; `string'
PUBLIC	??_C@_09BJFFGMHC@finished?5@			; `string'
PUBLIC	??_C@_0BC@OEKGJMBN@?5selfplay?5games?$CB?6@	; `string'
PUBLIC	??_C@_09CICGKMEL@games?4bin@			; `string'
PUBLIC	??_C@_07EGCJMAPC@W?1D?1L?3?5@			; `string'
PUBLIC	??_C@_01JLIPDDHJ@?3@				; `string'
PUBLIC	??_C@_0BA@PFOILOH@engine?5started?6@		; `string'
PUBLIC	??_C@_0BI@CFPLBAOH@invalid?5string?5position@	; `string'
EXTRN	__imp_??0?$basic_iostream@DU?$char_traits@D@std@@@std@@QEAA@PEAV?$basic_streambuf@DU?$char_traits@D@std@@@1@@Z:PROC
EXTRN	__imp_??0?$basic_istream@DU?$char_traits@D@std@@@std@@QEAA@PEAV?$basic_streambuf@DU?$char_traits@D@std@@@1@_N@Z:PROC
EXTRN	__imp_??0?$basic_ostream@DU?$char_traits@D@std@@@std@@QEAA@PEAV?$basic_streambuf@DU?$char_traits@D@std@@@1@_N@Z:PROC
EXTRN	__imp_??0?$basic_ios@DU?$char_traits@D@std@@@std@@IEAA@XZ:PROC
EXTRN	__imp_?_Pnavail@?$basic_streambuf@DU?$char_traits@D@std@@@std@@IEBA_JXZ:PROC
EXTRN	__imp_?_Pninc@?$basic_streambuf@DU?$char_traits@D@std@@@std@@IEAAPEADXZ:PROC
EXTRN	__imp_?setp@?$basic_streambuf@DU?$char_traits@D@std@@@std@@IEAAXPEAD00@Z:PROC
EXTRN	__imp_?pbump@?$basic_streambuf@DU?$char_traits@D@std@@@std@@IEAAXH@Z:PROC
EXTRN	__imp_?_Gnavail@?$basic_streambuf@DU?$char_traits@D@std@@@std@@IEBA_JXZ:PROC
EXTRN	__imp_?_Gninc@?$basic_streambuf@DU?$char_traits@D@std@@@std@@IEAAPEADXZ:PROC
EXTRN	__imp_?_Gndec@?$basic_streambuf@DU?$char_traits@D@std@@@std@@IEAAPEADXZ:PROC
EXTRN	__imp_?epptr@?$basic_streambuf@DU?$char_traits@D@std@@@std@@IEBAPEADXZ:PROC
EXTRN	__imp_?setg@?$basic_streambuf@DU?$char_traits@D@std@@@std@@IEAAXPEAD00@Z:PROC
EXTRN	__imp_?gbump@?$basic_streambuf@DU?$char_traits@D@std@@@std@@IEAAXH@Z:PROC
EXTRN	__imp_?egptr@?$basic_streambuf@DU?$char_traits@D@std@@@std@@IEBAPEADXZ:PROC
EXTRN	__imp_?pptr@?$basic_streambuf@DU?$char_traits@D@std@@@std@@IEBAPEADXZ:PROC
EXTRN	__imp_?gptr@?$basic_streambuf@DU?$char_traits@D@std@@@std@@IEBAPEADXZ:PROC
EXTRN	__imp_?eback@?$basic_streambuf@DU?$char_traits@D@std@@@std@@IEBAPEADXZ:PROC
EXTRN	__imp_?out@?$codecvt@DDU_Mbstatet@@@std@@QEBAHAEAU_Mbstatet@@PEBD1AEAPEBDPEAD3AEAPEAD@Z:PROC
EXTRN	__imp_?in@?$codecvt@DDU_Mbstatet@@@std@@QEBAHAEAU_Mbstatet@@PEBD1AEAPEBDPEAD3AEAPEAD@Z:PROC
EXTRN	__imp_?_Ipfx@?$basic_istream@DU?$char_traits@D@std@@@std@@QEAA_N_N@Z:PROC
EXTRN	__imp_?_Init@?$basic_streambuf@DU?$char_traits@D@std@@@std@@IEAAXPEAPEAD0PEAH001@Z:PROC
EXTRN	__imp_?_Init@?$basic_streambuf@DU?$char_traits@D@std@@@std@@IEAAXXZ:PROC
EXTRN	__imp_?setp@?$basic_streambuf@DU?$char_traits@D@std@@@std@@IEAAXPEAD0@Z:PROC
EXTRN	__imp_?getloc@?$basic_streambuf@DU?$char_traits@D@std@@@std@@QEBA?AVlocale@2@XZ:PROC
EXTRN	__imp_??0?$basic_streambuf@DU?$char_traits@D@std@@@std@@IEAA@XZ:PROC
EXTRN	__imp_?unshift@?$codecvt@DDU_Mbstatet@@@std@@QEBAHAEAU_Mbstatet@@PEAD1AEAPEAD@Z:PROC
EXTRN	__imp_?widen@?$basic_ios@DU?$char_traits@D@std@@@std@@QEBADD@Z:PROC
EXTRN	__imp_?snextc@?$basic_streambuf@DU?$char_traits@D@std@@@std@@QEAAHXZ:PROC
EXTRN	__imp_?sgetc@?$basic_streambuf@DU?$char_traits@D@std@@@std@@QEAAHXZ:PROC
EXTRN	__imp_?sbumpc@?$basic_streambuf@DU?$char_traits@D@std@@@std@@QEAAHXZ:PROC
EXTRN	__imp_?_Getcat@?$codecvt@DDU_Mbstatet@@@std@@SA_KPEAPEBVfacet@locale@2@PEBV42@@Z:PROC
EXTRN	__imp_?fill@?$basic_ios@DU?$char_traits@D@std@@@std@@QEAADD@Z:PROC
EXTRN	__imp_?copyfmt@?$basic_ios@DU?$char_traits@D@std@@@std@@QEAAAEAV12@AEBV12@@Z:PROC
EXTRN	__imp_?pbase@?$basic_streambuf@DU?$char_traits@D@std@@@std@@IEBAPEADXZ:PROC
EXTRN	__imp_malloc:PROC
EXTRN	__imp__get_stream_buffer_pointers:PROC
EXTRN	__imp__fseeki64:PROC
EXTRN	__imp_fread:PROC
EXTRN	__imp__Query_perf_counter:PROC
EXTRN	__imp_fsetpos:PROC
EXTRN	__imp_ungetc:PROC
EXTRN	__imp_free:PROC
EXTRN	__imp_setvbuf:PROC
EXTRN	__imp_fgetpos:PROC
EXTRN	__imp_fwrite:PROC
EXTRN	__imp__lock_file:PROC
EXTRN	__imp__unlock_file:PROC
EXTRN	__imp_system:PROC
EXTRN	__imp_fgetc:PROC
EXTRN	atexit:PROC
EXTRN	__imp_log2:PROC
EXTRN	__imp_?_Random_device@std@@YAIXZ:PROC
EXTRN	__imp_?_Fiopen@std@@YAPEAU_iobuf@@PEBDHH@Z:PROC
EXTRN	?_Facet_Register@std@@YAXPEAV_Facet_base@1@@Z:PROC ; std::_Facet_Register
EXTRN	__imp_?id@?$codecvt@DDU_Mbstatet@@@std@@2V0locale@2@A:QWORD
EXTRN	__imp_?_Xout_of_range@std@@YAXPEBD@Z:PROC
EXTRN	__imp_?_Xbad_alloc@std@@YAXXZ:PROC
EXTRN	__imp_?cin@std@@3V?$basic_istream@DU?$char_traits@D@std@@@1@A:BYTE
EXTRN	__imp_?_Getgloballocale@locale@std@@CAPEAV_Locimp@12@XZ:PROC
EXTRN	__imp_??0_Lockit@std@@QEAA@H@Z:PROC
EXTRN	__imp_??1_Lockit@std@@QEAA@XZ:PROC
EXTRN	__imp__Query_perf_frequency:PROC
EXTRN	__imp_fclose:PROC
EXTRN	__imp_fflush:PROC
EXTRN	__imp_fputc:PROC
EXTRN	??_V@YAXPEAX@Z:PROC				; operator delete[]
EXTRN	__imp_exit:PROC
EXTRN	__imp_??Bid@locale@std@@QEAA_KXZ:PROC
EXTRN	__imp_?always_noconv@codecvt_base@std@@QEBA_NXZ:PROC
EXTRN	__imp_?precision@ios_base@std@@QEAA_J_J@Z:PROC
EXTRN	__imp_??1?$basic_iostream@DU?$char_traits@D@std@@@std@@UEAA@XZ:PROC
EXTRN	__imp_?read@?$basic_istream@DU?$char_traits@D@std@@@std@@QEAAAEAV12@PEAD_J@Z:PROC
EXTRN	__imp_??5?$basic_istream@DU?$char_traits@D@std@@@std@@QEAAAEAV01@AEAH@Z:PROC
EXTRN	__imp_??1?$basic_istream@DU?$char_traits@D@std@@@std@@UEAA@XZ:PROC
EXTRN	__imp_?write@?$basic_ostream@DU?$char_traits@D@std@@@std@@QEAAAEAV12@PEBD_J@Z:PROC
EXTRN	__imp_??6?$basic_ostream@DU?$char_traits@D@std@@@std@@QEAAAEAV01@N@Z:PROC
EXTRN	__imp_??6?$basic_ostream@DU?$char_traits@D@std@@@std@@QEAAAEAV01@M@Z:PROC
EXTRN	__imp_??6?$basic_ostream@DU?$char_traits@D@std@@@std@@QEAAAEAV01@H@Z:PROC
EXTRN	__imp_??1?$basic_ostream@DU?$char_traits@D@std@@@std@@UEAA@XZ:PROC
EXTRN	__imp_??1?$basic_ios@DU?$char_traits@D@std@@@std@@UEAA@XZ:PROC
EXTRN	?imbue@?$basic_streambuf@DU?$char_traits@D@std@@@std@@MEAAXAEBVlocale@2@@Z:PROC ; std::basic_streambuf<char,std::char_traits<char> >::imbue
EXTRN	__imp_?imbue@?$basic_streambuf@DU?$char_traits@D@std@@@std@@MEAAXAEBVlocale@2@@Z:PROC
EXTRN	?sync@?$basic_streambuf@DU?$char_traits@D@std@@@std@@MEAAHXZ:PROC ; std::basic_streambuf<char,std::char_traits<char> >::sync
EXTRN	__imp_?sync@?$basic_streambuf@DU?$char_traits@D@std@@@std@@MEAAHXZ:PROC
EXTRN	?setbuf@?$basic_streambuf@DU?$char_traits@D@std@@@std@@MEAAPEAV12@PEAD_J@Z:PROC ; std::basic_streambuf<char,std::char_traits<char> >::setbuf
EXTRN	__imp_?setbuf@?$basic_streambuf@DU?$char_traits@D@std@@@std@@MEAAPEAV12@PEAD_J@Z:PROC
EXTRN	?xsputn@?$basic_streambuf@DU?$char_traits@D@std@@@std@@MEAA_JPEBD_J@Z:PROC ; std::basic_streambuf<char,std::char_traits<char> >::xsputn
EXTRN	__imp_?xsputn@?$basic_streambuf@DU?$char_traits@D@std@@@std@@MEAA_JPEBD_J@Z:PROC
EXTRN	?xsgetn@?$basic_streambuf@DU?$char_traits@D@std@@@std@@MEAA_JPEAD_J@Z:PROC ; std::basic_streambuf<char,std::char_traits<char> >::xsgetn
EXTRN	__imp_?xsgetn@?$basic_streambuf@DU?$char_traits@D@std@@@std@@MEAA_JPEAD_J@Z:PROC
EXTRN	?uflow@?$basic_streambuf@DU?$char_traits@D@std@@@std@@MEAAHXZ:PROC ; std::basic_streambuf<char,std::char_traits<char> >::uflow
EXTRN	__imp_?uflow@?$basic_streambuf@DU?$char_traits@D@std@@@std@@MEAAHXZ:PROC
EXTRN	?showmanyc@?$basic_streambuf@DU?$char_traits@D@std@@@std@@MEAA_JXZ:PROC ; std::basic_streambuf<char,std::char_traits<char> >::showmanyc
EXTRN	__imp_?showmanyc@?$basic_streambuf@DU?$char_traits@D@std@@@std@@MEAA_JXZ:PROC
EXTRN	?_Unlock@?$basic_streambuf@DU?$char_traits@D@std@@@std@@UEAAXXZ:PROC ; std::basic_streambuf<char,std::char_traits<char> >::_Unlock
EXTRN	__imp_?_Unlock@?$basic_streambuf@DU?$char_traits@D@std@@@std@@UEAAXXZ:PROC
EXTRN	?_Lock@?$basic_streambuf@DU?$char_traits@D@std@@@std@@UEAAXXZ:PROC ; std::basic_streambuf<char,std::char_traits<char> >::_Lock
EXTRN	__imp_?_Lock@?$basic_streambuf@DU?$char_traits@D@std@@@std@@UEAAXXZ:PROC
EXTRN	__imp_??1?$basic_streambuf@DU?$char_traits@D@std@@@std@@UEAA@XZ:PROC
;	COMDAT ?_Stinit@?1??_Init@?$basic_filebuf@DU?$char_traits@D@std@@@std@@IEAAXPEAU_iobuf@@W4_Initfl@23@@Z@4U_Mbstatet@@A
_BSS	SEGMENT
?_Stinit@?1??_Init@?$basic_filebuf@DU?$char_traits@D@std@@@std@@IEAAXPEAU_iobuf@@W4_Initfl@23@@Z@4U_Mbstatet@@A DQ 01H DUP (?) ; `std::basic_filebuf<char,std::char_traits<char> >::_Init'::`2'::_Stinit
_BSS	ENDS
;	COMDAT ?_Psave@?$_Facetptr@V?$codecvt@DDU_Mbstatet@@@std@@@std@@2PEBVfacet@locale@2@EB
_BSS	SEGMENT
?_Psave@?$_Facetptr@V?$codecvt@DDU_Mbstatet@@@std@@@std@@2PEBVfacet@locale@2@EB DQ 01H DUP (?) ; std::_Facetptr<std::codecvt<char,char,_Mbstatet> >::_Psave
_BSS	ENDS
;	COMDAT ??_C@_0BI@CFPLBAOH@invalid?5string?5position@
CONST	SEGMENT
??_C@_0BI@CFPLBAOH@invalid?5string?5position@ DB 'invalid string position'
	DB	00H						; `string'
CONST	ENDS
;	COMDAT ??_C@_0BA@PFOILOH@engine?5started?6@
CONST	SEGMENT
??_C@_0BA@PFOILOH@engine?5started?6@ DB 'engine started', 0aH, 00H ; `string'
CONST	ENDS
;	COMDAT ??_C@_01JLIPDDHJ@?3@
CONST	SEGMENT
??_C@_01JLIPDDHJ@?3@ DB ':', 00H			; `string'
CONST	ENDS
;	COMDAT ??_C@_07EGCJMAPC@W?1D?1L?3?5@
CONST	SEGMENT
??_C@_07EGCJMAPC@W?1D?1L?3?5@ DB 'W/D/L: ', 00H		; `string'
CONST	ENDS
;	COMDAT ??_C@_09CICGKMEL@games?4bin@
CONST	SEGMENT
??_C@_09CICGKMEL@games?4bin@ DB 'games.bin', 00H	; `string'
CONST	ENDS
;	COMDAT ??_C@_0BC@OEKGJMBN@?5selfplay?5games?$CB?6@
CONST	SEGMENT
??_C@_0BC@OEKGJMBN@?5selfplay?5games?$CB?6@ DB ' selfplay games!', 0aH, 00H ; `string'
CONST	ENDS
;	COMDAT ??_C@_09BJFFGMHC@finished?5@
CONST	SEGMENT
??_C@_09BJFFGMHC@finished?5@ DB 'finished ', 00H	; `string'
CONST	ENDS
;	COMDAT ??_C@_01KMDKNFGN@?1@
CONST	SEGMENT
??_C@_01KMDKNFGN@?1@ DB '/', 00H			; `string'
CONST	ENDS
;	COMDAT ??_C@_07CPBAGGBK@?5games?6@
CONST	SEGMENT
??_C@_07CPBAGGBK@?5games?6@ DB ' games', 0aH, 00H	; `string'
CONST	ENDS
;	COMDAT ??_C@_0L@NLDHCBMA@generated?6@
CONST	SEGMENT
??_C@_0L@NLDHCBMA@generated?6@ DB 'generated', 0aH, 00H	; `string'
CONST	ENDS
;	COMDAT ??_C@_04EHKALCEN@abcd@
CONST	SEGMENT
??_C@_04EHKALCEN@abcd@ DB 'abcd', 00H			; `string'
CONST	ENDS
;	COMDAT ??_C@_0FI@MPCCAGOK@?5is?5not?5recognized?5as?5an?5intern@
CONST	SEGMENT
??_C@_0FI@MPCCAGOK@?5is?5not?5recognized?5as?5an?5intern@ DB ' is not rec'
	DB	'ognized as an internal or external command,', 0aH, 'operable '
	DB	'program or batch file.', 0aH, 00H		; `string'
CONST	ENDS
;	COMDAT ??_C@_09JPGCJHKH@calculate@
CONST	SEGMENT
??_C@_09JPGCJHKH@calculate@ DB 'calculate', 00H		; `string'
CONST	ENDS
;	COMDAT ??_C@_04HCCHHEEF@rate@
CONST	SEGMENT
??_C@_04HCCHHEEF@rate@ DB 'rate', 00H			; `string'
CONST	ENDS
;	COMDAT ??_C@_04KGAGIKCD@eval@
CONST	SEGMENT
??_C@_04KGAGIKCD@eval@ DB 'eval', 00H			; `string'
CONST	ENDS
;	COMDAT ??_C@_04KCCPLAND@tree@
CONST	SEGMENT
??_C@_04KCCPLAND@tree@ DB 'tree', 00H			; `string'
CONST	ENDS
;	COMDAT ??_C@_04BMFHCNCO@scan@
CONST	SEGMENT
??_C@_04BMFHCNCO@scan@ DB 'scan', 00H			; `string'
CONST	ENDS
;	COMDAT ??_C@_08OFKCLLJE@selfplay@
CONST	SEGMENT
??_C@_08OFKCLLJE@selfplay@ DB 'selfplay', 00H		; `string'
CONST	ENDS
;	COMDAT ??_C@_08HBLFHMBF@generate@
CONST	SEGMENT
??_C@_08HBLFHMBF@generate@ DB 'generate', 00H		; `string'
CONST	ENDS
;	COMDAT ??_C@_05IJDJACGD@print@
CONST	SEGMENT
??_C@_05IJDJACGD@print@ DB 'print', 00H			; `string'
CONST	ENDS
;	COMDAT ??_C@_08OAGMDKAF@position@
CONST	SEGMENT
??_C@_08OAGMDKAF@position@ DB 'position', 00H		; `string'
CONST	ENDS
;	COMDAT ??_C@_02KPEDIMCA@go@
CONST	SEGMENT
??_C@_02KPEDIMCA@go@ DB 'go', 00H			; `string'
CONST	ENDS
;	COMDAT ??_C@_07MIGMKNGI@score?3?5@
CONST	SEGMENT
??_C@_07MIGMKNGI@score?3?5@ DB 'score: ', 00H		; `string'
CONST	ENDS
;	COMDAT ??_C@_0L@JPOLAILE@bestmove?3?5@
CONST	SEGMENT
??_C@_0L@JPOLAILE@bestmove?3?5@ DB 'bestmove: ', 00H	; `string'
CONST	ENDS
;	COMDAT ??_C@_08LDBNCAAL@startpos@
CONST	SEGMENT
??_C@_08LDBNCAAL@startpos@ DB 'startpos', 00H		; `string'
CONST	ENDS
;	COMDAT ??_C@_0BI@LIIEICBE@C?3?1Users?1Anastazja?1abcd@
CONST	SEGMENT
??_C@_0BI@LIIEICBE@C?3?1Users?1Anastazja?1abcd@ DB 'C:/Users/Anastazja/ab'
	DB	'cd', 00H					; `string'
CONST	ENDS
;	COMDAT ??_C@_08EPJLHIJG@bad?5cast@
CONST	SEGMENT
??_C@_08EPJLHIJG@bad?5cast@ DB 'bad cast', 00H		; `string'
CONST	ENDS
;	COMDAT ??_C@_00CNPNBAHC@@
CONST	SEGMENT
??_C@_00CNPNBAHC@@ DB 00H				; `string'
CONST	ENDS
;	COMDAT ??_C@_0BA@JFNIOLAK@string?5too?5long@
CONST	SEGMENT
??_C@_0BA@JFNIOLAK@string?5too?5long@ DB 'string too long', 00H ; `string'
CONST	ENDS
;	COMDAT ??_C@_0P@GHFPNOJB@bad?5allocation@
CONST	SEGMENT
??_C@_0P@GHFPNOJB@bad?5allocation@ DB 'bad allocation', 00H ; `string'
CONST	ENDS
;	COMDAT ??_R2?$basic_ios@DU?$char_traits@D@std@@@std@@8
rdata$r	SEGMENT
??_R2?$basic_ios@DU?$char_traits@D@std@@@std@@8 DD imagerel ??_R1A@?0A@EA@?$basic_ios@DU?$char_traits@D@std@@@std@@8 ; std::basic_ios<char,std::char_traits<char> >::`RTTI Base Class Array'
	DD	imagerel ??_R1A@?0A@EA@ios_base@std@@8
	DD	imagerel ??_R17?0A@EA@?$_Iosb@H@std@@8
	ORG $+3
rdata$r	ENDS
;	COMDAT _TI2?AVbad_alloc@std@@
xdata$x	SEGMENT
_TI2?AVbad_alloc@std@@ DD 00H
	DD	imagerel ??1bad_alloc@std@@UEAA@XZ
	DD	00H
	DD	imagerel _CTA2?AVbad_alloc@std@@
xdata$x	ENDS
;	COMDAT ??_R17?0A@EA@?$_Iosb@H@std@@8
rdata$r	SEGMENT
??_R17?0A@EA@?$_Iosb@H@std@@8 DD imagerel ??_R0?AV?$_Iosb@H@std@@@8 ; std::_Iosb<int>::`RTTI Base Class Descriptor at (8,-1,0,64)'
	DD	00H
	DD	08H
	DD	0ffffffffH
	DD	00H
	DD	040H
	DD	imagerel ??_R3?$_Iosb@H@std@@8
rdata$r	ENDS
;	COMDAT ??_R3?$_Iosb@H@std@@8
rdata$r	SEGMENT
??_R3?$_Iosb@H@std@@8 DD 00H				; std::_Iosb<int>::`RTTI Class Hierarchy Descriptor'
	DD	00H
	DD	01H
	DD	imagerel ??_R2?$_Iosb@H@std@@8
rdata$r	ENDS
;	COMDAT ??_R2?$basic_ifstream@DU?$char_traits@D@std@@@std@@8
rdata$r	SEGMENT
??_R2?$basic_ifstream@DU?$char_traits@D@std@@@std@@8 DD imagerel ??_R1A@?0A@EA@?$basic_ifstream@DU?$char_traits@D@std@@@std@@8 ; std::basic_ifstream<char,std::char_traits<char> >::`RTTI Base Class Array'
	DD	imagerel ??_R1A@?0A@EA@?$basic_istream@DU?$char_traits@D@std@@@std@@8
	DD	imagerel ??_R1A@A@3FA@?$basic_ios@DU?$char_traits@D@std@@@std@@8
	DD	imagerel ??_R1A@A@3EA@ios_base@std@@8
	DD	imagerel ??_R17A@3EA@?$_Iosb@H@std@@8
	ORG $+3
rdata$r	ENDS
;	COMDAT ??_R1A@?0A@EA@?$basic_ios@DU?$char_traits@D@std@@@std@@8
rdata$r	SEGMENT
??_R1A@?0A@EA@?$basic_ios@DU?$char_traits@D@std@@@std@@8 DD imagerel ??_R0?AV?$basic_ios@DU?$char_traits@D@std@@@std@@@8 ; std::basic_ios<char,std::char_traits<char> >::`RTTI Base Class Descriptor at (0,-1,0,64)'
	DD	02H
	DD	00H
	DD	0ffffffffH
	DD	00H
	DD	040H
	DD	imagerel ??_R3?$basic_ios@DU?$char_traits@D@std@@@std@@8
rdata$r	ENDS
;	COMDAT ??_R1A@A@3EA@ios_base@std@@8
rdata$r	SEGMENT
??_R1A@A@3EA@ios_base@std@@8 DD imagerel ??_R0?AVios_base@std@@@8 ; std::ios_base::`RTTI Base Class Descriptor at (0,0,4,64)'
	DD	01H
	DD	00H
	DD	00H
	DD	04H
	DD	040H
	DD	imagerel ??_R3ios_base@std@@8
rdata$r	ENDS
;	COMDAT ??_R2?$_Iosb@H@std@@8
rdata$r	SEGMENT
??_R2?$_Iosb@H@std@@8 DD imagerel ??_R1A@?0A@EA@?$_Iosb@H@std@@8 ; std::_Iosb<int>::`RTTI Base Class Array'
	ORG $+3
rdata$r	ENDS
;	COMDAT ??_7?$basic_ifstream@DU?$char_traits@D@std@@@std@@6B@
CONST	SEGMENT
??_7?$basic_ifstream@DU?$char_traits@D@std@@@std@@6B@ DQ FLAT:??_R4?$basic_ifstream@DU?$char_traits@D@std@@@std@@6B@ ; std::basic_ifstream<char,std::char_traits<char> >::`vftable'
	DQ	FLAT:??_E?$basic_ifstream@DU?$char_traits@D@std@@@std@@$4PPPPPPPM@A@EAAPEAXI@Z
CONST	ENDS
;	COMDAT ??_R3?$basic_stringstream@DU?$char_traits@D@std@@V?$allocator@D@2@@std@@8
rdata$r	SEGMENT
??_R3?$basic_stringstream@DU?$char_traits@D@std@@V?$allocator@D@2@@std@@8 DD 00H ; std::basic_stringstream<char,std::char_traits<char>,std::allocator<char> >::`RTTI Class Hierarchy Descriptor'
	DD	03H
	DD	0aH
	DD	imagerel ??_R2?$basic_stringstream@DU?$char_traits@D@std@@V?$allocator@D@2@@std@@8
rdata$r	ENDS
;	COMDAT ??_R3?$basic_streambuf@DU?$char_traits@D@std@@@std@@8
rdata$r	SEGMENT
??_R3?$basic_streambuf@DU?$char_traits@D@std@@@std@@8 DD 00H ; std::basic_streambuf<char,std::char_traits<char> >::`RTTI Class Hierarchy Descriptor'
	DD	00H
	DD	01H
	DD	imagerel ??_R2?$basic_streambuf@DU?$char_traits@D@std@@@std@@8
rdata$r	ENDS
;	COMDAT ??_R2?$basic_filebuf@DU?$char_traits@D@std@@@std@@8
rdata$r	SEGMENT
??_R2?$basic_filebuf@DU?$char_traits@D@std@@@std@@8 DD imagerel ??_R1A@?0A@EA@?$basic_filebuf@DU?$char_traits@D@std@@@std@@8 ; std::basic_filebuf<char,std::char_traits<char> >::`RTTI Base Class Array'
	DD	imagerel ??_R1A@?0A@EA@?$basic_streambuf@DU?$char_traits@D@std@@@std@@8
	ORG $+3
rdata$r	ENDS
;	COMDAT ??_R3ios_base@std@@8
rdata$r	SEGMENT
??_R3ios_base@std@@8 DD 00H				; std::ios_base::`RTTI Class Hierarchy Descriptor'
	DD	00H
	DD	02H
	DD	imagerel ??_R2ios_base@std@@8
rdata$r	ENDS
;	COMDAT ??_8?$basic_stringstream@DU?$char_traits@D@std@@V?$allocator@D@2@@std@@7B?$basic_istream@DU?$char_traits@D@std@@@1@@
CONST	SEGMENT
??_8?$basic_stringstream@DU?$char_traits@D@std@@V?$allocator@D@2@@std@@7B?$basic_istream@DU?$char_traits@D@std@@@1@@ DD 00H ; std::basic_stringstream<char,std::char_traits<char>,std::allocator<char> >::`vbtable'
	DD	098H
CONST	ENDS
;	COMDAT ??_R1A@?0A@EA@?$basic_iostream@DU?$char_traits@D@std@@@std@@8
rdata$r	SEGMENT
??_R1A@?0A@EA@?$basic_iostream@DU?$char_traits@D@std@@@std@@8 DD imagerel ??_R0?AV?$basic_iostream@DU?$char_traits@D@std@@@std@@@8 ; std::basic_iostream<char,std::char_traits<char> >::`RTTI Base Class Descriptor at (0,-1,0,64)'
	DD	08H
	DD	00H
	DD	0ffffffffH
	DD	00H
	DD	040H
	DD	imagerel ??_R3?$basic_iostream@DU?$char_traits@D@std@@@std@@8
rdata$r	ENDS
;	COMDAT ??_R3?$basic_ostream@DU?$char_traits@D@std@@@std@@8
rdata$r	SEGMENT
??_R3?$basic_ostream@DU?$char_traits@D@std@@@std@@8 DD 00H ; std::basic_ostream<char,std::char_traits<char> >::`RTTI Class Hierarchy Descriptor'
	DD	00H
	DD	04H
	DD	imagerel ??_R2?$basic_ostream@DU?$char_traits@D@std@@@std@@8
rdata$r	ENDS
;	COMDAT ??_R2ios_base@std@@8
rdata$r	SEGMENT
??_R2ios_base@std@@8 DD imagerel ??_R1A@?0A@EA@ios_base@std@@8 ; std::ios_base::`RTTI Base Class Array'
	DD	imagerel ??_R17?0A@EA@?$_Iosb@H@std@@8
	ORG $+3
rdata$r	ENDS
;	COMDAT ??_R0?AV?$basic_ostream@DU?$char_traits@D@std@@@std@@@8
data$r	SEGMENT
??_R0?AV?$basic_ostream@DU?$char_traits@D@std@@@std@@@8 DQ FLAT:??_7type_info@@6B@ ; std::basic_ostream<char,std::char_traits<char> > `RTTI Type Descriptor'
	DQ	0000000000000000H
	DB	'.?AV?$basic_ostream@DU?$char_traits@D@std@@@std@@', 00H
data$r	ENDS
;	COMDAT ??_R3?$basic_filebuf@DU?$char_traits@D@std@@@std@@8
rdata$r	SEGMENT
??_R3?$basic_filebuf@DU?$char_traits@D@std@@@std@@8 DD 00H ; std::basic_filebuf<char,std::char_traits<char> >::`RTTI Class Hierarchy Descriptor'
	DD	00H
	DD	02H
	DD	imagerel ??_R2?$basic_filebuf@DU?$char_traits@D@std@@@std@@8
rdata$r	ENDS
;	COMDAT ??_R1A@A@3FA@?$basic_ios@DU?$char_traits@D@std@@@std@@8
rdata$r	SEGMENT
??_R1A@A@3FA@?$basic_ios@DU?$char_traits@D@std@@@std@@8 DD imagerel ??_R0?AV?$basic_ios@DU?$char_traits@D@std@@@std@@@8 ; std::basic_ios<char,std::char_traits<char> >::`RTTI Base Class Descriptor at (0,0,4,80)'
	DD	02H
	DD	00H
	DD	00H
	DD	04H
	DD	050H
	DD	imagerel ??_R3?$basic_ios@DU?$char_traits@D@std@@@std@@8
rdata$r	ENDS
;	COMDAT ??_R1A@?0A@EA@?$basic_filebuf@DU?$char_traits@D@std@@@std@@8
rdata$r	SEGMENT
??_R1A@?0A@EA@?$basic_filebuf@DU?$char_traits@D@std@@@std@@8 DD imagerel ??_R0?AV?$basic_filebuf@DU?$char_traits@D@std@@@std@@@8 ; std::basic_filebuf<char,std::char_traits<char> >::`RTTI Base Class Descriptor at (0,-1,0,64)'
	DD	01H
	DD	00H
	DD	0ffffffffH
	DD	00H
	DD	040H
	DD	imagerel ??_R3?$basic_filebuf@DU?$char_traits@D@std@@@std@@8
rdata$r	ENDS
;	COMDAT ??_R1A@?0A@EA@?$basic_ofstream@DU?$char_traits@D@std@@@std@@8
rdata$r	SEGMENT
??_R1A@?0A@EA@?$basic_ofstream@DU?$char_traits@D@std@@@std@@8 DD imagerel ??_R0?AV?$basic_ofstream@DU?$char_traits@D@std@@@std@@@8 ; std::basic_ofstream<char,std::char_traits<char> >::`RTTI Base Class Descriptor at (0,-1,0,64)'
	DD	04H
	DD	00H
	DD	0ffffffffH
	DD	00H
	DD	040H
	DD	imagerel ??_R3?$basic_ofstream@DU?$char_traits@D@std@@@std@@8
rdata$r	ENDS
;	COMDAT ??_R4?$basic_stringstream@DU?$char_traits@D@std@@V?$allocator@D@2@@std@@6B@
rdata$r	SEGMENT
??_R4?$basic_stringstream@DU?$char_traits@D@std@@V?$allocator@D@2@@std@@6B@ DD 01H ; std::basic_stringstream<char,std::char_traits<char>,std::allocator<char> >::`RTTI Complete Object Locator'
	DD	098H
	DD	04H
	DD	imagerel ??_R0?AV?$basic_stringstream@DU?$char_traits@D@std@@V?$allocator@D@2@@std@@@8
	DD	imagerel ??_R3?$basic_stringstream@DU?$char_traits@D@std@@V?$allocator@D@2@@std@@8
	DD	imagerel ??_R4?$basic_stringstream@DU?$char_traits@D@std@@V?$allocator@D@2@@std@@6B@
rdata$r	ENDS
;	COMDAT ??_R4?$basic_stringbuf@DU?$char_traits@D@std@@V?$allocator@D@2@@std@@6B@
rdata$r	SEGMENT
??_R4?$basic_stringbuf@DU?$char_traits@D@std@@V?$allocator@D@2@@std@@6B@ DD 01H ; std::basic_stringbuf<char,std::char_traits<char>,std::allocator<char> >::`RTTI Complete Object Locator'
	DD	00H
	DD	00H
	DD	imagerel ??_R0?AV?$basic_stringbuf@DU?$char_traits@D@std@@V?$allocator@D@2@@std@@@8
	DD	imagerel ??_R3?$basic_stringbuf@DU?$char_traits@D@std@@V?$allocator@D@2@@std@@8
	DD	imagerel ??_R4?$basic_stringbuf@DU?$char_traits@D@std@@V?$allocator@D@2@@std@@6B@
rdata$r	ENDS
;	COMDAT _CT??_R0?AVbad_cast@std@@@8??0bad_cast@std@@QEAA@AEBV01@@Z24
xdata$x	SEGMENT
_CT??_R0?AVbad_cast@std@@@8??0bad_cast@std@@QEAA@AEBV01@@Z24 DD 00H
	DD	imagerel ??_R0?AVbad_cast@std@@@8
	DD	00H
	DD	0ffffffffH
	ORG $+4
	DD	018H
	DD	imagerel ??0bad_cast@std@@QEAA@AEBV01@@Z
xdata$x	ENDS
;	COMDAT ??_R4bad_cast@std@@6B@
rdata$r	SEGMENT
??_R4bad_cast@std@@6B@ DD 01H				; std::bad_cast::`RTTI Complete Object Locator'
	DD	00H
	DD	00H
	DD	imagerel ??_R0?AVbad_cast@std@@@8
	DD	imagerel ??_R3bad_cast@std@@8
	DD	imagerel ??_R4bad_cast@std@@6B@
rdata$r	ENDS
;	COMDAT ??_R2?$basic_stringstream@DU?$char_traits@D@std@@V?$allocator@D@2@@std@@8
rdata$r	SEGMENT
??_R2?$basic_stringstream@DU?$char_traits@D@std@@V?$allocator@D@2@@std@@8 DD imagerel ??_R1A@?0A@EA@?$basic_stringstream@DU?$char_traits@D@std@@V?$allocator@D@2@@std@@8 ; std::basic_stringstream<char,std::char_traits<char>,std::allocator<char> >::`RTTI Base Class Array'
	DD	imagerel ??_R1A@?0A@EA@?$basic_iostream@DU?$char_traits@D@std@@@std@@8
	DD	imagerel ??_R1A@?0A@EA@?$basic_istream@DU?$char_traits@D@std@@@std@@8
	DD	imagerel ??_R1A@A@3FA@?$basic_ios@DU?$char_traits@D@std@@@std@@8
	DD	imagerel ??_R1A@A@3EA@ios_base@std@@8
	DD	imagerel ??_R17A@3EA@?$_Iosb@H@std@@8
	DD	imagerel ??_R1BA@?0A@EA@?$basic_ostream@DU?$char_traits@D@std@@@std@@8
	DD	imagerel ??_R1A@A@3FA@?$basic_ios@DU?$char_traits@D@std@@@std@@8
	DD	imagerel ??_R1A@A@3EA@ios_base@std@@8
	DD	imagerel ??_R17A@3EA@?$_Iosb@H@std@@8
	ORG $+3
rdata$r	ENDS
;	COMDAT ??_R3bad_cast@std@@8
rdata$r	SEGMENT
??_R3bad_cast@std@@8 DD 00H				; std::bad_cast::`RTTI Class Hierarchy Descriptor'
	DD	00H
	DD	02H
	DD	imagerel ??_R2bad_cast@std@@8
rdata$r	ENDS
;	COMDAT ??_R2?$basic_iostream@DU?$char_traits@D@std@@@std@@8
rdata$r	SEGMENT
??_R2?$basic_iostream@DU?$char_traits@D@std@@@std@@8 DD imagerel ??_R1A@?0A@EA@?$basic_iostream@DU?$char_traits@D@std@@@std@@8 ; std::basic_iostream<char,std::char_traits<char> >::`RTTI Base Class Array'
	DD	imagerel ??_R1A@?0A@EA@?$basic_istream@DU?$char_traits@D@std@@@std@@8
	DD	imagerel ??_R1A@A@3FA@?$basic_ios@DU?$char_traits@D@std@@@std@@8
	DD	imagerel ??_R1A@A@3EA@ios_base@std@@8
	DD	imagerel ??_R17A@3EA@?$_Iosb@H@std@@8
	DD	imagerel ??_R1BA@?0A@EA@?$basic_ostream@DU?$char_traits@D@std@@@std@@8
	DD	imagerel ??_R1A@A@3FA@?$basic_ios@DU?$char_traits@D@std@@@std@@8
	DD	imagerel ??_R1A@A@3EA@ios_base@std@@8
	DD	imagerel ??_R17A@3EA@?$_Iosb@H@std@@8
	ORG $+3
rdata$r	ENDS
;	COMDAT ??_R1A@?0A@EA@?$basic_stringbuf@DU?$char_traits@D@std@@V?$allocator@D@2@@std@@8
rdata$r	SEGMENT
??_R1A@?0A@EA@?$basic_stringbuf@DU?$char_traits@D@std@@V?$allocator@D@2@@std@@8 DD imagerel ??_R0?AV?$basic_stringbuf@DU?$char_traits@D@std@@V?$allocator@D@2@@std@@@8 ; std::basic_stringbuf<char,std::char_traits<char>,std::allocator<char> >::`RTTI Base Class Descriptor at (0,-1,0,64)'
	DD	01H
	DD	00H
	DD	0ffffffffH
	DD	00H
	DD	040H
	DD	imagerel ??_R3?$basic_stringbuf@DU?$char_traits@D@std@@V?$allocator@D@2@@std@@8
rdata$r	ENDS
;	COMDAT ??_8?$basic_ifstream@DU?$char_traits@D@std@@@std@@7B@
CONST	SEGMENT
??_8?$basic_ifstream@DU?$char_traits@D@std@@@std@@7B@ DD 00H ; std::basic_ifstream<char,std::char_traits<char> >::`vbtable'
	DD	0b0H
CONST	ENDS
;	COMDAT ??_R1A@?0A@EA@?$_Iosb@H@std@@8
rdata$r	SEGMENT
??_R1A@?0A@EA@?$_Iosb@H@std@@8 DD imagerel ??_R0?AV?$_Iosb@H@std@@@8 ; std::_Iosb<int>::`RTTI Base Class Descriptor at (0,-1,0,64)'
	DD	00H
	DD	00H
	DD	0ffffffffH
	DD	00H
	DD	040H
	DD	imagerel ??_R3?$_Iosb@H@std@@8
rdata$r	ENDS
;	COMDAT ??_R2?$basic_streambuf@DU?$char_traits@D@std@@@std@@8
rdata$r	SEGMENT
??_R2?$basic_streambuf@DU?$char_traits@D@std@@@std@@8 DD imagerel ??_R1A@?0A@EA@?$basic_streambuf@DU?$char_traits@D@std@@@std@@8 ; std::basic_streambuf<char,std::char_traits<char> >::`RTTI Base Class Array'
	ORG $+3
rdata$r	ENDS
;	COMDAT _CTA2?AVbad_alloc@std@@
xdata$x	SEGMENT
_CTA2?AVbad_alloc@std@@ DD 02H
	DD	imagerel _CT??_R0?AVbad_alloc@std@@@8??0bad_alloc@std@@QEAA@AEBV01@@Z24
	DD	imagerel _CT??_R0?AVexception@std@@@8??0exception@std@@QEAA@AEBV01@@Z24
xdata$x	ENDS
;	COMDAT ??_7?$basic_stringstream@DU?$char_traits@D@std@@V?$allocator@D@2@@std@@6B@
CONST	SEGMENT
??_7?$basic_stringstream@DU?$char_traits@D@std@@V?$allocator@D@2@@std@@6B@ DQ FLAT:??_R4?$basic_stringstream@DU?$char_traits@D@std@@V?$allocator@D@2@@std@@6B@ ; std::basic_stringstream<char,std::char_traits<char>,std::allocator<char> >::`vftable'
	DQ	FLAT:??_E?$basic_stringstream@DU?$char_traits@D@std@@V?$allocator@D@2@@std@@$4PPPPPPPM@A@EAAPEAXI@Z
CONST	ENDS
;	COMDAT ??_R0?AV?$basic_ios@DU?$char_traits@D@std@@@std@@@8
data$r	SEGMENT
??_R0?AV?$basic_ios@DU?$char_traits@D@std@@@std@@@8 DQ FLAT:??_7type_info@@6B@ ; std::basic_ios<char,std::char_traits<char> > `RTTI Type Descriptor'
	DQ	0000000000000000H
	DB	'.?AV?$basic_ios@DU?$char_traits@D@std@@@std@@', 00H
data$r	ENDS
;	COMDAT ??_R4?$basic_filebuf@DU?$char_traits@D@std@@@std@@6B@
rdata$r	SEGMENT
??_R4?$basic_filebuf@DU?$char_traits@D@std@@@std@@6B@ DD 01H ; std::basic_filebuf<char,std::char_traits<char> >::`RTTI Complete Object Locator'
	DD	00H
	DD	00H
	DD	imagerel ??_R0?AV?$basic_filebuf@DU?$char_traits@D@std@@@std@@@8
	DD	imagerel ??_R3?$basic_filebuf@DU?$char_traits@D@std@@@std@@8
	DD	imagerel ??_R4?$basic_filebuf@DU?$char_traits@D@std@@@std@@6B@
rdata$r	ENDS
;	COMDAT ??_R1A@?0A@EA@?$basic_ostream@DU?$char_traits@D@std@@@std@@8
rdata$r	SEGMENT
??_R1A@?0A@EA@?$basic_ostream@DU?$char_traits@D@std@@@std@@8 DD imagerel ??_R0?AV?$basic_ostream@DU?$char_traits@D@std@@@std@@@8 ; std::basic_ostream<char,std::char_traits<char> >::`RTTI Base Class Descriptor at (0,-1,0,64)'
	DD	03H
	DD	00H
	DD	0ffffffffH
	DD	00H
	DD	040H
	DD	imagerel ??_R3?$basic_ostream@DU?$char_traits@D@std@@@std@@8
rdata$r	ENDS
;	COMDAT ??_R1A@?0A@EA@ios_base@std@@8
rdata$r	SEGMENT
??_R1A@?0A@EA@ios_base@std@@8 DD imagerel ??_R0?AVios_base@std@@@8 ; std::ios_base::`RTTI Base Class Descriptor at (0,-1,0,64)'
	DD	01H
	DD	00H
	DD	0ffffffffH
	DD	00H
	DD	040H
	DD	imagerel ??_R3ios_base@std@@8
rdata$r	ENDS
;	COMDAT ??_R4?$basic_ifstream@DU?$char_traits@D@std@@@std@@6B@
rdata$r	SEGMENT
??_R4?$basic_ifstream@DU?$char_traits@D@std@@@std@@6B@ DD 01H ; std::basic_ifstream<char,std::char_traits<char> >::`RTTI Complete Object Locator'
	DD	0b0H
	DD	04H
	DD	imagerel ??_R0?AV?$basic_ifstream@DU?$char_traits@D@std@@@std@@@8
	DD	imagerel ??_R3?$basic_ifstream@DU?$char_traits@D@std@@@std@@8
	DD	imagerel ??_R4?$basic_ifstream@DU?$char_traits@D@std@@@std@@6B@
rdata$r	ENDS
;	COMDAT ??_R0?AV?$basic_istream@DU?$char_traits@D@std@@@std@@@8
data$r	SEGMENT
??_R0?AV?$basic_istream@DU?$char_traits@D@std@@@std@@@8 DQ FLAT:??_7type_info@@6B@ ; std::basic_istream<char,std::char_traits<char> > `RTTI Type Descriptor'
	DQ	0000000000000000H
	DB	'.?AV?$basic_istream@DU?$char_traits@D@std@@@std@@', 00H
data$r	ENDS
;	COMDAT ??_R1BA@?0A@EA@?$basic_ostream@DU?$char_traits@D@std@@@std@@8
rdata$r	SEGMENT
??_R1BA@?0A@EA@?$basic_ostream@DU?$char_traits@D@std@@@std@@8 DD imagerel ??_R0?AV?$basic_ostream@DU?$char_traits@D@std@@@std@@@8 ; std::basic_ostream<char,std::char_traits<char> >::`RTTI Base Class Descriptor at (16,-1,0,64)'
	DD	03H
	DD	010H
	DD	0ffffffffH
	DD	00H
	DD	040H
	DD	imagerel ??_R3?$basic_ostream@DU?$char_traits@D@std@@@std@@8
rdata$r	ENDS
;	COMDAT ??_7?$basic_stringbuf@DU?$char_traits@D@std@@V?$allocator@D@2@@std@@6B@
CONST	SEGMENT
??_7?$basic_stringbuf@DU?$char_traits@D@std@@V?$allocator@D@2@@std@@6B@ DQ FLAT:??_R4?$basic_stringbuf@DU?$char_traits@D@std@@V?$allocator@D@2@@std@@6B@ ; std::basic_stringbuf<char,std::char_traits<char>,std::allocator<char> >::`vftable'
	DQ	FLAT:??_E?$basic_stringbuf@DU?$char_traits@D@std@@V?$allocator@D@2@@std@@UEAAPEAXI@Z
	DQ	FLAT:?_Lock@?$basic_streambuf@DU?$char_traits@D@std@@@std@@UEAAXXZ
	DQ	FLAT:?_Unlock@?$basic_streambuf@DU?$char_traits@D@std@@@std@@UEAAXXZ
	DQ	FLAT:?overflow@?$basic_stringbuf@DU?$char_traits@D@std@@V?$allocator@D@2@@std@@MEAAHH@Z
	DQ	FLAT:?pbackfail@?$basic_stringbuf@DU?$char_traits@D@std@@V?$allocator@D@2@@std@@MEAAHH@Z
	DQ	FLAT:?showmanyc@?$basic_streambuf@DU?$char_traits@D@std@@@std@@MEAA_JXZ
	DQ	FLAT:?underflow@?$basic_stringbuf@DU?$char_traits@D@std@@V?$allocator@D@2@@std@@MEAAHXZ
	DQ	FLAT:?uflow@?$basic_streambuf@DU?$char_traits@D@std@@@std@@MEAAHXZ
	DQ	FLAT:?xsgetn@?$basic_streambuf@DU?$char_traits@D@std@@@std@@MEAA_JPEAD_J@Z
	DQ	FLAT:?xsputn@?$basic_streambuf@DU?$char_traits@D@std@@@std@@MEAA_JPEBD_J@Z
	DQ	FLAT:?seekoff@?$basic_stringbuf@DU?$char_traits@D@std@@V?$allocator@D@2@@std@@MEAA?AV?$fpos@U_Mbstatet@@@2@_JHH@Z
	DQ	FLAT:?seekpos@?$basic_stringbuf@DU?$char_traits@D@std@@V?$allocator@D@2@@std@@MEAA?AV?$fpos@U_Mbstatet@@@2@V32@H@Z
	DQ	FLAT:?setbuf@?$basic_streambuf@DU?$char_traits@D@std@@@std@@MEAAPEAV12@PEAD_J@Z
	DQ	FLAT:?sync@?$basic_streambuf@DU?$char_traits@D@std@@@std@@MEAAHXZ
	DQ	FLAT:?imbue@?$basic_streambuf@DU?$char_traits@D@std@@@std@@MEAAXAEBVlocale@2@@Z
CONST	ENDS
;	COMDAT _TI2?AVbad_cast@std@@
xdata$x	SEGMENT
_TI2?AVbad_cast@std@@ DD 00H
	DD	imagerel ??1bad_cast@std@@UEAA@XZ
	DD	00H
	DD	imagerel _CTA2?AVbad_cast@std@@
xdata$x	ENDS
;	COMDAT ??_R0?AVbad_cast@std@@@8
data$r	SEGMENT
??_R0?AVbad_cast@std@@@8 DQ FLAT:??_7type_info@@6B@	; std::bad_cast `RTTI Type Descriptor'
	DQ	0000000000000000H
	DB	'.?AVbad_cast@std@@', 00H
data$r	ENDS
;	COMDAT ??_8?$basic_ofstream@DU?$char_traits@D@std@@@std@@7B@
CONST	SEGMENT
??_8?$basic_ofstream@DU?$char_traits@D@std@@@std@@7B@ DD 00H ; std::basic_ofstream<char,std::char_traits<char> >::`vbtable'
	DD	0a8H
CONST	ENDS
;	COMDAT ??_R3?$basic_ios@DU?$char_traits@D@std@@@std@@8
rdata$r	SEGMENT
??_R3?$basic_ios@DU?$char_traits@D@std@@@std@@8 DD 00H	; std::basic_ios<char,std::char_traits<char> >::`RTTI Class Hierarchy Descriptor'
	DD	00H
	DD	03H
	DD	imagerel ??_R2?$basic_ios@DU?$char_traits@D@std@@@std@@8
rdata$r	ENDS
;	COMDAT ??_7bad_cast@std@@6B@
CONST	SEGMENT
??_7bad_cast@std@@6B@ DQ FLAT:??_R4bad_cast@std@@6B@	; std::bad_cast::`vftable'
	DQ	FLAT:??_Ebad_cast@std@@UEAAPEAXI@Z
	DQ	FLAT:?what@exception@std@@UEBAPEBDXZ
CONST	ENDS
;	COMDAT ??_R2?$basic_ostream@DU?$char_traits@D@std@@@std@@8
rdata$r	SEGMENT
??_R2?$basic_ostream@DU?$char_traits@D@std@@@std@@8 DD imagerel ??_R1A@?0A@EA@?$basic_ostream@DU?$char_traits@D@std@@@std@@8 ; std::basic_ostream<char,std::char_traits<char> >::`RTTI Base Class Array'
	DD	imagerel ??_R1A@A@3FA@?$basic_ios@DU?$char_traits@D@std@@@std@@8
	DD	imagerel ??_R1A@A@3EA@ios_base@std@@8
	DD	imagerel ??_R17A@3EA@?$_Iosb@H@std@@8
	ORG $+3
rdata$r	ENDS
;	COMDAT ??_R2bad_cast@std@@8
rdata$r	SEGMENT
??_R2bad_cast@std@@8 DD imagerel ??_R1A@?0A@EA@bad_cast@std@@8 ; std::bad_cast::`RTTI Base Class Array'
	DD	imagerel ??_R1A@?0A@EA@exception@std@@8
	ORG $+3
rdata$r	ENDS
;	COMDAT ??_R3?$basic_stringbuf@DU?$char_traits@D@std@@V?$allocator@D@2@@std@@8
rdata$r	SEGMENT
??_R3?$basic_stringbuf@DU?$char_traits@D@std@@V?$allocator@D@2@@std@@8 DD 00H ; std::basic_stringbuf<char,std::char_traits<char>,std::allocator<char> >::`RTTI Class Hierarchy Descriptor'
	DD	00H
	DD	02H
	DD	imagerel ??_R2?$basic_stringbuf@DU?$char_traits@D@std@@V?$allocator@D@2@@std@@8
rdata$r	ENDS
;	COMDAT ??_R0?AV?$basic_streambuf@DU?$char_traits@D@std@@@std@@@8
data$r	SEGMENT
??_R0?AV?$basic_streambuf@DU?$char_traits@D@std@@@std@@@8 DQ FLAT:??_7type_info@@6B@ ; std::basic_streambuf<char,std::char_traits<char> > `RTTI Type Descriptor'
	DQ	0000000000000000H
	DB	'.?AV?$basic_streambuf@DU?$char_traits@D@std@@@std@@', 00H
data$r	ENDS
;	COMDAT ??_R0?AV?$basic_ofstream@DU?$char_traits@D@std@@@std@@@8
data$r	SEGMENT
??_R0?AV?$basic_ofstream@DU?$char_traits@D@std@@@std@@@8 DQ FLAT:??_7type_info@@6B@ ; std::basic_ofstream<char,std::char_traits<char> > `RTTI Type Descriptor'
	DQ	0000000000000000H
	DB	'.?AV?$basic_ofstream@DU?$char_traits@D@std@@@std@@', 00H
data$r	ENDS
;	COMDAT _CTA2?AVbad_cast@std@@
xdata$x	SEGMENT
_CTA2?AVbad_cast@std@@ DD 02H
	DD	imagerel _CT??_R0?AVbad_cast@std@@@8??0bad_cast@std@@QEAA@AEBV01@@Z24
	DD	imagerel _CT??_R0?AVexception@std@@@8??0exception@std@@QEAA@AEBV01@@Z24
xdata$x	ENDS
;	COMDAT ??_7?$basic_ofstream@DU?$char_traits@D@std@@@std@@6B@
CONST	SEGMENT
??_7?$basic_ofstream@DU?$char_traits@D@std@@@std@@6B@ DQ FLAT:??_R4?$basic_ofstream@DU?$char_traits@D@std@@@std@@6B@ ; std::basic_ofstream<char,std::char_traits<char> >::`vftable'
	DQ	FLAT:??_E?$basic_ofstream@DU?$char_traits@D@std@@@std@@$4PPPPPPPM@A@EAAPEAXI@Z
CONST	ENDS
;	COMDAT ??_R0?AV?$_Iosb@H@std@@@8
data$r	SEGMENT
??_R0?AV?$_Iosb@H@std@@@8 DQ FLAT:??_7type_info@@6B@	; std::_Iosb<int> `RTTI Type Descriptor'
	DQ	0000000000000000H
	DB	'.?AV?$_Iosb@H@std@@', 00H
data$r	ENDS
;	COMDAT ??_R2?$basic_istream@DU?$char_traits@D@std@@@std@@8
rdata$r	SEGMENT
??_R2?$basic_istream@DU?$char_traits@D@std@@@std@@8 DD imagerel ??_R1A@?0A@EA@?$basic_istream@DU?$char_traits@D@std@@@std@@8 ; std::basic_istream<char,std::char_traits<char> >::`RTTI Base Class Array'
	DD	imagerel ??_R1A@A@3FA@?$basic_ios@DU?$char_traits@D@std@@@std@@8
	DD	imagerel ??_R1A@A@3EA@ios_base@std@@8
	DD	imagerel ??_R17A@3EA@?$_Iosb@H@std@@8
	ORG $+3
rdata$r	ENDS
;	COMDAT ??_8?$basic_stringstream@DU?$char_traits@D@std@@V?$allocator@D@2@@std@@7B?$basic_ostream@DU?$char_traits@D@std@@@1@@
CONST	SEGMENT
??_8?$basic_stringstream@DU?$char_traits@D@std@@V?$allocator@D@2@@std@@7B?$basic_ostream@DU?$char_traits@D@std@@@1@@ DD 00H ; std::basic_stringstream<char,std::char_traits<char>,std::allocator<char> >::`vbtable'
	DD	088H
CONST	ENDS
;	COMDAT ??_7?$basic_filebuf@DU?$char_traits@D@std@@@std@@6B@
CONST	SEGMENT
??_7?$basic_filebuf@DU?$char_traits@D@std@@@std@@6B@ DQ FLAT:??_R4?$basic_filebuf@DU?$char_traits@D@std@@@std@@6B@ ; std::basic_filebuf<char,std::char_traits<char> >::`vftable'
	DQ	FLAT:??_E?$basic_filebuf@DU?$char_traits@D@std@@@std@@UEAAPEAXI@Z
	DQ	FLAT:?_Lock@?$basic_filebuf@DU?$char_traits@D@std@@@std@@UEAAXXZ
	DQ	FLAT:?_Unlock@?$basic_filebuf@DU?$char_traits@D@std@@@std@@UEAAXXZ
	DQ	FLAT:?overflow@?$basic_filebuf@DU?$char_traits@D@std@@@std@@MEAAHH@Z
	DQ	FLAT:?pbackfail@?$basic_filebuf@DU?$char_traits@D@std@@@std@@MEAAHH@Z
	DQ	FLAT:?showmanyc@?$basic_streambuf@DU?$char_traits@D@std@@@std@@MEAA_JXZ
	DQ	FLAT:?underflow@?$basic_filebuf@DU?$char_traits@D@std@@@std@@MEAAHXZ
	DQ	FLAT:?uflow@?$basic_filebuf@DU?$char_traits@D@std@@@std@@MEAAHXZ
	DQ	FLAT:?xsgetn@?$basic_filebuf@DU?$char_traits@D@std@@@std@@MEAA_JPEAD_J@Z
	DQ	FLAT:?xsputn@?$basic_filebuf@DU?$char_traits@D@std@@@std@@MEAA_JPEBD_J@Z
	DQ	FLAT:?seekoff@?$basic_filebuf@DU?$char_traits@D@std@@@std@@MEAA?AV?$fpos@U_Mbstatet@@@2@_JHH@Z
	DQ	FLAT:?seekpos@?$basic_filebuf@DU?$char_traits@D@std@@@std@@MEAA?AV?$fpos@U_Mbstatet@@@2@V32@H@Z
	DQ	FLAT:?setbuf@?$basic_filebuf@DU?$char_traits@D@std@@@std@@MEAAPEAV?$basic_streambuf@DU?$char_traits@D@std@@@2@PEAD_J@Z
	DQ	FLAT:?sync@?$basic_filebuf@DU?$char_traits@D@std@@@std@@MEAAHXZ
	DQ	FLAT:?imbue@?$basic_filebuf@DU?$char_traits@D@std@@@std@@MEAAXAEBVlocale@2@@Z
CONST	ENDS
;	COMDAT ??_R1A@?0A@EA@?$basic_streambuf@DU?$char_traits@D@std@@@std@@8
rdata$r	SEGMENT
??_R1A@?0A@EA@?$basic_streambuf@DU?$char_traits@D@std@@@std@@8 DD imagerel ??_R0?AV?$basic_streambuf@DU?$char_traits@D@std@@@std@@@8 ; std::basic_streambuf<char,std::char_traits<char> >::`RTTI Base Class Descriptor at (0,-1,0,64)'
	DD	00H
	DD	00H
	DD	0ffffffffH
	DD	00H
	DD	040H
	DD	imagerel ??_R3?$basic_streambuf@DU?$char_traits@D@std@@@std@@8
rdata$r	ENDS
;	COMDAT ??_R2?$basic_ofstream@DU?$char_traits@D@std@@@std@@8
rdata$r	SEGMENT
??_R2?$basic_ofstream@DU?$char_traits@D@std@@@std@@8 DD imagerel ??_R1A@?0A@EA@?$basic_ofstream@DU?$char_traits@D@std@@@std@@8 ; std::basic_ofstream<char,std::char_traits<char> >::`RTTI Base Class Array'
	DD	imagerel ??_R1A@?0A@EA@?$basic_ostream@DU?$char_traits@D@std@@@std@@8
	DD	imagerel ??_R1A@A@3FA@?$basic_ios@DU?$char_traits@D@std@@@std@@8
	DD	imagerel ??_R1A@A@3EA@ios_base@std@@8
	DD	imagerel ??_R17A@3EA@?$_Iosb@H@std@@8
	ORG $+3
rdata$r	ENDS
;	COMDAT ??_R1A@?0A@EA@?$basic_stringstream@DU?$char_traits@D@std@@V?$allocator@D@2@@std@@8
rdata$r	SEGMENT
??_R1A@?0A@EA@?$basic_stringstream@DU?$char_traits@D@std@@V?$allocator@D@2@@std@@8 DD imagerel ??_R0?AV?$basic_stringstream@DU?$char_traits@D@std@@V?$allocator@D@2@@std@@@8 ; std::basic_stringstream<char,std::char_traits<char>,std::allocator<char> >::`RTTI Base Class Descriptor at (0,-1,0,64)'
	DD	09H
	DD	00H
	DD	0ffffffffH
	DD	00H
	DD	040H
	DD	imagerel ??_R3?$basic_stringstream@DU?$char_traits@D@std@@V?$allocator@D@2@@std@@8
rdata$r	ENDS
;	COMDAT ??_R17A@3EA@?$_Iosb@H@std@@8
rdata$r	SEGMENT
??_R17A@3EA@?$_Iosb@H@std@@8 DD imagerel ??_R0?AV?$_Iosb@H@std@@@8 ; std::_Iosb<int>::`RTTI Base Class Descriptor at (8,0,4,64)'
	DD	00H
	DD	08H
	DD	00H
	DD	04H
	DD	040H
	DD	imagerel ??_R3?$_Iosb@H@std@@8
rdata$r	ENDS
;	COMDAT ??_R0?AV?$basic_iostream@DU?$char_traits@D@std@@@std@@@8
data$r	SEGMENT
??_R0?AV?$basic_iostream@DU?$char_traits@D@std@@@std@@@8 DQ FLAT:??_7type_info@@6B@ ; std::basic_iostream<char,std::char_traits<char> > `RTTI Type Descriptor'
	DQ	0000000000000000H
	DB	'.?AV?$basic_iostream@DU?$char_traits@D@std@@@std@@', 00H
data$r	ENDS
;	COMDAT ??_R1A@?0A@EA@?$basic_ifstream@DU?$char_traits@D@std@@@std@@8
rdata$r	SEGMENT
??_R1A@?0A@EA@?$basic_ifstream@DU?$char_traits@D@std@@@std@@8 DD imagerel ??_R0?AV?$basic_ifstream@DU?$char_traits@D@std@@@std@@@8 ; std::basic_ifstream<char,std::char_traits<char> >::`RTTI Base Class Descriptor at (0,-1,0,64)'
	DD	04H
	DD	00H
	DD	0ffffffffH
	DD	00H
	DD	040H
	DD	imagerel ??_R3?$basic_ifstream@DU?$char_traits@D@std@@@std@@8
rdata$r	ENDS
;	COMDAT ??_R2?$basic_stringbuf@DU?$char_traits@D@std@@V?$allocator@D@2@@std@@8
rdata$r	SEGMENT
??_R2?$basic_stringbuf@DU?$char_traits@D@std@@V?$allocator@D@2@@std@@8 DD imagerel ??_R1A@?0A@EA@?$basic_stringbuf@DU?$char_traits@D@std@@V?$allocator@D@2@@std@@8 ; std::basic_stringbuf<char,std::char_traits<char>,std::allocator<char> >::`RTTI Base Class Array'
	DD	imagerel ??_R1A@?0A@EA@?$basic_streambuf@DU?$char_traits@D@std@@@std@@8
	ORG $+3
rdata$r	ENDS
;	COMDAT ??_R0?AVios_base@std@@@8
data$r	SEGMENT
??_R0?AVios_base@std@@@8 DQ FLAT:??_7type_info@@6B@	; std::ios_base `RTTI Type Descriptor'
	DQ	0000000000000000H
	DB	'.?AVios_base@std@@', 00H
data$r	ENDS
;	COMDAT ??_R0?AV?$basic_stringbuf@DU?$char_traits@D@std@@V?$allocator@D@2@@std@@@8
data$r	SEGMENT
??_R0?AV?$basic_stringbuf@DU?$char_traits@D@std@@V?$allocator@D@2@@std@@@8 DQ FLAT:??_7type_info@@6B@ ; std::basic_stringbuf<char,std::char_traits<char>,std::allocator<char> > `RTTI Type Descriptor'
	DQ	0000000000000000H
	DB	'.?AV?$basic_stringbuf@DU?$char_traits@D@std@@V?$allocato'
	DB	'r@D@2@@std@@', 00H
data$r	ENDS
;	COMDAT ??_R3?$basic_ifstream@DU?$char_traits@D@std@@@std@@8
rdata$r	SEGMENT
??_R3?$basic_ifstream@DU?$char_traits@D@std@@@std@@8 DD 00H ; std::basic_ifstream<char,std::char_traits<char> >::`RTTI Class Hierarchy Descriptor'
	DD	00H
	DD	05H
	DD	imagerel ??_R2?$basic_ifstream@DU?$char_traits@D@std@@@std@@8
rdata$r	ENDS
;	COMDAT ??_R1A@?0A@EA@bad_cast@std@@8
rdata$r	SEGMENT
??_R1A@?0A@EA@bad_cast@std@@8 DD imagerel ??_R0?AVbad_cast@std@@@8 ; std::bad_cast::`RTTI Base Class Descriptor at (0,-1,0,64)'
	DD	01H
	DD	00H
	DD	0ffffffffH
	DD	00H
	DD	040H
	DD	imagerel ??_R3bad_cast@std@@8
rdata$r	ENDS
;	COMDAT ??_R0?AV?$basic_ifstream@DU?$char_traits@D@std@@@std@@@8
data$r	SEGMENT
??_R0?AV?$basic_ifstream@DU?$char_traits@D@std@@@std@@@8 DQ FLAT:??_7type_info@@6B@ ; std::basic_ifstream<char,std::char_traits<char> > `RTTI Type Descriptor'
	DQ	0000000000000000H
	DB	'.?AV?$basic_ifstream@DU?$char_traits@D@std@@@std@@', 00H
data$r	ENDS
;	COMDAT ??_R1A@?0A@EA@?$basic_istream@DU?$char_traits@D@std@@@std@@8
rdata$r	SEGMENT
??_R1A@?0A@EA@?$basic_istream@DU?$char_traits@D@std@@@std@@8 DD imagerel ??_R0?AV?$basic_istream@DU?$char_traits@D@std@@@std@@@8 ; std::basic_istream<char,std::char_traits<char> >::`RTTI Base Class Descriptor at (0,-1,0,64)'
	DD	03H
	DD	00H
	DD	0ffffffffH
	DD	00H
	DD	040H
	DD	imagerel ??_R3?$basic_istream@DU?$char_traits@D@std@@@std@@8
rdata$r	ENDS
;	COMDAT ??_R3?$basic_ofstream@DU?$char_traits@D@std@@@std@@8
rdata$r	SEGMENT
??_R3?$basic_ofstream@DU?$char_traits@D@std@@@std@@8 DD 00H ; std::basic_ofstream<char,std::char_traits<char> >::`RTTI Class Hierarchy Descriptor'
	DD	00H
	DD	05H
	DD	imagerel ??_R2?$basic_ofstream@DU?$char_traits@D@std@@@std@@8
rdata$r	ENDS
;	COMDAT ??_R4?$basic_ofstream@DU?$char_traits@D@std@@@std@@6B@
rdata$r	SEGMENT
??_R4?$basic_ofstream@DU?$char_traits@D@std@@@std@@6B@ DD 01H ; std::basic_ofstream<char,std::char_traits<char> >::`RTTI Complete Object Locator'
	DD	0a8H
	DD	04H
	DD	imagerel ??_R0?AV?$basic_ofstream@DU?$char_traits@D@std@@@std@@@8
	DD	imagerel ??_R3?$basic_ofstream@DU?$char_traits@D@std@@@std@@8
	DD	imagerel ??_R4?$basic_ofstream@DU?$char_traits@D@std@@@std@@6B@
rdata$r	ENDS
;	COMDAT ??_R0?AV?$basic_filebuf@DU?$char_traits@D@std@@@std@@@8
data$r	SEGMENT
??_R0?AV?$basic_filebuf@DU?$char_traits@D@std@@@std@@@8 DQ FLAT:??_7type_info@@6B@ ; std::basic_filebuf<char,std::char_traits<char> > `RTTI Type Descriptor'
	DQ	0000000000000000H
	DB	'.?AV?$basic_filebuf@DU?$char_traits@D@std@@@std@@', 00H
data$r	ENDS
;	COMDAT ??_R0?AV?$basic_stringstream@DU?$char_traits@D@std@@V?$allocator@D@2@@std@@@8
data$r	SEGMENT
??_R0?AV?$basic_stringstream@DU?$char_traits@D@std@@V?$allocator@D@2@@std@@@8 DQ FLAT:??_7type_info@@6B@ ; std::basic_stringstream<char,std::char_traits<char>,std::allocator<char> > `RTTI Type Descriptor'
	DQ	0000000000000000H
	DB	'.?AV?$basic_stringstream@DU?$char_traits@D@std@@V?$alloc'
	DB	'ator@D@2@@std@@', 00H
data$r	ENDS
;	COMDAT ??_R3?$basic_iostream@DU?$char_traits@D@std@@@std@@8
rdata$r	SEGMENT
??_R3?$basic_iostream@DU?$char_traits@D@std@@@std@@8 DD 00H ; std::basic_iostream<char,std::char_traits<char> >::`RTTI Class Hierarchy Descriptor'
	DD	03H
	DD	09H
	DD	imagerel ??_R2?$basic_iostream@DU?$char_traits@D@std@@@std@@8
rdata$r	ENDS
;	COMDAT ??_R3?$basic_istream@DU?$char_traits@D@std@@@std@@8
rdata$r	SEGMENT
??_R3?$basic_istream@DU?$char_traits@D@std@@@std@@8 DD 00H ; std::basic_istream<char,std::char_traits<char> >::`RTTI Class Hierarchy Descriptor'
	DD	00H
	DD	04H
	DD	imagerel ??_R2?$basic_istream@DU?$char_traits@D@std@@@std@@8
PUBLIC	??_E?$basic_ofstream@DU?$char_traits@D@std@@@std@@$4PPPPPPPM@A@EAAPEAXI@Z ; std::basic_ofstream<char,std::char_traits<char> >::`vector deleting destructor'
PUBLIC	??_E?$basic_ifstream@DU?$char_traits@D@std@@@std@@$4PPPPPPPM@A@EAAPEAXI@Z ; std::basic_ifstream<char,std::char_traits<char> >::`vector deleting destructor'
PUBLIC	??_E?$basic_stringstream@DU?$char_traits@D@std@@V?$allocator@D@2@@std@@$4PPPPPPPM@A@EAAPEAXI@Z ; std::basic_stringstream<char,std::char_traits<char>,std::allocator<char> >::`vector deleting destructor'
PUBLIC	??$forward@AEAPEAV_Facet_base@std@@@std@@YAAEAPEAV_Facet_base@0@AEAPEAV10@@Z ; std::forward<std::_Facet_base * &>
PUBLIC	??$_Emplace_back@UGame@uci@@@?$_Uninitialized_backout_al@V?$allocator@UGame@uci@@@std@@@std@@QEAAX$$QEAUGame@uci@@@Z ; std::_Uninitialized_backout_al<std::allocator<uci::Game> >::_Emplace_back<uci::Game>
PUBLIC	??$forward@AEBQEAU?$_Tree_node@U?$pair@$$CB_KUgameInfo@@@std@@PEAX@std@@@std@@YAAEBQEAU?$_Tree_node@U?$pair@$$CB_KUgameInfo@@@std@@PEAX@0@AEBQEAU10@@Z ; std::forward<std::_Tree_node<std::pair<unsigned __int64 const ,gameInfo>,void *> * const &>
PUBLIC	??$addressof@PEAU?$_Tree_node@U?$pair@$$CB_KUgameInfo@@@std@@PEAX@std@@@std@@YAPEAPEAU?$_Tree_node@U?$pair@$$CB_KUgameInfo@@@std@@PEAX@0@AEAPEAU10@@Z ; std::addressof<std::_Tree_node<std::pair<unsigned __int64 const ,gameInfo>,void *> *>
PUBLIC	??$_Copy_memmove@PEAHPEAH@std@@YAPEAHPEAH00@Z	; std::_Copy_memmove<int *,int *>
PUBLIC	??$_Destroy_in_place@PEAU?$_Tree_node@U?$pair@$$CB_KUgameInfo@@@std@@PEAX@std@@@std@@YAXAEAPEAU?$_Tree_node@U?$pair@$$CB_KUgameInfo@@@std@@PEAX@0@@Z ; std::_Destroy_in_place<std::_Tree_node<std::pair<unsigned __int64 const ,gameInfo>,void *> *>
PUBLIC	??$destroy@U?$pair@$$CB_KUgameInfo@@@std@@@?$_Default_allocator_traits@V?$allocator@U?$_Tree_node@U?$pair@$$CB_KUgameInfo@@@std@@PEAX@std@@@std@@@std@@SAXAEAV?$allocator@U?$_Tree_node@U?$pair@$$CB_KUgameInfo@@@std@@PEAX@std@@@1@QEAU?$pair@$$CB_KUgameInfo@@@1@@Z ; std::_Default_allocator_traits<std::allocator<std::_Tree_node<std::pair<unsigned __int64 const ,gameInfo>,void *> > >::destroy<std::pair<unsigned __int64 const ,gameInfo> >
PUBLIC	??$addressof@U?$pair@$$CB_KUgameInfo@@@std@@@std@@YAPEAU?$pair@$$CB_KUgameInfo@@@0@AEAU10@@Z ; std::addressof<std::pair<unsigned __int64 const ,gameInfo> >
PUBLIC	??$generate_canonical@N$0?0V?$mersenne_twister_engine@_K$0EA@$0BDI@$0JM@$0BP@$0?EKPNJAKFFGJJOGBH@$0BN@$0FFFFFFFFFFFFFFFF@$0BB@$0HBNGHPPPONKGAAAA@$0CF@$0?IBBCAAAAAAAAA@$0CL@$0FIFBPECNEMJFHPCN@@std@@@std@@YANAEAV?$mersenne_twister_engine@_K$0EA@$0BDI@$0JM@$0BP@$0?EKPNJAKFFGJJOGBH@$0BN@$0FFFFFFFFFFFFFFFF@$0BB@$0HBNGHPPPONKGAAAA@$0CF@$0?IBBCAAAAAAAAA@$0CL@$0FIFBPECNEMJFHPCN@@0@@Z ; std::generate_canonical<double,-1,std::mersenne_twister_engine<unsigned __int64,64,312,156,31,-5403634167711393303,29,6148914691236517205,17,8202884508482404352,37,-2270628950310912,43,6364136223846793005> >
PUBLIC	??$max@_J@std@@YAAEB_JAEB_J0@Z			; std::max<__int64>
PUBLIC	??$?0AEAPEAV_Facet_base@std@@@?$_Compressed_pair@U?$default_delete@V_Facet_base@std@@@std@@PEAV_Facet_base@2@$00@std@@QEAA@U_Zero_then_variadic_args_t@1@AEAPEAV_Facet_base@1@@Z ; std::_Compressed_pair<std::default_delete<std::_Facet_base>,std::_Facet_base *,1>::_Compressed_pair<std::default_delete<std::_Facet_base>,std::_Facet_base *,1><std::_Facet_base * &>
PUBLIC	?_Refill_lower@?$mersenne_twister@_K$0EA@$0BDI@$0JM@$0BP@$0?EKPNJAKFFGJJOGBH@$0BN@$0BB@$0HBNGHPPPONKGAAAA@$0CF@$0?IBBCAAAAAAAAA@$0CL@@std@@IEAAXXZ ; std::mersenne_twister<unsigned __int64,64,312,156,31,-5403634167711393303,29,17,8202884508482404352,37,-2270628950310912,43>::_Refill_lower
PUBLIC	?_Refill_upper@?$mersenne_twister@_K$0EA@$0BDI@$0JM@$0BP@$0?EKPNJAKFFGJJOGBH@$0BN@$0BB@$0HBNGHPPPONKGAAAA@$0CF@$0?IBBCAAAAAAAAA@$0CL@@std@@IEAAXXZ ; std::mersenne_twister<unsigned __int64,64,312,156,31,-5403634167711393303,29,17,8202884508482404352,37,-2270628950310912,43>::_Refill_upper
PUBLIC	??0?$basic_string@DU?$char_traits@D@std@@V?$allocator@D@2@@std@@QEAA@AEBV?$allocator@D@1@@Z ; std::basic_string<char,std::char_traits<char>,std::allocator<char> >::basic_string<char,std::char_traits<char>,std::allocator<char> >
PUBLIC	??R?$mersenne_twister@_K$0EA@$0BDI@$0JM@$0BP@$0?EKPNJAKFFGJJOGBH@$0BN@$0BB@$0HBNGHPPPONKGAAAA@$0CF@$0?IBBCAAAAAAAAA@$0CL@@std@@QEAA_KXZ ; std::mersenne_twister<unsigned __int64,64,312,156,31,-5403634167711393303,29,17,8202884508482404352,37,-2270628950310912,43>::operator()
PUBLIC	?run@?$default_digits10_impl@M$00$0A@@internal@Eigen@@SAHXZ ; Eigen::internal::default_digits10_impl<float,1,0>::run
PUBLIC	?digits10@?$GenericNumTraits@M@Eigen@@SAHXZ	; Eigen::GenericNumTraits<float>::digits10
PUBLIC	??0?$basic_stringbuf@DU?$char_traits@D@std@@V?$allocator@D@2@@std@@QEAA@H@Z ; std::basic_stringbuf<char,std::char_traits<char>,std::allocator<char> >::basic_stringbuf<char,std::char_traits<char>,std::allocator<char> >
PUBLIC	?str@?$basic_stringbuf@DU?$char_traits@D@std@@V?$allocator@D@2@@std@@QEBA?AV?$basic_string@DU?$char_traits@D@std@@V?$allocator@D@2@@2@XZ ; std::basic_stringbuf<char,std::char_traits<char>,std::allocator<char> >::str
PUBLIC	?min@?$mersenne_twister_engine@_K$0EA@$0BDI@$0JM@$0BP@$0?EKPNJAKFFGJJOGBH@$0BN@$0FFFFFFFFFFFFFFFF@$0BB@$0HBNGHPPPONKGAAAA@$0CF@$0?IBBCAAAAAAAAA@$0CL@$0FIFBPECNEMJFHPCN@@std@@SA_KXZ ; std::mersenne_twister_engine<unsigned __int64,64,312,156,31,-5403634167711393303,29,6148914691236517205,17,8202884508482404352,37,-2270628950310912,43,6364136223846793005>::min
PUBLIC	?max@?$mersenne_twister_engine@_K$0EA@$0BDI@$0JM@$0BP@$0?EKPNJAKFFGJJOGBH@$0BN@$0FFFFFFFFFFFFFFFF@$0BB@$0HBNGHPPPONKGAAAA@$0CF@$0?IBBCAAAAAAAAA@$0CL@$0FIFBPECNEMJFHPCN@@std@@SA_KXZ ; std::mersenne_twister_engine<unsigned __int64,64,312,156,31,-5403634167711393303,29,6148914691236517205,17,8202884508482404352,37,-2270628950310912,43,6364136223846793005>::max
PUBLIC	?_Adjust@?$uniform_int@H@std@@CAIIU?$integral_constant@_N$00@2@@Z ; std::uniform_int<int>::_Adjust
PUBLIC	??R?$default_delete@VLayer@@@std@@QEBAXPEAVLayer@@@Z ; std::default_delete<Layer>::operator()
PUBLIC	?_Get_first@?$_Compressed_pair@U?$default_delete@VLayer@@@std@@PEAVLayer@@$00@std@@QEAAAEAU?$default_delete@VLayer@@@2@XZ ; std::_Compressed_pair<std::default_delete<Layer>,Layer *,1>::_Get_first
PUBLIC	?_Get_bits@?$_Rng_from_urng@IV?$mersenne_twister_engine@_K$0EA@$0BDI@$0JM@$0BP@$0?EKPNJAKFFGJJOGBH@$0BN@$0FFFFFFFFFFFFFFFF@$0BB@$0HBNGHPPPONKGAAAA@$0CF@$0?IBBCAAAAAAAAA@$0CL@$0FIFBPECNEMJFHPCN@@std@@@std@@AEAA_KXZ ; std::_Rng_from_urng<unsigned int,std::mersenne_twister_engine<unsigned __int64,64,312,156,31,-5403634167711393303,29,6148914691236517205,17,8202884508482404352,37,-2270628950310912,43,6364136223846793005> >::_Get_bits
PUBLIC	?erase@?$basic_string@DU?$char_traits@D@std@@V?$allocator@D@2@@std@@QEAAAEAV12@_K@Z ; std::basic_string<char,std::char_traits<char>,std::allocator<char> >::erase
PUBLIC	??0?$basic_stringstream@DU?$char_traits@D@std@@V?$allocator@D@2@@std@@QEAA@XZ ; std::basic_stringstream<char,std::char_traits<char>,std::allocator<char> >::basic_stringstream<char,std::char_traits<char>,std::allocator<char> >
PUBLIC	?str@?$basic_stringstream@DU?$char_traits@D@std@@V?$allocator@D@2@@std@@QEBA?AV?$basic_string@DU?$char_traits@D@std@@V?$allocator@D@2@@2@XZ ; std::basic_stringstream<char,std::char_traits<char>,std::allocator<char> >::str
PUBLIC	?coeff@?$PlainObjectBase@V?$Matrix@M$0?0$0?0$0A@$0?0$0?0@Eigen@@@Eigen@@QEBAAEBM_J0@Z ; Eigen::PlainObjectBase<Eigen::Matrix<float,-1,-1,0,-1,-1> >::coeff
PUBLIC	??0?$allocator@U?$_Tree_node@U?$pair@$$CB_KUgameInfo@@@std@@PEAX@std@@@std@@QEAA@XZ ; std::allocator<std::_Tree_node<std::pair<unsigned __int64 const ,gameInfo>,void *> >::allocator<std::_Tree_node<std::pair<unsigned __int64 const ,gameInfo>,void *> >
PUBLIC	?deallocate@?$_Default_allocator_traits@V?$allocator@U?$_Tree_node@U?$pair@$$CB_KUgameInfo@@@std@@PEAX@std@@@std@@@std@@SAXAEAV?$allocator@U?$_Tree_node@U?$pair@$$CB_KUgameInfo@@@std@@PEAX@std@@@2@QEAU?$_Tree_node@U?$pair@$$CB_KUgameInfo@@@std@@PEAX@2@_K@Z ; std::_Default_allocator_traits<std::allocator<std::_Tree_node<std::pair<unsigned __int64 const ,gameInfo>,void *> > >::deallocate
PUBLIC	??0?$_Tree_val@U?$_Tree_simple_types@U?$pair@$$CB_KUgameInfo@@@std@@@std@@@std@@QEAA@XZ ; std::_Tree_val<std::_Tree_simple_types<std::pair<unsigned __int64 const ,gameInfo> > >::_Tree_val<std::_Tree_simple_types<std::pair<unsigned __int64 const ,gameInfo> > >
PUBLIC	?_Adjust@?$uniform_int@H@std@@CAII@Z		; std::uniform_int<int>::_Adjust
PUBLIC	??1?$unique_ptr@VLayer@@U?$default_delete@VLayer@@@std@@@std@@QEAA@XZ ; std::unique_ptr<Layer,std::default_delete<Layer> >::~unique_ptr<Layer,std::default_delete<Layer> >
PUBLIC	?run@?$significant_decimals_impl@M@internal@Eigen@@SAHXZ ; Eigen::internal::significant_decimals_impl<float>::run
PUBLIC	??0?$_Rng_from_urng@IV?$mersenne_twister_engine@_K$0EA@$0BDI@$0JM@$0BP@$0?EKPNJAKFFGJJOGBH@$0BN@$0FFFFFFFFFFFFFFFF@$0BB@$0HBNGHPPPONKGAAAA@$0CF@$0?IBBCAAAAAAAAA@$0CL@$0FIFBPECNEMJFHPCN@@std@@@std@@QEAA@AEAV?$mersenne_twister_engine@_K$0EA@$0BDI@$0JM@$0BP@$0?EKPNJAKFFGJJOGBH@$0BN@$0FFFFFFFFFFFFFFFF@$0BB@$0HBNGHPPPONKGAAAA@$0CF@$0?IBBCAAAAAAAAA@$0CL@$0FIFBPECNEMJFHPCN@@1@@Z ; std::_Rng_from_urng<unsigned int,std::mersenne_twister_engine<unsigned __int64,64,312,156,31,-5403634167711393303,29,6148914691236517205,17,8202884508482404352,37,-2270628950310912,43,6364136223846793005> >::_Rng_from_urng<unsigned int,std::mersenne_twister_engine<unsigned __int64,64,312,156,31,-5403634167711393303,29,6148914691236517205,17,8202884508482404352,37,-2270628950310912,43,6364136223846793005> >
PUBLIC	??R?$_Rng_from_urng@IV?$mersenne_twister_engine@_K$0EA@$0BDI@$0JM@$0BP@$0?EKPNJAKFFGJJOGBH@$0BN@$0FFFFFFFFFFFFFFFF@$0BB@$0HBNGHPPPONKGAAAA@$0CF@$0?IBBCAAAAAAAAA@$0CL@$0FIFBPECNEMJFHPCN@@std@@@std@@QEAAII@Z ; std::_Rng_from_urng<unsigned int,std::mersenne_twister_engine<unsigned __int64,64,312,156,31,-5403634167711393303,29,6148914691236517205,17,8202884508482404352,37,-2270628950310912,43,6364136223846793005> >::operator()
PUBLIC	?_Get_all_bits@?$_Rng_from_urng@IV?$mersenne_twister_engine@_K$0EA@$0BDI@$0JM@$0BP@$0?EKPNJAKFFGJJOGBH@$0BN@$0FFFFFFFFFFFFFFFF@$0BB@$0HBNGHPPPONKGAAAA@$0CF@$0?IBBCAAAAAAAAA@$0CL@$0FIFBPECNEMJFHPCN@@std@@@std@@QEAA_KXZ ; std::_Rng_from_urng<unsigned int,std::mersenne_twister_engine<unsigned __int64,64,312,156,31,-5403634167711393303,29,6148914691236517205,17,8202884508482404352,37,-2270628950310912,43,6364136223846793005> >::_Get_all_bits
PUBLIC	??0?$_Uninitialized_backout_al@V?$allocator@UGame@uci@@@std@@@std@@QEAA@PEAUGame@uci@@AEAV?$allocator@UGame@uci@@@1@@Z ; std::_Uninitialized_backout_al<std::allocator<uci::Game> >::_Uninitialized_backout_al<std::allocator<uci::Game> >
PUBLIC	??1?$_Uninitialized_backout_al@V?$allocator@UGame@uci@@@std@@@std@@QEAA@XZ ; std::_Uninitialized_backout_al<std::allocator<uci::Game> >::~_Uninitialized_backout_al<std::allocator<uci::Game> >
PUBLIC	?_Release@?$_Uninitialized_backout_al@V?$allocator@UGame@uci@@@std@@@std@@QEAAPEAUGame@uci@@XZ ; std::_Uninitialized_backout_al<std::allocator<uci::Game> >::_Release
PUBLIC	?__autoclassinit2@?$_Uninitialized_backout_al@V?$allocator@UGame@uci@@@std@@@std@@QEAAX_K@Z ; std::_Uninitialized_backout_al<std::allocator<uci::Game> >::__autoclassinit2
PUBLIC	??_G?$Matrix@M$0?0$0?0$0A@$0?0$0?0@Eigen@@QEAAPEAXI@Z ; Eigen::Matrix<float,-1,-1,0,-1,-1>::`scalar deleting destructor'
PUBLIC	??_G?$unique_ptr@VLayer@@U?$default_delete@VLayer@@@std@@@std@@QEAAPEAXI@Z ; std::unique_ptr<Layer,std::default_delete<Layer> >::`scalar deleting destructor'
PUBLIC	??_GGame@uci@@QEAAPEAXI@Z			; uci::Game::`scalar deleting destructor'
PUBLIC	??$move@AEAPEAM@std@@YA$$QEAPEAMAEAPEAM@Z	; std::move<float * &>
PUBLIC	??$move@AEAV?$DenseStorage@M$0?0$0?0$0?0$0A@@Eigen@@@std@@YA$$QEAV?$DenseStorage@M$0?0$0?0$0?0$0A@@Eigen@@AEAV12@@Z ; std::move<Eigen::DenseStorage<float,-1,-1,-1,0> &>
PUBLIC	??$_Get_size_of_n@$03@std@@YA_K_K@Z		; std::_Get_size_of_n<4>
PUBLIC	??$_Get_unwrapped@AEBQEAH@std@@YAPEAHAEBQEAH@Z	; std::_Get_unwrapped<int * const &>
PUBLIC	??$_Uninitialized_move@PEAHV?$allocator@H@std@@@std@@YAPEAHQEAH0PEAHAEAV?$allocator@H@0@@Z ; std::_Uninitialized_move<int *,std::allocator<int> >
PUBLIC	??$_Get_size_of_n@$0DI@@std@@YA_K_K@Z		; std::_Get_size_of_n<56>
PUBLIC	??$_Get_unwrapped@AEBQEAUGame@uci@@@std@@YAPEAUGame@uci@@AEBQEAU12@@Z ; std::_Get_unwrapped<uci::Game * const &>
PUBLIC	??$_Uninitialized_move@PEAUGame@uci@@V?$allocator@UGame@uci@@@std@@@std@@YAPEAUGame@uci@@QEAU12@0PEAU12@AEAV?$allocator@UGame@uci@@@0@@Z ; std::_Uninitialized_move<uci::Game *,std::allocator<uci::Game> >
PUBLIC	??$exchange@PEAV_Facet_base@std@@PEAV12@@std@@YAPEAV_Facet_base@0@AEAPEAV10@$$QEAPEAV10@@Z ; std::exchange<std::_Facet_base *,std::_Facet_base *>
PUBLIC	??$_Emplace_back@V?$Matrix@M$0?0$0?0$0A@$0?0$0?0@Eigen@@@?$_Uninitialized_backout_al@V?$allocator@V?$Matrix@M$0?0$0?0$0A@$0?0$0?0@Eigen@@@std@@@std@@QEAAX$$QEAV?$Matrix@M$0?0$0?0$0A@$0?0$0?0@Eigen@@@Z ; std::_Uninitialized_backout_al<std::allocator<Eigen::Matrix<float,-1,-1,0,-1,-1> > >::_Emplace_back<Eigen::Matrix<float,-1,-1,0,-1,-1> >
PUBLIC	??$destroy@V?$Matrix@M$0?0$0?0$0A@$0?0$0?0@Eigen@@@?$_Default_allocator_traits@V?$allocator@V?$Matrix@M$0?0$0?0$0A@$0?0$0?0@Eigen@@@std@@@std@@SAXAEAV?$allocator@V?$Matrix@M$0?0$0?0$0A@$0?0$0?0@Eigen@@@1@QEAV?$Matrix@M$0?0$0?0$0A@$0?0$0?0@Eigen@@@Z ; std::_Default_allocator_traits<std::allocator<Eigen::Matrix<float,-1,-1,0,-1,-1> > >::destroy<Eigen::Matrix<float,-1,-1,0,-1,-1> >
PUBLIC	??$destroy@V?$unique_ptr@VLayer@@U?$default_delete@VLayer@@@std@@@std@@@?$_Default_allocator_traits@V?$allocator@V?$unique_ptr@VLayer@@U?$default_delete@VLayer@@@std@@@std@@@std@@@std@@SAXAEAV?$allocator@V?$unique_ptr@VLayer@@U?$default_delete@VLayer@@@std@@@std@@@1@QEAV?$unique_ptr@VLayer@@U?$default_delete@VLayer@@@std@@@1@@Z ; std::_Default_allocator_traits<std::allocator<std::unique_ptr<Layer,std::default_delete<Layer> > > >::destroy<std::unique_ptr<Layer,std::default_delete<Layer> > >
PUBLIC	??$_Unfancy@V?$unique_ptr@VLayer@@U?$default_delete@VLayer@@@std@@@std@@@std@@YAPEAV?$unique_ptr@VLayer@@U?$default_delete@VLayer@@@std@@@0@PEAV10@@Z ; std::_Unfancy<std::unique_ptr<Layer,std::default_delete<Layer> > >
PUBLIC	??$_Construct_in_place@PEAU?$_Tree_node@U?$pair@$$CB_KUgameInfo@@@std@@PEAX@std@@AEBQEAU12@@std@@YAXAEAPEAU?$_Tree_node@U?$pair@$$CB_KUgameInfo@@@std@@PEAX@0@AEBQEAU10@@Z ; std::_Construct_in_place<std::_Tree_node<std::pair<unsigned __int64 const ,gameInfo>,void *> *,std::_Tree_node<std::pair<unsigned __int64 const ,gameInfo>,void *> * const &>
PUBLIC	??$destroy@UGame@uci@@@?$_Default_allocator_traits@V?$allocator@UGame@uci@@@std@@@std@@SAXAEAV?$allocator@UGame@uci@@@1@QEAUGame@uci@@@Z ; std::_Default_allocator_traits<std::allocator<uci::Game> >::destroy<uci::Game>
PUBLIC	??$forward@AEBV?$allocator@D@std@@@std@@YAAEBV?$allocator@D@0@AEBV10@@Z ; std::forward<std::allocator<char> const &>
PUBLIC	??$forward@AEBQEAD@std@@YAAEBQEADAEBQEAD@Z	; std::forward<char * const &>
PUBLIC	??$addressof@PEAD@std@@YAPEAPEADAEAPEAD@Z	; std::addressof<char *>
PUBLIC	??$construct_elements_of_array@M@internal@Eigen@@YAPEAMPEAM_K@Z ; Eigen::internal::construct_elements_of_array<float>
PUBLIC	??$conditional_aligned_malloc@$00@internal@Eigen@@YAPEAX_K@Z ; Eigen::internal::conditional_aligned_malloc<1>
PUBLIC	??$check_size_for_overflow@M@internal@Eigen@@YAX_K@Z ; Eigen::internal::check_size_for_overflow<float>
PUBLIC	??$forward@U_Zero_then_variadic_args_t@std@@@std@@YA$$QEAU_Zero_then_variadic_args_t@0@AEAU10@@Z ; std::forward<std::_Zero_then_variadic_args_t>
PUBLIC	??$forward@AEBU?$less@_K@std@@@std@@YAAEBU?$less@_K@0@AEBU10@@Z ; std::forward<std::less<unsigned __int64> const &>
PUBLIC	??$move@AEAV?$allocator@H@std@@@std@@YA$$QEAV?$allocator@H@0@AEAV10@@Z ; std::move<std::allocator<int> &>
PUBLIC	??$forward@V?$allocator@D@std@@@std@@YA$$QEAV?$allocator@D@0@AEAV10@@Z ; std::forward<std::allocator<char> >
PUBLIC	??$conditional_aligned_free@$00@internal@Eigen@@YAXPEAX@Z ; Eigen::internal::conditional_aligned_free<1>
PUBLIC	??$destruct_elements_of_array@M@internal@Eigen@@YAXPEAM_K@Z ; Eigen::internal::destruct_elements_of_array<float>
PUBLIC	??$_Freenode0@V?$allocator@U?$_Tree_node@U?$pair@$$CB_KUgameInfo@@@std@@PEAX@std@@@std@@@?$_Tree_node@U?$pair@$$CB_KUgameInfo@@@std@@PEAX@std@@SAXAEAV?$allocator@U?$_Tree_node@U?$pair@$$CB_KUgameInfo@@@std@@PEAX@std@@@1@PEAU01@@Z ; std::_Tree_node<std::pair<unsigned __int64 const ,gameInfo>,void *>::_Freenode0<std::allocator<std::_Tree_node<std::pair<unsigned __int64 const ,gameInfo>,void *> > >
PUBLIC	??$_Freenode@V?$allocator@U?$_Tree_node@U?$pair@$$CB_KUgameInfo@@@std@@PEAX@std@@@std@@@?$_Tree_node@U?$pair@$$CB_KUgameInfo@@@std@@PEAX@std@@SAXAEAV?$allocator@U?$_Tree_node@U?$pair@$$CB_KUgameInfo@@@std@@PEAX@std@@@1@PEAU01@@Z ; std::_Tree_node<std::pair<unsigned __int64 const ,gameInfo>,void *>::_Freenode<std::allocator<std::_Tree_node<std::pair<unsigned __int64 const ,gameInfo>,void *> > >
PUBLIC	??$exchange@PEAU?$_Tree_node@U?$pair@$$CB_KUgameInfo@@@std@@PEAX@std@@AEAPEAU12@@std@@YAPEAU?$_Tree_node@U?$pair@$$CB_KUgameInfo@@@std@@PEAX@0@AEAPEAU10@0@Z ; std::exchange<std::_Tree_node<std::pair<unsigned __int64 const ,gameInfo>,void *> *,std::_Tree_node<std::pair<unsigned __int64 const ,gameInfo>,void *> * &>
PUBLIC	??$_init2@HH@?$PlainObjectBase@V?$Matrix@M$0?0$0?0$0A@$0?0$0?0@Eigen@@@Eigen@@IEAAX_J0PEAH@Z ; Eigen::PlainObjectBase<Eigen::Matrix<float,-1,-1,0,-1,-1> >::_init2<int,int>
PUBLIC	??$_Eval@V?$mersenne_twister_engine@_K$0EA@$0BDI@$0JM@$0BP@$0?EKPNJAKFFGJJOGBH@$0BN@$0FFFFFFFFFFFFFFFF@$0BB@$0HBNGHPPPONKGAAAA@$0CF@$0?IBBCAAAAAAAAA@$0CL@$0FIFBPECNEMJFHPCN@@std@@@?$uniform_int@H@std@@AEBAHAEAV?$mersenne_twister_engine@_K$0EA@$0BDI@$0JM@$0BP@$0?EKPNJAKFFGJJOGBH@$0BN@$0FFFFFFFFFFFFFFFF@$0BB@$0HBNGHPPPONKGAAAA@$0CF@$0?IBBCAAAAAAAAA@$0CL@$0FIFBPECNEMJFHPCN@@1@HH@Z ; std::uniform_int<int>::_Eval<std::mersenne_twister_engine<unsigned __int64,64,312,156,31,-5403634167711393303,29,6148914691236517205,17,8202884508482404352,37,-2270628950310912,43,6364136223846793005> >
PUBLIC	??$_Eval@V?$mersenne_twister_engine@_K$0EA@$0BDI@$0JM@$0BP@$0?EKPNJAKFFGJJOGBH@$0BN@$0FFFFFFFFFFFFFFFF@$0BB@$0HBNGHPPPONKGAAAA@$0CF@$0?IBBCAAAAAAAAA@$0CL@$0FIFBPECNEMJFHPCN@@std@@@?$uniform_real@N@std@@AEBANAEAV?$mersenne_twister_engine@_K$0EA@$0BDI@$0JM@$0BP@$0?EKPNJAKFFGJJOGBH@$0BN@$0FFFFFFFFFFFFFFFF@$0BB@$0HBNGHPPPONKGAAAA@$0CF@$0?IBBCAAAAAAAAA@$0CL@$0FIFBPECNEMJFHPCN@@1@AEBUparam_type@01@@Z ; std::uniform_real<double>::_Eval<std::mersenne_twister_engine<unsigned __int64,64,312,156,31,-5403634167711393303,29,6148914691236517205,17,8202884508482404352,37,-2270628950310912,43,6364136223846793005> >
PUBLIC	??$getline@DU?$char_traits@D@std@@V?$allocator@D@2@@std@@YAAEAV?$basic_istream@DU?$char_traits@D@std@@@0@$$QEAV10@AEAV?$basic_string@DU?$char_traits@D@std@@V?$allocator@D@2@@0@D@Z ; std::getline<char,std::char_traits<char>,std::allocator<char> >
PUBLIC	??$move@AEAV?$basic_istream@DU?$char_traits@D@std@@@std@@@std@@YA$$QEAV?$basic_istream@DU?$char_traits@D@std@@@0@AEAV10@@Z ; std::move<std::basic_istream<char,std::char_traits<char> > &>
PUBLIC	??$?G_JU?$ratio@$00$0DLJKMKAA@@std@@_JU01@@chrono@std@@YA?AV?$duration@_JU?$ratio@$00$0DLJKMKAA@@std@@@01@AEBV201@0@Z ; std::chrono::operator-<__int64,std::ratio<1,1000000000>,__int64,std::ratio<1,1000000000> >
PUBLIC	??$print_matrix@V?$Matrix@M$0?0$0?0$0A@$0?0$0?0@Eigen@@@internal@Eigen@@YAAEAV?$basic_ostream@DU?$char_traits@D@std@@@std@@AEAV23@AEBV?$Matrix@M$0?0$0?0$0A@$0?0$0?0@1@AEBUIOFormat@1@@Z ; Eigen::internal::print_matrix<Eigen::Matrix<float,-1,-1,0,-1,-1> >
PUBLIC	??$_Insert_string@DU?$char_traits@D@std@@_K@std@@YAAEAV?$basic_ostream@DU?$char_traits@D@std@@@0@AEAV10@QEBD_K@Z ; std::_Insert_string<char,std::char_traits<char>,unsigned __int64>
PUBLIC	??$move@AEA_J@std@@YA$$QEA_JAEA_J@Z		; std::move<__int64 &>
PUBLIC	??$?0U?$default_delete@V_Facet_base@std@@@std@@$0A@@?$unique_ptr@V_Facet_base@std@@U?$default_delete@V_Facet_base@std@@@2@@std@@QEAA@PEAV_Facet_base@1@@Z ; std::unique_ptr<std::_Facet_base,std::default_delete<std::_Facet_base> >::unique_ptr<std::_Facet_base,std::default_delete<std::_Facet_base> ><std::default_delete<std::_Facet_base>,0>
PUBLIC	??$?0$$V@?$_Compressed_pair@V?$allocator@U?$_Tree_node@U?$pair@$$CB_KUgameInfo@@@std@@PEAX@std@@@std@@V?$_Tree_val@U?$_Tree_simple_types@U?$pair@$$CB_KUgameInfo@@@std@@@std@@@2@$00@std@@QEAA@U_Zero_then_variadic_args_t@1@@Z ; std::_Compressed_pair<std::allocator<std::_Tree_node<std::pair<unsigned __int64 const ,gameInfo>,void *> >,std::_Tree_val<std::_Tree_simple_types<std::pair<unsigned __int64 const ,gameInfo> > >,1>::_Compressed_pair<std::allocator<std::_Tree_node<std::pair<unsigned __int64 const ,gameInfo>,void *> >,std::_Tree_val<std::_Tree_simple_types<std::pair<unsigned __int64 const ,gameInfo> > >,1><>
PUBLIC	?value@?$variable_if_dynamic@_J$0?0@internal@Eigen@@QEBA_JXZ ; Eigen::internal::variable_if_dynamic<__int64,-1>::value
PUBLIC	??0?$DenseStorage@M$0?0$0?0$0?0$0A@@Eigen@@QEAA@$$QEAV01@@Z ; Eigen::DenseStorage<float,-1,-1,-1,0>::DenseStorage<float,-1,-1,-1,0>
PUBLIC	?innerStride@?$Matrix@M$0?0$0?0$0A@$0?0$0?0@Eigen@@QEBA_JXZ ; Eigen::Matrix<float,-1,-1,0,-1,-1>::innerStride
PUBLIC	?derived@?$EigenBase@V?$Reshaped@V?$Matrix@M$0?0$0?0$0A@$0?0$0?0@Eigen@@$0?0$00$0A@@Eigen@@@Eigen@@QEBAAEBV?$Reshaped@V?$Matrix@M$0?0$0?0$0A@$0?0$0?0@Eigen@@$0?0$00$0A@@2@XZ ; Eigen::EigenBase<Eigen::Reshaped<Eigen::Matrix<float,-1,-1,0,-1,-1>,-1,1,0> >::derived
PUBLIC	?rows@?$MapBase@V?$Reshaped@V?$Matrix@M$0?0$0?0$0A@$0?0$0?0@Eigen@@$0?0$00$0A@@Eigen@@$0A@@Eigen@@QEBA_JXZ ; Eigen::MapBase<Eigen::Reshaped<Eigen::Matrix<float,-1,-1,0,-1,-1>,-1,1,0>,0>::rows
PUBLIC	?cols@?$MapBase@V?$Reshaped@V?$Matrix@M$0?0$0?0$0A@$0?0$0?0@Eigen@@$0?0$00$0A@@Eigen@@$0A@@Eigen@@QEBA_JXZ ; Eigen::MapBase<Eigen::Reshaped<Eigen::Matrix<float,-1,-1,0,-1,-1>,-1,1,0>,0>::cols
PUBLIC	?_Get_first@?$_Compressed_pair@V?$allocator@UGame@uci@@@std@@V?$_Vector_val@U?$_Simple_types@UGame@uci@@@std@@@2@$00@std@@QEBAAEBV?$allocator@UGame@uci@@@2@XZ ; std::_Compressed_pair<std::allocator<uci::Game>,std::_Vector_val<std::_Simple_types<uci::Game> >,1>::_Get_first
PUBLIC	??0_Bxty@?$_String_val@U?$_Simple_types@D@std@@@std@@QEAA@XZ ; std::_String_val<std::_Simple_types<char> >::_Bxty::_Bxty
PUBLIC	?_Calculate_growth@?$basic_string@DU?$char_traits@D@std@@V?$allocator@D@2@@std@@CA_K_K00@Z ; std::basic_string<char,std::char_traits<char>,std::allocator<char> >::_Calculate_growth
PUBLIC	??0?$PlainObjectBase@V?$Matrix@M$0?0$0?0$0A@$0?0$0?0@Eigen@@@Eigen@@IEAA@$$QEAV01@@Z ; Eigen::PlainObjectBase<Eigen::Matrix<float,-1,-1,0,-1,-1> >::PlainObjectBase<Eigen::Matrix<float,-1,-1,0,-1,-1> >
PUBLIC	?rows@?$EigenBase@V?$Reshaped@V?$Matrix@M$0?0$0?0$0A@$0?0$0?0@Eigen@@$0?0$00$0A@@Eigen@@@Eigen@@QEBA_JXZ ; Eigen::EigenBase<Eigen::Reshaped<Eigen::Matrix<float,-1,-1,0,-1,-1>,-1,1,0> >::rows
PUBLIC	?cols@?$EigenBase@V?$Reshaped@V?$Matrix@M$0?0$0?0$0A@$0?0$0?0@Eigen@@$0?0$00$0A@@Eigen@@@Eigen@@QEBA_JXZ ; Eigen::EigenBase<Eigen::Reshaped<Eigen::Matrix<float,-1,-1,0,-1,-1>,-1,1,0> >::cols
PUBLIC	?data@?$MapBase@V?$Reshaped@V?$Matrix@M$0?0$0?0$0A@$0?0$0?0@Eigen@@$0?0$00$0A@@Eigen@@$00@Eigen@@QEAAPEAMXZ ; Eigen::MapBase<Eigen::Reshaped<Eigen::Matrix<float,-1,-1,0,-1,-1>,-1,1,0>,1>::data
PUBLIC	?innerStride@?$ReshapedImpl_dense@V?$Matrix@M$0?0$0?0$0A@$0?0$0?0@Eigen@@$0?0$00$0A@$00@internal@Eigen@@QEBA_JXZ ; Eigen::internal::ReshapedImpl_dense<Eigen::Matrix<float,-1,-1,0,-1,-1>,-1,1,0,1>::innerStride
PUBLIC	?max_size@?$_Default_allocator_traits@V?$allocator@H@std@@@std@@SA_KAEBV?$allocator@H@2@@Z ; std::_Default_allocator_traits<std::allocator<int> >::max_size
PUBLIC	?capacity@?$vector@HV?$allocator@H@std@@@std@@QEBA_KXZ ; std::vector<int,std::allocator<int> >::capacity
PUBLIC	?_Umove_if_noexcept1@?$vector@HV?$allocator@H@std@@@std@@AEAAXPEAH00U?$integral_constant@_N$00@2@@Z ; std::vector<int,std::allocator<int> >::_Umove_if_noexcept1
PUBLIC	?max_size@?$_Default_allocator_traits@V?$allocator@UGame@uci@@@std@@@std@@SA_KAEBV?$allocator@UGame@uci@@@2@@Z ; std::_Default_allocator_traits<std::allocator<uci::Game> >::max_size
PUBLIC	?capacity@?$vector@UGame@uci@@V?$allocator@UGame@uci@@@std@@@std@@QEBA_KXZ ; std::vector<uci::Game,std::allocator<uci::Game> >::capacity
PUBLIC	?_Umove_if_noexcept1@?$vector@UGame@uci@@V?$allocator@UGame@uci@@@std@@@std@@AEAAXPEAUGame@uci@@00U?$integral_constant@_N$00@2@@Z ; std::vector<uci::Game,std::allocator<uci::Game> >::_Umove_if_noexcept1
PUBLIC	?_Getal@?$vector@UGame@uci@@V?$allocator@UGame@uci@@@std@@@std@@AEBAAEBV?$allocator@UGame@uci@@@2@XZ ; std::vector<uci::Game,std::allocator<uci::Game> >::_Getal
PUBLIC	??R?$default_delete@V_Facet_base@std@@@std@@QEBAXPEAV_Facet_base@1@@Z ; std::default_delete<std::_Facet_base>::operator()
PUBLIC	?_Get_first@?$_Compressed_pair@U?$default_delete@V_Facet_base@std@@@std@@PEAV_Facet_base@2@$00@std@@QEAAAEAU?$default_delete@V_Facet_base@std@@@2@XZ ; std::_Compressed_pair<std::default_delete<std::_Facet_base>,std::_Facet_base *,1>::_Get_first
PUBLIC	??0?$allocator@D@std@@QEAA@XZ			; std::allocator<char>::allocator<char>
PUBLIC	?compare@?$_Narrow_char_traits@DH@std@@SAHQEBD0_K@Z ; std::_Narrow_char_traits<char,int>::compare
PUBLIC	?find@?$_Narrow_char_traits@DH@std@@SAPEBDQEBD_KAEBD@Z ; std::_Narrow_char_traits<char,int>::find
PUBLIC	??0?$_String_val@U?$_Simple_types@D@std@@@std@@QEAA@XZ ; std::_String_val<std::_Simple_types<char> >::_String_val<std::_Simple_types<char> >
PUBLIC	?data@?$basic_string@DU?$char_traits@D@std@@V?$allocator@D@2@@std@@QEBAPEBDXZ ; std::basic_string<char,std::char_traits<char>,std::allocator<char> >::data
PUBLIC	?_Calculate_growth@?$basic_string@DU?$char_traits@D@std@@V?$allocator@D@2@@std@@AEBA_K_K@Z ; std::basic_string<char,std::char_traits<char>,std::allocator<char> >::_Calculate_growth
PUBLIC	?time_since_epoch@?$time_point@Usteady_clock@chrono@std@@V?$duration@_JU?$ratio@$00$0DLJKMKAA@@std@@@23@@chrono@std@@QEBA?AV?$duration@_JU?$ratio@$00$0DLJKMKAA@@std@@@23@XZ ; std::chrono::time_point<std::chrono::steady_clock,std::chrono::duration<__int64,std::ratio<1,1000000000> > >::time_since_epoch
PUBLIC	?eval@?$DenseBase@V?$Matrix@M$0?0$0?0$0A@$0?0$0?0@Eigen@@@Eigen@@QEBAAEBV?$Matrix@M$0?0$0?0$0A@$0?0$0?0@2@XZ ; Eigen::DenseBase<Eigen::Matrix<float,-1,-1,0,-1,-1> >::eval
PUBLIC	??0?$Matrix@M$0?0$0?0$0A@$0?0$0?0@Eigen@@QEAA@$$QEAV01@@Z ; Eigen::Matrix<float,-1,-1,0,-1,-1>::Matrix<float,-1,-1,0,-1,-1>
PUBLIC	?derived@?$EigenBase@V?$Reshaped@V?$Matrix@M$0?0$0?0$0A@$0?0$0?0@Eigen@@$0?0$00$0A@@Eigen@@@Eigen@@QEAAAEAV?$Reshaped@V?$Matrix@M$0?0$0?0$0A@$0?0$0?0@Eigen@@$0?0$00$0A@@2@XZ ; Eigen::EigenBase<Eigen::Reshaped<Eigen::Matrix<float,-1,-1,0,-1,-1>,-1,1,0> >::derived
PUBLIC	?size@?$EigenBase@V?$Reshaped@V?$Matrix@M$0?0$0?0$0A@$0?0$0?0@Eigen@@$0?0$00$0A@@Eigen@@@Eigen@@QEBA_JXZ ; Eigen::EigenBase<Eigen::Reshaped<Eigen::Matrix<float,-1,-1,0,-1,-1>,-1,1,0> >::size
PUBLIC	??0?$pointer_based_stl_iterator@V?$Reshaped@V?$Matrix@M$0?0$0?0$0A@$0?0$0?0@Eigen@@$0?0$00$0A@@Eigen@@@internal@Eigen@@QEAA@AEAV?$Reshaped@V?$Matrix@M$0?0$0?0$0A@$0?0$0?0@Eigen@@$0?0$00$0A@@2@_J@Z ; Eigen::internal::pointer_based_stl_iterator<Eigen::Reshaped<Eigen::Matrix<float,-1,-1,0,-1,-1>,-1,1,0> >::pointer_based_stl_iterator<Eigen::Reshaped<Eigen::Matrix<float,-1,-1,0,-1,-1>,-1,1,0> >
PUBLIC	??0?$allocator@V?$Matrix@M$0?0$0?0$0A@$0?0$0?0@Eigen@@@std@@QEAA@XZ ; std::allocator<Eigen::Matrix<float,-1,-1,0,-1,-1> >::allocator<Eigen::Matrix<float,-1,-1,0,-1,-1> >
PUBLIC	?_Umove@?$vector@V?$Matrix@M$0?0$0?0$0A@$0?0$0?0@Eigen@@V?$allocator@V?$Matrix@M$0?0$0?0$0A@$0?0$0?0@Eigen@@@std@@@std@@AEAAPEAV?$Matrix@M$0?0$0?0$0A@$0?0$0?0@Eigen@@PEAV34@00@Z ; std::vector<Eigen::Matrix<float,-1,-1,0,-1,-1>,std::allocator<Eigen::Matrix<float,-1,-1,0,-1,-1> > >::_Umove
PUBLIC	?_Calculate_growth@?$vector@V?$Matrix@M$0?0$0?0$0A@$0?0$0?0@Eigen@@V?$allocator@V?$Matrix@M$0?0$0?0$0A@$0?0$0?0@Eigen@@@std@@@std@@AEBA_K_K@Z ; std::vector<Eigen::Matrix<float,-1,-1,0,-1,-1>,std::allocator<Eigen::Matrix<float,-1,-1,0,-1,-1> > >::_Calculate_growth
PUBLIC	??0?$_Vector_val@U?$_Simple_types@V?$Matrix@M$0?0$0?0$0A@$0?0$0?0@Eigen@@@std@@@std@@QEAA@XZ ; std::_Vector_val<std::_Simple_types<Eigen::Matrix<float,-1,-1,0,-1,-1> > >::_Vector_val<std::_Simple_types<Eigen::Matrix<float,-1,-1,0,-1,-1> > >
PUBLIC	?allocate@?$allocator@U?$_Tree_node@U?$pair@$$CB_KUgameInfo@@@std@@PEAX@std@@@std@@QEAAPEAU?$_Tree_node@U?$pair@$$CB_KUgameInfo@@@std@@PEAX@2@_K@Z ; std::allocator<std::_Tree_node<std::pair<unsigned __int64 const ,gameInfo>,void *> >::allocate
PUBLIC	?begin@?$initializer_list@H@std@@QEBAPEBHXZ	; std::initializer_list<int>::begin
PUBLIC	?end@?$initializer_list@H@std@@QEBAPEBHXZ	; std::initializer_list<int>::end
PUBLIC	??0?$allocator@H@std@@QEAA@XZ			; std::allocator<int>::allocator<int>
PUBLIC	?allocate@?$allocator@H@std@@QEAAPEAH_K@Z	; std::allocator<int>::allocate
PUBLIC	?max_size@?$vector@HV?$allocator@H@std@@@std@@QEBA_KXZ ; std::vector<int,std::allocator<int> >::max_size
PUBLIC	?_Umove@?$vector@HV?$allocator@H@std@@@std@@AEAAPEAHPEAH00@Z ; std::vector<int,std::allocator<int> >::_Umove
PUBLIC	?_Umove_if_noexcept@?$vector@HV?$allocator@H@std@@@std@@AEAAXPEAH00@Z ; std::vector<int,std::allocator<int> >::_Umove_if_noexcept
PUBLIC	?_Calculate_growth@?$vector@HV?$allocator@H@std@@@std@@AEBA_K_K@Z ; std::vector<int,std::allocator<int> >::_Calculate_growth
PUBLIC	?_Change_array@?$vector@HV?$allocator@H@std@@@std@@AEAAXQEAH_K1@Z ; std::vector<int,std::allocator<int> >::_Change_array
PUBLIC	?_Xlength@?$vector@HV?$allocator@H@std@@@std@@CAXXZ ; std::vector<int,std::allocator<int> >::_Xlength
PUBLIC	??0?$_Vector_val@U?$_Simple_types@H@std@@@std@@QEAA@XZ ; std::_Vector_val<std::_Simple_types<int> >::_Vector_val<std::_Simple_types<int> >
PUBLIC	??0?$allocator@UGame@uci@@@std@@QEAA@XZ		; std::allocator<uci::Game>::allocator<uci::Game>
PUBLIC	?allocate@?$allocator@UGame@uci@@@std@@QEAAPEAUGame@uci@@_K@Z ; std::allocator<uci::Game>::allocate
PUBLIC	?max_size@?$vector@UGame@uci@@V?$allocator@UGame@uci@@@std@@@std@@QEBA_KXZ ; std::vector<uci::Game,std::allocator<uci::Game> >::max_size
PUBLIC	?_Umove@?$vector@UGame@uci@@V?$allocator@UGame@uci@@@std@@@std@@AEAAPEAUGame@uci@@PEAU34@00@Z ; std::vector<uci::Game,std::allocator<uci::Game> >::_Umove
PUBLIC	?_Umove_if_noexcept@?$vector@UGame@uci@@V?$allocator@UGame@uci@@@std@@@std@@AEAAXPEAUGame@uci@@00@Z ; std::vector<uci::Game,std::allocator<uci::Game> >::_Umove_if_noexcept
PUBLIC	?_Calculate_growth@?$vector@UGame@uci@@V?$allocator@UGame@uci@@@std@@@std@@AEBA_K_K@Z ; std::vector<uci::Game,std::allocator<uci::Game> >::_Calculate_growth
PUBLIC	?_Change_array@?$vector@UGame@uci@@V?$allocator@UGame@uci@@@std@@@std@@AEAAXQEAUGame@uci@@_K1@Z ; std::vector<uci::Game,std::allocator<uci::Game> >::_Change_array
PUBLIC	?_Xlength@?$vector@UGame@uci@@V?$allocator@UGame@uci@@@std@@@std@@CAXXZ ; std::vector<uci::Game,std::allocator<uci::Game> >::_Xlength
PUBLIC	??0?$_Vector_val@U?$_Simple_types@UGame@uci@@@std@@@std@@QEAA@XZ ; std::_Vector_val<std::_Simple_types<uci::Game> >::_Vector_val<std::_Simple_types<uci::Game> >
PUBLIC	??1?$unique_ptr@V_Facet_base@std@@U?$default_delete@V_Facet_base@std@@@2@@std@@QEAA@XZ ; std::unique_ptr<std::_Facet_base,std::default_delete<std::_Facet_base> >::~unique_ptr<std::_Facet_base,std::default_delete<std::_Facet_base> >
PUBLIC	?release@?$unique_ptr@V_Facet_base@std@@U?$default_delete@V_Facet_base@std@@@2@@std@@QEAAPEAV_Facet_base@2@XZ ; std::unique_ptr<std::_Facet_base,std::default_delete<std::_Facet_base> >::release
PUBLIC	?run@?$smart_copy_helper@M$00@internal@Eigen@@SAXPEBM0PEAM@Z ; Eigen::internal::smart_copy_helper<float,1>::run
PUBLIC	??0?$_Uninitialized_backout_al@V?$allocator@V?$Matrix@M$0?0$0?0$0A@$0?0$0?0@Eigen@@@std@@@std@@QEAA@PEAV?$Matrix@M$0?0$0?0$0A@$0?0$0?0@Eigen@@AEAV?$allocator@V?$Matrix@M$0?0$0?0$0A@$0?0$0?0@Eigen@@@1@@Z ; std::_Uninitialized_backout_al<std::allocator<Eigen::Matrix<float,-1,-1,0,-1,-1> > >::_Uninitialized_backout_al<std::allocator<Eigen::Matrix<float,-1,-1,0,-1,-1> > >
PUBLIC	??1?$_Uninitialized_backout_al@V?$allocator@V?$Matrix@M$0?0$0?0$0A@$0?0$0?0@Eigen@@@std@@@std@@QEAA@XZ ; std::_Uninitialized_backout_al<std::allocator<Eigen::Matrix<float,-1,-1,0,-1,-1> > >::~_Uninitialized_backout_al<std::allocator<Eigen::Matrix<float,-1,-1,0,-1,-1> > >
PUBLIC	?_Release@?$_Uninitialized_backout_al@V?$allocator@V?$Matrix@M$0?0$0?0$0A@$0?0$0?0@Eigen@@@std@@@std@@QEAAPEAV?$Matrix@M$0?0$0?0$0A@$0?0$0?0@Eigen@@XZ ; std::_Uninitialized_backout_al<std::allocator<Eigen::Matrix<float,-1,-1,0,-1,-1> > >::_Release
PUBLIC	?__autoclassinit2@?$_Uninitialized_backout_al@V?$allocator@V?$Matrix@M$0?0$0?0$0A@$0?0$0?0@Eigen@@@std@@@std@@QEAAX_K@Z ; std::_Uninitialized_backout_al<std::allocator<Eigen::Matrix<float,-1,-1,0,-1,-1> > >::__autoclassinit2
PUBLIC	??1IOFormat@Eigen@@QEAA@XZ			; Eigen::IOFormat::~IOFormat
PUBLIC	?__autoclassinit2@?$unique_ptr@V_Facet_base@std@@U?$default_delete@V_Facet_base@std@@@2@@std@@QEAAX_K@Z ; std::unique_ptr<std::_Facet_base,std::default_delete<std::_Facet_base> >::__autoclassinit2
PUBLIC	??$ignore_unused_variable@_J@internal@Eigen@@YAXAEB_J@Z ; Eigen::internal::ignore_unused_variable<__int64>
PUBLIC	??$checkSanity@V?$Reshaped@V?$Matrix@M$0?0$0?0$0A@$0?0$0?0@Eigen@@$0?0$00$0A@@Eigen@@@?$MapBase@V?$Reshaped@V?$Matrix@M$0?0$0?0$0A@$0?0$0?0@Eigen@@$0?0$00$0A@@Eigen@@$0A@@Eigen@@IEBAXPEAX@Z ; Eigen::MapBase<Eigen::Reshaped<Eigen::Matrix<float,-1,-1,0,-1,-1>,-1,1,0>,0>::checkSanity<Eigen::Reshaped<Eigen::Matrix<float,-1,-1,0,-1,-1>,-1,1,0> >
PUBLIC	??$_Get_unwrapped@AEBQEAV?$Matrix@M$0?0$0?0$0A@$0?0$0?0@Eigen@@@std@@YAPEAV?$Matrix@M$0?0$0?0$0A@$0?0$0?0@Eigen@@AEBQEAV12@@Z ; std::_Get_unwrapped<Eigen::Matrix<float,-1,-1,0,-1,-1> * const &>
PUBLIC	??$_Uninitialized_move@PEAV?$Matrix@M$0?0$0?0$0A@$0?0$0?0@Eigen@@V?$allocator@V?$Matrix@M$0?0$0?0$0A@$0?0$0?0@Eigen@@@std@@@std@@YAPEAV?$Matrix@M$0?0$0?0$0A@$0?0$0?0@Eigen@@QEAV12@0PEAV12@AEAV?$allocator@V?$Matrix@M$0?0$0?0$0A@$0?0$0?0@Eigen@@@0@@Z ; std::_Uninitialized_move<Eigen::Matrix<float,-1,-1,0,-1,-1> *,std::allocator<Eigen::Matrix<float,-1,-1,0,-1,-1> > >
PUBLIC	??$addressof@$$CBV?$_String_val@U?$_Simple_types@D@std@@@std@@@std@@YAPEBV?$_String_val@U?$_Simple_types@D@std@@@0@AEBV10@@Z ; std::addressof<std::_String_val<std::_Simple_types<char> > const >
PUBLIC	??$addressof@V?$_String_val@U?$_Simple_types@D@std@@@std@@@std@@YAPEAV?$_String_val@U?$_Simple_types@D@std@@@0@AEAV10@@Z ; std::addressof<std::_String_val<std::_Simple_types<char> > >
PUBLIC	??$smart_copy@M@internal@Eigen@@YAXPEBM0PEAM@Z	; Eigen::internal::smart_copy<float>
PUBLIC	??$_Get_size_of_n@$0BI@@std@@YA_K_K@Z		; std::_Get_size_of_n<24>
PUBLIC	??$_Destroy_range@V?$allocator@V?$Matrix@M$0?0$0?0$0A@$0?0$0?0@Eigen@@@std@@@std@@YAXPEAV?$Matrix@M$0?0$0?0$0A@$0?0$0?0@Eigen@@QEAV12@AEAV?$allocator@V?$Matrix@M$0?0$0?0$0A@$0?0$0?0@Eigen@@@0@@Z ; std::_Destroy_range<std::allocator<Eigen::Matrix<float,-1,-1,0,-1,-1> > >
PUBLIC	??$_Destroy_range@V?$allocator@V?$unique_ptr@VLayer@@U?$default_delete@VLayer@@@std@@@std@@@std@@@std@@YAXPEAV?$unique_ptr@VLayer@@U?$default_delete@VLayer@@@std@@@0@QEAV10@AEAV?$allocator@V?$unique_ptr@VLayer@@U?$default_delete@VLayer@@@std@@@std@@@0@@Z ; std::_Destroy_range<std::allocator<std::unique_ptr<Layer,std::default_delete<Layer> > > >
PUBLIC	??$_Buyheadnode@V?$allocator@U?$_Tree_node@U?$pair@$$CB_KUgameInfo@@@std@@PEAX@std@@@std@@@?$_Tree_node@U?$pair@$$CB_KUgameInfo@@@std@@PEAX@std@@SAPEAU01@AEAV?$allocator@U?$_Tree_node@U?$pair@$$CB_KUgameInfo@@@std@@PEAX@std@@@1@@Z ; std::_Tree_node<std::pair<unsigned __int64 const ,gameInfo>,void *>::_Buyheadnode<std::allocator<std::_Tree_node<std::pair<unsigned __int64 const ,gameInfo>,void *> > >
PUBLIC	??$_Destroy_range@V?$allocator@H@std@@@std@@YAXPEAHQEAHAEAV?$allocator@H@0@@Z ; std::_Destroy_range<std::allocator<int> >
PUBLIC	??$_Destroy_range@V?$allocator@UGame@uci@@@std@@@std@@YAXPEAUGame@uci@@QEAU12@AEAV?$allocator@UGame@uci@@@0@@Z ; std::_Destroy_range<std::allocator<uci::Game> >
PUBLIC	??$_Get_size_of_n@$00@std@@YA_K_K@Z		; std::_Get_size_of_n<1>
PUBLIC	??$?0AEBV?$allocator@D@std@@$$V@?$_Compressed_pair@V?$allocator@D@std@@V?$_String_val@U?$_Simple_types@D@std@@@2@$00@std@@QEAA@U_One_then_variadic_args_t@1@AEBV?$allocator@D@1@@Z ; std::_Compressed_pair<std::allocator<char>,std::_String_val<std::_Simple_types<char> >,1>::_Compressed_pair<std::allocator<char>,std::_String_val<std::_Simple_types<char> >,1><std::allocator<char> const &>
PUBLIC	??$_Construct_in_place@PEADAEBQEAD@std@@YAXAEAPEADAEBQEAD@Z ; std::_Construct_in_place<char *,char * const &>
PUBLIC	??$_Reallocate_for@V<lambda_66f57f934f28d61049862f64df852ff0>@@PEBD@?$basic_string@DU?$char_traits@D@std@@V?$allocator@D@2@@std@@AEAAAEAV01@_KV<lambda_66f57f934f28d61049862f64df852ff0>@@PEBD@Z ; std::basic_string<char,std::char_traits<char>,std::allocator<char> >::_Reallocate_for<<lambda_66f57f934f28d61049862f64df852ff0>,char const *>
PUBLIC	??$_Reallocate_grow_by@V<lambda_319d5e083f45f90dcdce5dce53cbb275>@@D@?$basic_string@DU?$char_traits@D@std@@V?$allocator@D@2@@std@@AEAAAEAV01@_KV<lambda_319d5e083f45f90dcdce5dce53cbb275>@@D@Z ; std::basic_string<char,std::char_traits<char>,std::allocator<char> >::_Reallocate_grow_by<<lambda_319d5e083f45f90dcdce5dce53cbb275>,char>
PUBLIC	??$_Destroy_in_place@PEAD@std@@YAXAEAPEAD@Z	; std::_Destroy_in_place<char *>
PUBLIC	??$conditional_aligned_new_auto@M$00@internal@Eigen@@YAPEAM_K@Z ; Eigen::internal::conditional_aligned_new_auto<float,1>
PUBLIC	??$?0AEBU?$less@_K@std@@U_Zero_then_variadic_args_t@1@@?$_Compressed_pair@U?$less@_K@std@@V?$_Compressed_pair@V?$allocator@U?$_Tree_node@U?$pair@$$CB_KUgameInfo@@@std@@PEAX@std@@@std@@V?$_Tree_val@U?$_Tree_simple_types@U?$pair@$$CB_KUgameInfo@@@std@@@std@@@2@$00@2@$00@std@@QEAA@U_One_then_variadic_args_t@1@AEBU?$less@_K@1@$$QEAU_Zero_then_variadic_args_t@1@@Z ; std::_Compressed_pair<std::less<unsigned __int64>,std::_Compressed_pair<std::allocator<std::_Tree_node<std::pair<unsigned __int64 const ,gameInfo>,void *> >,std::_Tree_val<std::_Tree_simple_types<std::pair<unsigned __int64 const ,gameInfo> > >,1>,1>::_Compressed_pair<std::less<unsigned __int64>,std::_Compressed_pair<std::allocator<std::_Tree_node<std::pair<unsigned __int64 const ,gameInfo>,void *> >,std::_Tree_val<std::_Tree_simple_types<std::pair<unsigned __int64 const ,gameInfo> > >,1>,1><std::less<unsigned __int64> const &,std::_Zero_then_variadic_args_t>
PUBLIC	??$addressof@V?$_Tree_val@U?$_Tree_simple_types@U?$pair@$$CB_KUgameInfo@@@std@@@std@@@std@@@std@@YAPEAV?$_Tree_val@U?$_Tree_simple_types@U?$pair@$$CB_KUgameInfo@@@std@@@std@@@0@AEAV10@@Z ; std::addressof<std::_Tree_val<std::_Tree_simple_types<std::pair<unsigned __int64 const ,gameInfo> > > >
PUBLIC	??$addressof@$$CBV?$codecvt@DDU_Mbstatet@@@std@@@std@@YAPEBV?$codecvt@DDU_Mbstatet@@@0@AEBV10@@Z ; std::addressof<std::codecvt<char,char,_Mbstatet> const >
PUBLIC	??$_Pocma@V?$allocator@H@std@@@std@@YAXAEAV?$allocator@H@0@0@Z ; std::_Pocma<std::allocator<int> >
PUBLIC	??$addressof@D@std@@YAPEADAEAD@Z		; std::addressof<char>
PUBLIC	??$?0$$V@?$_Compressed_pair@V?$allocator@D@std@@V?$_String_val@U?$_Simple_types@D@std@@@2@$00@std@@QEAA@U_Zero_then_variadic_args_t@1@@Z ; std::_Compressed_pair<std::allocator<char>,std::_String_val<std::_Simple_types<char> >,1>::_Compressed_pair<std::allocator<char>,std::_String_val<std::_Simple_types<char> >,1><>
PUBLIC	??$?0V?$allocator@D@std@@$$V@?$_Compressed_pair@V?$allocator@D@std@@V?$_String_val@U?$_Simple_types@D@std@@@2@$00@std@@QEAA@U_One_then_variadic_args_t@1@$$QEAV?$allocator@D@1@@Z ; std::_Compressed_pair<std::allocator<char>,std::_String_val<std::_Simple_types<char> >,1>::_Compressed_pair<std::allocator<char>,std::_String_val<std::_Simple_types<char> >,1><std::allocator<char> >
PUBLIC	??$move@AEAV?$allocator@D@std@@@std@@YA$$QEAV?$allocator@D@0@AEAV10@@Z ; std::move<std::allocator<char> &>
PUBLIC	??$_Traits_find@U?$char_traits@D@std@@@std@@YA_KQEBD_K101@Z ; std::_Traits_find<std::char_traits<char> >
PUBLIC	??$_Traits_find_ch@U?$char_traits@D@std@@@std@@YA_KQEBD_K1D@Z ; std::_Traits_find_ch<std::char_traits<char> >
PUBLIC	??$addressof@V?$basic_stringbuf@DU?$char_traits@D@std@@V?$allocator@D@2@@std@@@std@@YAPEAV?$basic_stringbuf@DU?$char_traits@D@std@@V?$allocator@D@2@@0@AEAV10@@Z ; std::addressof<std::basic_stringbuf<char,std::char_traits<char>,std::allocator<char> > >
PUBLIC	??$_Unfancy@D@std@@YAPEADPEAD@Z			; std::_Unfancy<char>
PUBLIC	??$_Max_value@PEAD@std@@YAAEBQEADAEBQEAD0@Z	; std::_Max_value<char *>
PUBLIC	??$conditional_aligned_delete_auto@M$00@internal@Eigen@@YAXPEAM_K@Z ; Eigen::internal::conditional_aligned_delete_auto<float,1>
PUBLIC	??$run@_J@?$check_rows_cols_for_overflow@$0?0@internal@Eigen@@SAX_J0@Z ; Eigen::internal::check_rows_cols_for_overflow<-1>::run<__int64>
PUBLIC	??$?0$$V@?$_Compressed_pair@V?$allocator@V?$Matrix@M$0?0$0?0$0A@$0?0$0?0@Eigen@@@std@@V?$_Vector_val@U?$_Simple_types@V?$Matrix@M$0?0$0?0$0A@$0?0$0?0@Eigen@@@std@@@2@$00@std@@QEAA@U_Zero_then_variadic_args_t@1@@Z ; std::_Compressed_pair<std::allocator<Eigen::Matrix<float,-1,-1,0,-1,-1> >,std::_Vector_val<std::_Simple_types<Eigen::Matrix<float,-1,-1,0,-1,-1> > >,1>::_Compressed_pair<std::allocator<Eigen::Matrix<float,-1,-1,0,-1,-1> >,std::_Vector_val<std::_Simple_types<Eigen::Matrix<float,-1,-1,0,-1,-1> > >,1><>
PUBLIC	??$_Erase_head@V?$allocator@U?$_Tree_node@U?$pair@$$CB_KUgameInfo@@@std@@PEAX@std@@@std@@@?$_Tree_val@U?$_Tree_simple_types@U?$pair@$$CB_KUgameInfo@@@std@@@std@@@std@@QEAAXAEAV?$allocator@U?$_Tree_node@U?$pair@$$CB_KUgameInfo@@@std@@PEAX@std@@@1@@Z ; std::_Tree_val<std::_Tree_simple_types<std::pair<unsigned __int64 const ,gameInfo> > >::_Erase_head<std::allocator<std::_Tree_node<std::pair<unsigned __int64 const ,gameInfo>,void *> > >
PUBLIC	??$_Erase_tree@V?$allocator@U?$_Tree_node@U?$pair@$$CB_KUgameInfo@@@std@@PEAX@std@@@std@@@?$_Tree_val@U?$_Tree_simple_types@U?$pair@$$CB_KUgameInfo@@@std@@@std@@@std@@QEAAXAEAV?$allocator@U?$_Tree_node@U?$pair@$$CB_KUgameInfo@@@std@@PEAX@std@@@1@PEAU?$_Tree_node@U?$pair@$$CB_KUgameInfo@@@std@@PEAX@1@@Z ; std::_Tree_val<std::_Tree_simple_types<std::pair<unsigned __int64 const ,gameInfo> > >::_Erase_tree<std::allocator<std::_Tree_node<std::pair<unsigned __int64 const ,gameInfo>,void *> > >
PUBLIC	??$use_facet@V?$codecvt@DDU_Mbstatet@@@std@@@std@@YAAEBV?$codecvt@DDU_Mbstatet@@@0@AEBVlocale@0@@Z ; std::use_facet<std::codecvt<char,char,_Mbstatet> >
PUBLIC	??$?0$$V@?$_Compressed_pair@V?$allocator@H@std@@V?$_Vector_val@U?$_Simple_types@H@std@@@2@$00@std@@QEAA@U_Zero_then_variadic_args_t@1@@Z ; std::_Compressed_pair<std::allocator<int>,std::_Vector_val<std::_Simple_types<int> >,1>::_Compressed_pair<std::allocator<int>,std::_Vector_val<std::_Simple_types<int> >,1><>
PUBLIC	??$addressof@V?$vector@HV?$allocator@H@std@@@std@@@std@@YAPEAV?$vector@HV?$allocator@H@std@@@0@AEAV10@@Z ; std::addressof<std::vector<int,std::allocator<int> > >
PUBLIC	??$?0$$V@?$_Compressed_pair@V?$allocator@UGame@uci@@@std@@V?$_Vector_val@U?$_Simple_types@UGame@uci@@@std@@@2@$00@std@@QEAA@U_Zero_then_variadic_args_t@1@@Z ; std::_Compressed_pair<std::allocator<uci::Game>,std::_Vector_val<std::_Simple_types<uci::Game> >,1>::_Compressed_pair<std::allocator<uci::Game>,std::_Vector_val<std::_Simple_types<uci::Game> >,1><>
PUBLIC	??$addressof@V?$basic_filebuf@DU?$char_traits@D@std@@@std@@@std@@YAPEAV?$basic_filebuf@DU?$char_traits@D@std@@@0@AEAV10@@Z ; std::addressof<std::basic_filebuf<char,std::char_traits<char> > >
PUBLIC	??$?0HH@?$Matrix@M$0?0$0?0$0A@$0?0$0?0@Eigen@@QEAA@AEBH0@Z ; Eigen::Matrix<float,-1,-1,0,-1,-1>::Matrix<float,-1,-1,0,-1,-1><int,int>
PUBLIC	??$?RV?$mersenne_twister_engine@_K$0EA@$0BDI@$0JM@$0BP@$0?EKPNJAKFFGJJOGBH@$0BN@$0FFFFFFFFFFFFFFFF@$0BB@$0HBNGHPPPONKGAAAA@$0CF@$0?IBBCAAAAAAAAA@$0CL@$0FIFBPECNEMJFHPCN@@std@@@?$uniform_int@H@std@@QEBAHAEAV?$mersenne_twister_engine@_K$0EA@$0BDI@$0JM@$0BP@$0?EKPNJAKFFGJJOGBH@$0BN@$0FFFFFFFFFFFFFFFF@$0BB@$0HBNGHPPPONKGAAAA@$0CF@$0?IBBCAAAAAAAAA@$0CL@$0FIFBPECNEMJFHPCN@@1@@Z ; std::uniform_int<int>::operator()<std::mersenne_twister_engine<unsigned __int64,64,312,156,31,-5403634167711393303,29,6148914691236517205,17,8202884508482404352,37,-2270628950310912,43,6364136223846793005> >
PUBLIC	??$_Emplace_reallocate@UGame@uci@@@?$vector@UGame@uci@@V?$allocator@UGame@uci@@@std@@@std@@QEAAPEAUGame@uci@@QEAU23@$$QEAU23@@Z ; std::vector<uci::Game,std::allocator<uci::Game> >::_Emplace_reallocate<uci::Game>
PUBLIC	??$construct@UGame@uci@@U12@@?$_Default_allocator_traits@V?$allocator@UGame@uci@@@std@@@std@@SAXAEAV?$allocator@UGame@uci@@@1@QEAUGame@uci@@$$QEAU34@@Z ; std::_Default_allocator_traits<std::allocator<uci::Game> >::construct<uci::Game,uci::Game>
PUBLIC	??$_Unfancy@UGame@uci@@@std@@YAPEAUGame@uci@@PEAU12@@Z ; std::_Unfancy<uci::Game>
PUBLIC	??$forward@UGame@uci@@@std@@YA$$QEAUGame@uci@@AEAU12@@Z ; std::forward<uci::Game>
PUBLIC	??$_Emplace_reallocate@AEAH@?$vector@HV?$allocator@H@std@@@std@@QEAAPEAHQEAHAEAH@Z ; std::vector<int,std::allocator<int> >::_Emplace_reallocate<int &>
PUBLIC	??$construct@HAEAH@?$_Default_allocator_traits@V?$allocator@H@std@@@std@@SAXAEAV?$allocator@H@1@QEAHAEAH@Z ; std::_Default_allocator_traits<std::allocator<int> >::construct<int,int &>
PUBLIC	??$_Unfancy@H@std@@YAPEAHPEAH@Z			; std::_Unfancy<int>
PUBLIC	??$forward@AEAH@std@@YAAEAHAEAH@Z		; std::forward<int &>
PUBLIC	??$_Emplace_reallocate@$$CBV?$Matrix@M$0?0$0?0$0A@$0?0$0?0@Eigen@@@?$vector@V?$Matrix@M$0?0$0?0$0A@$0?0$0?0@Eigen@@V?$allocator@V?$Matrix@M$0?0$0?0$0A@$0?0$0?0@Eigen@@@std@@@std@@QEAAPEAV?$Matrix@M$0?0$0?0$0A@$0?0$0?0@Eigen@@QEAV23@$$QEBV23@@Z ; std::vector<Eigen::Matrix<float,-1,-1,0,-1,-1>,std::allocator<Eigen::Matrix<float,-1,-1,0,-1,-1> > >::_Emplace_reallocate<Eigen::Matrix<float,-1,-1,0,-1,-1> const >
PUBLIC	??$construct@V?$Matrix@M$0?0$0?0$0A@$0?0$0?0@Eigen@@$$CBV12@@?$_Default_allocator_traits@V?$allocator@V?$Matrix@M$0?0$0?0$0A@$0?0$0?0@Eigen@@@std@@@std@@SAXAEAV?$allocator@V?$Matrix@M$0?0$0?0$0A@$0?0$0?0@Eigen@@@1@QEAV?$Matrix@M$0?0$0?0$0A@$0?0$0?0@Eigen@@$$QEBV34@@Z ; std::_Default_allocator_traits<std::allocator<Eigen::Matrix<float,-1,-1,0,-1,-1> > >::construct<Eigen::Matrix<float,-1,-1,0,-1,-1>,Eigen::Matrix<float,-1,-1,0,-1,-1> const >
PUBLIC	??$forward@$$CBV?$Matrix@M$0?0$0?0$0A@$0?0$0?0@Eigen@@@std@@YA$$QEBV?$Matrix@M$0?0$0?0$0A@$0?0$0?0@Eigen@@AEBV12@@Z ; std::forward<Eigen::Matrix<float,-1,-1,0,-1,-1> const >
PUBLIC	??$move@AEBV?$Matrix@M$0?0$0?0$0A@$0?0$0?0@Eigen@@@std@@YA$$QEBV?$Matrix@M$0?0$0?0$0A@$0?0$0?0@Eigen@@AEBV12@@Z ; std::move<Eigen::Matrix<float,-1,-1,0,-1,-1> const &>
PUBLIC	??$move@AEAV?$vector@HV?$allocator@H@std@@@std@@@std@@YA$$QEAV?$vector@HV?$allocator@H@std@@@0@AEAV10@@Z ; std::move<std::vector<int,std::allocator<int> > &>
PUBLIC	??$_Emplace_reallocate@V?$Matrix@M$0?0$0?0$0A@$0?0$0?0@Eigen@@@?$vector@V?$Matrix@M$0?0$0?0$0A@$0?0$0?0@Eigen@@V?$allocator@V?$Matrix@M$0?0$0?0$0A@$0?0$0?0@Eigen@@@std@@@std@@QEAAPEAV?$Matrix@M$0?0$0?0$0A@$0?0$0?0@Eigen@@QEAV23@$$QEAV23@@Z ; std::vector<Eigen::Matrix<float,-1,-1,0,-1,-1>,std::allocator<Eigen::Matrix<float,-1,-1,0,-1,-1> > >::_Emplace_reallocate<Eigen::Matrix<float,-1,-1,0,-1,-1> >
PUBLIC	??$construct@V?$Matrix@M$0?0$0?0$0A@$0?0$0?0@Eigen@@V12@@?$_Default_allocator_traits@V?$allocator@V?$Matrix@M$0?0$0?0$0A@$0?0$0?0@Eigen@@@std@@@std@@SAXAEAV?$allocator@V?$Matrix@M$0?0$0?0$0A@$0?0$0?0@Eigen@@@1@QEAV?$Matrix@M$0?0$0?0$0A@$0?0$0?0@Eigen@@$$QEAV34@@Z ; std::_Default_allocator_traits<std::allocator<Eigen::Matrix<float,-1,-1,0,-1,-1> > >::construct<Eigen::Matrix<float,-1,-1,0,-1,-1>,Eigen::Matrix<float,-1,-1,0,-1,-1> >
PUBLIC	??$_Unfancy@V?$Matrix@M$0?0$0?0$0A@$0?0$0?0@Eigen@@@std@@YAPEAV?$Matrix@M$0?0$0?0$0A@$0?0$0?0@Eigen@@PEAV12@@Z ; std::_Unfancy<Eigen::Matrix<float,-1,-1,0,-1,-1> >
PUBLIC	??$forward@V?$Matrix@M$0?0$0?0$0A@$0?0$0?0@Eigen@@@std@@YA$$QEAV?$Matrix@M$0?0$0?0$0A@$0?0$0?0@Eigen@@AEAV12@@Z ; std::forward<Eigen::Matrix<float,-1,-1,0,-1,-1> >
PUBLIC	??$move@AEAV?$Matrix@M$0?0$0?0$0A@$0?0$0?0@Eigen@@@std@@YA$$QEAV?$Matrix@M$0?0$0?0$0A@$0?0$0?0@Eigen@@AEAV12@@Z ; std::move<Eigen::Matrix<float,-1,-1,0,-1,-1> &>
PUBLIC	??$move@AEAUGame@uci@@@std@@YA$$QEAUGame@uci@@AEAU12@@Z ; std::move<uci::Game &>
PUBLIC	??$?RV?$mersenne_twister_engine@_K$0EA@$0BDI@$0JM@$0BP@$0?EKPNJAKFFGJJOGBH@$0BN@$0FFFFFFFFFFFFFFFF@$0BB@$0HBNGHPPPONKGAAAA@$0CF@$0?IBBCAAAAAAAAA@$0CL@$0FIFBPECNEMJFHPCN@@std@@@?$uniform_real@N@std@@QEBANAEAV?$mersenne_twister_engine@_K$0EA@$0BDI@$0JM@$0BP@$0?EKPNJAKFFGJJOGBH@$0BN@$0FFFFFFFFFFFFFFFF@$0BB@$0HBNGHPPPONKGAAAA@$0CF@$0?IBBCAAAAAAAAA@$0CL@$0FIFBPECNEMJFHPCN@@1@@Z ; std::uniform_real<double>::operator()<std::mersenne_twister_engine<unsigned __int64,64,312,156,31,-5403634167711393303,29,6148914691236517205,17,8202884508482404352,37,-2270628950310912,43,6364136223846793005> >
PUBLIC	??$getline@DU?$char_traits@D@std@@V?$allocator@D@2@@std@@YAAEAV?$basic_istream@DU?$char_traits@D@std@@@0@AEAV10@AEAV?$basic_string@DU?$char_traits@D@std@@V?$allocator@D@2@@0@@Z ; std::getline<char,std::char_traits<char>,std::allocator<char> >
PUBLIC	??$max@W4Score@@@std@@YAAEBW4Score@@AEBW41@0@Z	; std::max<enum Score>
PUBLIC	??$end@H@std@@YAPEBHV?$initializer_list@H@0@@Z	; std::end<int>
PUBLIC	??$begin@H@std@@YAPEBHV?$initializer_list@H@0@@Z ; std::begin<int>
PUBLIC	??$?GUsteady_clock@chrono@std@@V?$duration@_JU?$ratio@$00$0DLJKMKAA@@std@@@12@V312@@chrono@std@@YA?AV?$duration@_JU?$ratio@$00$0DLJKMKAA@@std@@@01@AEBV?$time_point@Usteady_clock@chrono@std@@V?$duration@_JU?$ratio@$00$0DLJKMKAA@@std@@@23@@01@0@Z ; std::chrono::operator-<std::chrono::steady_clock,std::chrono::duration<__int64,std::ratio<1,1000000000> >,std::chrono::duration<__int64,std::ratio<1,1000000000> > >
PUBLIC	??$?6V?$Matrix@M$0?0$0?0$0A@$0?0$0?0@Eigen@@@Eigen@@YAAEAV?$basic_ostream@DU?$char_traits@D@std@@@std@@AEAV12@AEBV?$DenseBase@V?$Matrix@M$0?0$0?0$0A@$0?0$0?0@Eigen@@@0@@Z ; Eigen::operator<<<Eigen::Matrix<float,-1,-1,0,-1,-1> >
PUBLIC	?end@?$DenseBase@V?$Reshaped@V?$Matrix@M$0?0$0?0$0A@$0?0$0?0@Eigen@@$0?0$00$0A@@Eigen@@@Eigen@@QEAA?AV?$pointer_based_stl_iterator@V?$Reshaped@V?$Matrix@M$0?0$0?0$0A@$0?0$0?0@Eigen@@$0?0$00$0A@@Eigen@@@internal@2@XZ ; Eigen::DenseBase<Eigen::Reshaped<Eigen::Matrix<float,-1,-1,0,-1,-1>,-1,1,0> >::end
PUBLIC	?begin@?$DenseBase@V?$Reshaped@V?$Matrix@M$0?0$0?0$0A@$0?0$0?0@Eigen@@$0?0$00$0A@@Eigen@@@Eigen@@QEAA?AV?$pointer_based_stl_iterator@V?$Reshaped@V?$Matrix@M$0?0$0?0$0A@$0?0$0?0@Eigen@@$0?0$00$0A@@Eigen@@@internal@2@XZ ; Eigen::DenseBase<Eigen::Reshaped<Eigen::Matrix<float,-1,-1,0,-1,-1>,-1,1,0> >::begin
PUBLIC	??$?6DU?$char_traits@D@std@@V?$allocator@D@1@@std@@YAAEAV?$basic_ostream@DU?$char_traits@D@std@@@0@AEAV10@AEBV?$basic_string@DU?$char_traits@D@std@@V?$allocator@D@2@@0@@Z ; std::operator<<<char,std::char_traits<char>,std::allocator<char> >
PUBLIC	??$?6U?$char_traits@D@std@@@std@@YAAEAV?$basic_ostream@DU?$char_traits@D@std@@@0@AEAV10@D@Z ; std::operator<<<std::char_traits<char> >
PUBLIC	??0?$variable_if_dynamic@_J$00@internal@Eigen@@QEAA@_J@Z ; Eigen::internal::variable_if_dynamic<__int64,1>::variable_if_dynamic<__int64,1>
PUBLIC	??0?$variable_if_dynamic@_J$0?0@internal@Eigen@@QEAA@_J@Z ; Eigen::internal::variable_if_dynamic<__int64,-1>::variable_if_dynamic<__int64,-1>
PUBLIC	?innerSize@?$DenseBase@V?$Matrix@M$0?0$0?0$0A@$0?0$0?0@Eigen@@@Eigen@@QEBA_JXZ ; Eigen::DenseBase<Eigen::Matrix<float,-1,-1,0,-1,-1> >::innerSize
PUBLIC	??0?$DenseBase@V?$Reshaped@V?$Matrix@M$0?0$0?0$0A@$0?0$0?0@Eigen@@$0?0$00$0A@@Eigen@@@Eigen@@IEAA@XZ ; Eigen::DenseBase<Eigen::Reshaped<Eigen::Matrix<float,-1,-1,0,-1,-1>,-1,1,0> >::DenseBase<Eigen::Reshaped<Eigen::Matrix<float,-1,-1,0,-1,-1>,-1,1,0> >
PUBLIC	??0?$MatrixBase@V?$Reshaped@V?$Matrix@M$0?0$0?0$0A@$0?0$0?0@Eigen@@$0?0$00$0A@@Eigen@@@Eigen@@IEAA@XZ ; Eigen::MatrixBase<Eigen::Reshaped<Eigen::Matrix<float,-1,-1,0,-1,-1>,-1,1,0> >::MatrixBase<Eigen::Reshaped<Eigen::Matrix<float,-1,-1,0,-1,-1>,-1,1,0> >
PUBLIC	?data@?$DenseStorage@M$0?0$0?0$0?0$0A@@Eigen@@QEBAPEBMXZ ; Eigen::DenseStorage<float,-1,-1,-1,0>::data
PUBLIC	?outerStride@?$Matrix@M$0?0$0?0$0A@$0?0$0?0@Eigen@@QEBA_JXZ ; Eigen::Matrix<float,-1,-1,0,-1,-1>::outerStride
PUBLIC	??0?$MapBase@V?$Reshaped@V?$Matrix@M$0?0$0?0$0A@$0?0$0?0@Eigen@@$0?0$00$0A@@Eigen@@$0A@@Eigen@@QEAA@PEAM_J1@Z ; Eigen::MapBase<Eigen::Reshaped<Eigen::Matrix<float,-1,-1,0,-1,-1>,-1,1,0>,0>::MapBase<Eigen::Reshaped<Eigen::Matrix<float,-1,-1,0,-1,-1>,-1,1,0>,0>
PUBLIC	?outerStride@?$DenseCoeffsBase@V?$Matrix@M$0?0$0?0$0A@$0?0$0?0@Eigen@@$02@Eigen@@QEBA_JXZ ; Eigen::DenseCoeffsBase<Eigen::Matrix<float,-1,-1,0,-1,-1>,3>::outerStride
PUBLIC	?data@?$PlainObjectBase@V?$Matrix@M$0?0$0?0$0A@$0?0$0?0@Eigen@@@Eigen@@QEBAPEBMXZ ; Eigen::PlainObjectBase<Eigen::Matrix<float,-1,-1,0,-1,-1> >::data
PUBLIC	??0?$evaluator_base@V?$Matrix@M$0?0$0?0$0A@$0?0$0?0@Eigen@@@internal@Eigen@@QEAA@XZ ; Eigen::internal::evaluator_base<Eigen::Matrix<float,-1,-1,0,-1,-1> >::evaluator_base<Eigen::Matrix<float,-1,-1,0,-1,-1> >
PUBLIC	??0?$plainobjectbase_evaluator_data@M$0?0@internal@Eigen@@QEAA@PEBM_J@Z ; Eigen::internal::plainobjectbase_evaluator_data<float,-1>::plainobjectbase_evaluator_data<float,-1>
PUBLIC	??0?$MapBase@V?$Reshaped@V?$Matrix@M$0?0$0?0$0A@$0?0$0?0@Eigen@@$0?0$00$0A@@Eigen@@$00@Eigen@@QEAA@PEAM_J1@Z ; Eigen::MapBase<Eigen::Reshaped<Eigen::Matrix<float,-1,-1,0,-1,-1>,-1,1,0>,1>::MapBase<Eigen::Reshaped<Eigen::Matrix<float,-1,-1,0,-1,-1>,-1,1,0>,1>
PUBLIC	?max_size@?$_Default_allocator_traits@V?$allocator@D@std@@@std@@SA_KAEBV?$allocator@D@2@@Z ; std::_Default_allocator_traits<std::allocator<char> >::max_size
PUBLIC	?_Xran@?$_String_val@U?$_Simple_types@D@std@@@std@@SAXXZ ; std::_String_val<std::_Simple_types<char> >::_Xran
PUBLIC	??0?$evaluator@V?$PlainObjectBase@V?$Matrix@M$0?0$0?0$0A@$0?0$0?0@Eigen@@@Eigen@@@internal@Eigen@@QEAA@AEBV?$PlainObjectBase@V?$Matrix@M$0?0$0?0$0A@$0?0$0?0@Eigen@@@2@@Z ; Eigen::internal::evaluator<Eigen::PlainObjectBase<Eigen::Matrix<float,-1,-1,0,-1,-1> > >::evaluator<Eigen::PlainObjectBase<Eigen::Matrix<float,-1,-1,0,-1,-1> > >
PUBLIC	?outerStride@?$plainobjectbase_evaluator_data@M$0?0@internal@Eigen@@QEBA_JXZ ; Eigen::internal::plainobjectbase_evaluator_data<float,-1>::outerStride
PUBLIC	??0?$ReshapedImpl_dense@V?$Matrix@M$0?0$0?0$0A@$0?0$0?0@Eigen@@$0?0$00$0A@$00@internal@Eigen@@QEAA@AEAV?$Matrix@M$0?0$0?0$0A@$0?0$0?0@2@_J1@Z ; Eigen::internal::ReshapedImpl_dense<Eigen::Matrix<float,-1,-1,0,-1,-1>,-1,1,0,1>::ReshapedImpl_dense<Eigen::Matrix<float,-1,-1,0,-1,-1>,-1,1,0,1>
PUBLIC	?_Umove_if_noexcept1@?$vector@V?$Matrix@M$0?0$0?0$0A@$0?0$0?0@Eigen@@V?$allocator@V?$Matrix@M$0?0$0?0$0A@$0?0$0?0@Eigen@@@std@@@std@@AEAAXPEAV?$Matrix@M$0?0$0?0$0A@$0?0$0?0@Eigen@@00U?$integral_constant@_N$00@2@@Z ; std::vector<Eigen::Matrix<float,-1,-1,0,-1,-1>,std::allocator<Eigen::Matrix<float,-1,-1,0,-1,-1> > >::_Umove_if_noexcept1
PUBLIC	?_Get_first@?$_Compressed_pair@V?$allocator@V?$unique_ptr@VLayer@@U?$default_delete@VLayer@@@std@@@std@@@std@@V?$_Vector_val@U?$_Simple_types@V?$unique_ptr@VLayer@@U?$default_delete@VLayer@@@std@@@std@@@std@@@2@$00@std@@QEAAAEAV?$allocator@V?$unique_ptr@VLayer@@U?$default_delete@VLayer@@@std@@@std@@@2@XZ ; std::_Compressed_pair<std::allocator<std::unique_ptr<Layer,std::default_delete<Layer> > >,std::_Vector_val<std::_Simple_types<std::unique_ptr<Layer,std::default_delete<Layer> > > >,1>::_Get_first
PUBLIC	?_Init@param_type@?$uniform_real@N@std@@QEAAXNN@Z ; std::uniform_real<double>::param_type::_Init
PUBLIC	?_Get_first@?$_Compressed_pair@V?$allocator@H@std@@V?$_Vector_val@U?$_Simple_types@H@std@@@2@$00@std@@QEBAAEBV?$allocator@H@2@XZ ; std::_Compressed_pair<std::allocator<int>,std::_Vector_val<std::_Simple_types<int> >,1>::_Get_first
PUBLIC	?_Init@param_type@?$uniform_int@H@std@@QEAAXHH@Z ; std::uniform_int<int>::param_type::_Init
PUBLIC	?move@?$_Narrow_char_traits@DH@std@@SAPEADQEADQEBD_K@Z ; std::_Narrow_char_traits<char,int>::move
PUBLIC	?assign@?$_Narrow_char_traits@DH@std@@SAXAEADAEBD@Z ; std::_Narrow_char_traits<char,int>::assign
PUBLIC	?_Large_string_engaged@?$_String_val@U?$_Simple_types@D@std@@@std@@QEBA_NXZ ; std::_String_val<std::_Simple_types<char> >::_Large_string_engaged
PUBLIC	?_Check_offset@?$_String_val@U?$_Simple_types@D@std@@@std@@QEBAX_K@Z ; std::_String_val<std::_Simple_types<char> >::_Check_offset
PUBLIC	?_Clamp_suffix_size@?$_String_val@U?$_Simple_types@D@std@@@std@@QEBA_K_K0@Z ; std::_String_val<std::_Simple_types<char> >::_Clamp_suffix_size
PUBLIC	?_Memcpy_val_from@?$basic_string@DU?$char_traits@D@std@@V?$allocator@D@2@@std@@AEAAXAEBV12@@Z ; std::basic_string<char,std::char_traits<char>,std::allocator<char> >::_Memcpy_val_from
PUBLIC	?assign@?$basic_string@DU?$char_traits@D@std@@V?$allocator@D@2@@std@@QEAAAEAV12@AEBV12@_K_K@Z ; std::basic_string<char,std::char_traits<char>,std::allocator<char> >::assign
PUBLIC	?max_size@?$basic_string@DU?$char_traits@D@std@@V?$allocator@D@2@@std@@QEBA_KXZ ; std::basic_string<char,std::char_traits<char>,std::allocator<char> >::max_size
PUBLIC	?_Eos@?$basic_string@DU?$char_traits@D@std@@V?$allocator@D@2@@std@@AEAAX_K@Z ; std::basic_string<char,std::char_traits<char>,std::allocator<char> >::_Eos
PUBLIC	?_Get_first@?$_Compressed_pair@V?$allocator@D@std@@V?$_String_val@U?$_Simple_types@D@std@@@2@$00@std@@QEAAAEAV?$allocator@D@2@XZ ; std::_Compressed_pair<std::allocator<char>,std::_String_val<std::_Simple_types<char> >,1>::_Get_first
PUBLIC	?_Get_first@?$_Compressed_pair@V?$allocator@D@std@@V?$_String_val@U?$_Simple_types@D@std@@@2@$00@std@@QEBAAEBV?$allocator@D@2@XZ ; std::_Compressed_pair<std::allocator<char>,std::_String_val<std::_Simple_types<char> >,1>::_Get_first
PUBLIC	?_Init@?$basic_stringbuf@DU?$char_traits@D@std@@V?$allocator@D@2@@std@@IEAAXPEBD_KH@Z ; std::basic_stringbuf<char,std::char_traits<char>,std::allocator<char> >::_Init
PUBLIC	?_Getstate@?$basic_stringbuf@DU?$char_traits@D@std@@V?$allocator@D@2@@std@@CAHH@Z ; std::basic_stringbuf<char,std::char_traits<char>,std::allocator<char> >::_Getstate
PUBLIC	?derived@?$EigenBase@V?$Matrix@M$0?0$0?0$0A@$0?0$0?0@Eigen@@@Eigen@@QEBAAEBV?$Matrix@M$0?0$0?0$0A@$0?0$0?0@2@XZ ; Eigen::EigenBase<Eigen::Matrix<float,-1,-1,0,-1,-1> >::derived
PUBLIC	??0?$DenseBase@V?$Matrix@M$0?0$0?0$0A@$0?0$0?0@Eigen@@@Eigen@@IEAA@XZ ; Eigen::DenseBase<Eigen::Matrix<float,-1,-1,0,-1,-1> >::DenseBase<Eigen::Matrix<float,-1,-1,0,-1,-1> >
PUBLIC	??0?$DenseStorage@M$0?0$0?0$0?0$0A@@Eigen@@QEAA@XZ ; Eigen::DenseStorage<float,-1,-1,-1,0>::DenseStorage<float,-1,-1,-1,0>
PUBLIC	??0?$DenseStorage@M$0?0$0?0$0?0$0A@@Eigen@@QEAA@AEBV01@@Z ; Eigen::DenseStorage<float,-1,-1,-1,0>::DenseStorage<float,-1,-1,-1,0>
PUBLIC	??1?$evaluator_base@V?$Matrix@M$0?0$0?0$0A@$0?0$0?0@Eigen@@@internal@Eigen@@QEAA@XZ ; Eigen::internal::evaluator_base<Eigen::Matrix<float,-1,-1,0,-1,-1> >::~evaluator_base<Eigen::Matrix<float,-1,-1,0,-1,-1> >
PUBLIC	?coeffRef@?$evaluator@V?$PlainObjectBase@V?$Matrix@M$0?0$0?0$0A@$0?0$0?0@Eigen@@@Eigen@@@internal@Eigen@@QEAAAEAM_J0@Z ; Eigen::internal::evaluator<Eigen::PlainObjectBase<Eigen::Matrix<float,-1,-1,0,-1,-1> > >::coeffRef
PUBLIC	??0?$evaluator@V?$Matrix@M$0?0$0?0$0A@$0?0$0?0@Eigen@@@internal@Eigen@@QEAA@AEBV?$Matrix@M$0?0$0?0$0A@$0?0$0?0@2@@Z ; Eigen::internal::evaluator<Eigen::Matrix<float,-1,-1,0,-1,-1> >::evaluator<Eigen::Matrix<float,-1,-1,0,-1,-1> >
PUBLIC	??0?$ReshapedImpl@V?$Matrix@M$0?0$0?0$0A@$0?0$0?0@Eigen@@$0?0$00$0A@UDense@2@@Eigen@@QEAA@AEAV?$Matrix@M$0?0$0?0$0A@$0?0$0?0@1@_J1@Z ; Eigen::ReshapedImpl<Eigen::Matrix<float,-1,-1,0,-1,-1>,-1,1,0,Eigen::Dense>::ReshapedImpl<Eigen::Matrix<float,-1,-1,0,-1,-1>,-1,1,0,Eigen::Dense>
PUBLIC	?deallocate@?$allocator@V?$Matrix@M$0?0$0?0$0A@$0?0$0?0@Eigen@@@std@@QEAAXQEAV?$Matrix@M$0?0$0?0$0A@$0?0$0?0@Eigen@@_K@Z ; std::allocator<Eigen::Matrix<float,-1,-1,0,-1,-1> >::deallocate
PUBLIC	?allocate@?$allocator@V?$Matrix@M$0?0$0?0$0A@$0?0$0?0@Eigen@@@std@@QEAAPEAV?$Matrix@M$0?0$0?0$0A@$0?0$0?0@Eigen@@_K@Z ; std::allocator<Eigen::Matrix<float,-1,-1,0,-1,-1> >::allocate
PUBLIC	?max_size@?$_Default_allocator_traits@V?$allocator@V?$Matrix@M$0?0$0?0$0A@$0?0$0?0@Eigen@@@std@@@std@@SA_KAEBV?$allocator@V?$Matrix@M$0?0$0?0$0A@$0?0$0?0@Eigen@@@2@@Z ; std::_Default_allocator_traits<std::allocator<Eigen::Matrix<float,-1,-1,0,-1,-1> > >::max_size
PUBLIC	?_Umove_if_noexcept@?$vector@V?$Matrix@M$0?0$0?0$0A@$0?0$0?0@Eigen@@V?$allocator@V?$Matrix@M$0?0$0?0$0A@$0?0$0?0@Eigen@@@std@@@std@@AEAAXPEAV?$Matrix@M$0?0$0?0$0A@$0?0$0?0@Eigen@@00@Z ; std::vector<Eigen::Matrix<float,-1,-1,0,-1,-1>,std::allocator<Eigen::Matrix<float,-1,-1,0,-1,-1> > >::_Umove_if_noexcept
PUBLIC	?_Destroy@?$vector@V?$Matrix@M$0?0$0?0$0A@$0?0$0?0@Eigen@@V?$allocator@V?$Matrix@M$0?0$0?0$0A@$0?0$0?0@Eigen@@@std@@@std@@AEAAXPEAV?$Matrix@M$0?0$0?0$0A@$0?0$0?0@Eigen@@0@Z ; std::vector<Eigen::Matrix<float,-1,-1,0,-1,-1>,std::allocator<Eigen::Matrix<float,-1,-1,0,-1,-1> > >::_Destroy
PUBLIC	?_Change_array@?$vector@V?$Matrix@M$0?0$0?0$0A@$0?0$0?0@Eigen@@V?$allocator@V?$Matrix@M$0?0$0?0$0A@$0?0$0?0@Eigen@@@std@@@std@@AEAAXQEAV?$Matrix@M$0?0$0?0$0A@$0?0$0?0@Eigen@@_K1@Z ; std::vector<Eigen::Matrix<float,-1,-1,0,-1,-1>,std::allocator<Eigen::Matrix<float,-1,-1,0,-1,-1> > >::_Change_array
PUBLIC	?_Get_first@?$_Compressed_pair@V?$allocator@V?$Matrix@M$0?0$0?0$0A@$0?0$0?0@Eigen@@@std@@V?$_Vector_val@U?$_Simple_types@V?$Matrix@M$0?0$0?0$0A@$0?0$0?0@Eigen@@@std@@@2@$00@std@@QEBAAEBV?$allocator@V?$Matrix@M$0?0$0?0$0A@$0?0$0?0@Eigen@@@2@XZ ; std::_Compressed_pair<std::allocator<Eigen::Matrix<float,-1,-1,0,-1,-1> >,std::_Vector_val<std::_Simple_types<Eigen::Matrix<float,-1,-1,0,-1,-1> > >,1>::_Get_first
PUBLIC	?deallocate@?$allocator@V?$unique_ptr@VLayer@@U?$default_delete@VLayer@@@std@@@std@@@std@@QEAAXQEAV?$unique_ptr@VLayer@@U?$default_delete@VLayer@@@std@@@2@_K@Z ; std::allocator<std::unique_ptr<Layer,std::default_delete<Layer> > >::deallocate
PUBLIC	?_Destroy@?$vector@V?$unique_ptr@VLayer@@U?$default_delete@VLayer@@@std@@@std@@V?$allocator@V?$unique_ptr@VLayer@@U?$default_delete@VLayer@@@std@@@std@@@2@@std@@AEAAXPEAV?$unique_ptr@VLayer@@U?$default_delete@VLayer@@@std@@@2@0@Z ; std::vector<std::unique_ptr<Layer,std::default_delete<Layer> >,std::allocator<std::unique_ptr<Layer,std::default_delete<Layer> > > >::_Destroy
PUBLIC	?_Getal@?$vector@V?$unique_ptr@VLayer@@U?$default_delete@VLayer@@@std@@@std@@V?$allocator@V?$unique_ptr@VLayer@@U?$default_delete@VLayer@@@std@@@std@@@2@@std@@AEAAAEAV?$allocator@V?$unique_ptr@VLayer@@U?$default_delete@VLayer@@@std@@@std@@@2@XZ ; std::vector<std::unique_ptr<Layer,std::default_delete<Layer> >,std::allocator<std::unique_ptr<Layer,std::default_delete<Layer> > > >::_Getal
PUBLIC	?_Alloc_sentinel_and_proxy@?$_Tree@V?$_Tmap_traits@_KUgameInfo@@U?$less@_K@std@@V?$allocator@U?$pair@$$CB_KUgameInfo@@@std@@@3@$0A@@std@@@std@@IEAAXXZ ; std::_Tree<std::_Tmap_traits<unsigned __int64,gameInfo,std::less<unsigned __int64>,std::allocator<std::pair<unsigned __int64 const ,gameInfo> >,0> >::_Alloc_sentinel_and_proxy
PUBLIC	?_Get_first@?$_Compressed_pair@V?$allocator@U?$_Tree_node@U?$pair@$$CB_KUgameInfo@@@std@@PEAX@std@@@std@@V?$_Tree_val@U?$_Tree_simple_types@U?$pair@$$CB_KUgameInfo@@@std@@@std@@@2@$00@std@@QEAAAEAV?$allocator@U?$_Tree_node@U?$pair@$$CB_KUgameInfo@@@std@@PEAX@std@@@2@XZ ; std::_Compressed_pair<std::allocator<std::_Tree_node<std::pair<unsigned __int64 const ,gameInfo>,void *> >,std::_Tree_val<std::_Tree_simple_types<std::pair<unsigned __int64 const ,gameInfo> > >,1>::_Get_first
PUBLIC	?seed@?$mersenne_twister@_K$0EA@$0BDI@$0JM@$0BP@$0?EKPNJAKFFGJJOGBH@$0BN@$0BB@$0HBNGHPPPONKGAAAA@$0CF@$0?IBBCAAAAAAAAA@$0CL@@std@@QEAAX_K0@Z ; std::mersenne_twister<unsigned __int64,64,312,156,31,-5403634167711393303,29,17,8202884508482404352,37,-2270628950310912,43>::seed
PUBLIC	??0param_type@?$uniform_real@N@std@@QEAA@NN@Z	; std::uniform_real<double>::param_type::param_type
PUBLIC	?deallocate@?$allocator@H@std@@QEAAXQEAH_K@Z	; std::allocator<int>::deallocate
PUBLIC	?_Destroy@?$vector@HV?$allocator@H@std@@@std@@AEAAXPEAH0@Z ; std::vector<int,std::allocator<int> >::_Destroy
PUBLIC	?_Getal@?$vector@HV?$allocator@H@std@@@std@@AEBAAEBV?$allocator@H@2@XZ ; std::vector<int,std::allocator<int> >::_Getal
PUBLIC	?_Take_contents@?$_Vector_val@U?$_Simple_types@H@std@@@std@@QEAAXAEAV12@@Z ; std::_Vector_val<std::_Simple_types<int> >::_Take_contents
PUBLIC	?seed@?$mersenne_twister@I$0CA@$0CHA@$0BIN@$0BP@$0JJAILANP@$0L@$06$0JNCMFGIA@$0P@$0OPMGAAAA@$0BC@@std@@QEAAXII@Z ; std::mersenne_twister<unsigned int,32,624,397,31,2567483615,11,7,2636928640,15,4022730752,18>::seed
PUBLIC	??0param_type@?$uniform_int@H@std@@QEAA@HH@Z	; std::uniform_int<int>::param_type::param_type
PUBLIC	?deallocate@?$allocator@UGame@uci@@@std@@QEAAXQEAUGame@uci@@_K@Z ; std::allocator<uci::Game>::deallocate
PUBLIC	?_Destroy@?$vector@UGame@uci@@V?$allocator@UGame@uci@@@std@@@std@@AEAAXPEAUGame@uci@@0@Z ; std::vector<uci::Game,std::allocator<uci::Game> >::_Destroy
PUBLIC	??0_Sentry_base@?$basic_istream@DU?$char_traits@D@std@@@std@@QEAA@AEAV12@@Z ; std::basic_istream<char,std::char_traits<char> >::_Sentry_base::_Sentry_base
PUBLIC	??1?$evaluator@V?$PlainObjectBase@V?$Matrix@M$0?0$0?0$0A@$0?0$0?0@Eigen@@@Eigen@@@internal@Eigen@@QEAA@XZ ; Eigen::internal::evaluator<Eigen::PlainObjectBase<Eigen::Matrix<float,-1,-1,0,-1,-1> > >::~evaluator<Eigen::PlainObjectBase<Eigen::Matrix<float,-1,-1,0,-1,-1> > >
PUBLIC	??1?$evaluator@V?$Matrix@M$0?0$0?0$0A@$0?0$0?0@Eigen@@@internal@Eigen@@QEAA@XZ ; Eigen::internal::evaluator<Eigen::Matrix<float,-1,-1,0,-1,-1> >::~evaluator<Eigen::Matrix<float,-1,-1,0,-1,-1> >
PUBLIC	??0?$MatrixBase@V?$Matrix@M$0?0$0?0$0A@$0?0$0?0@Eigen@@@Eigen@@IEAA@XZ ; Eigen::MatrixBase<Eigen::Matrix<float,-1,-1,0,-1,-1> >::MatrixBase<Eigen::Matrix<float,-1,-1,0,-1,-1> >
PUBLIC	?deallocate@?$allocator@D@std@@QEAAXQEAD_K@Z	; std::allocator<char>::deallocate
PUBLIC	??$_Max_value@_K@std@@YAAEB_KAEB_K0@Z		; std::_Max_value<unsigned __int64>
PUBLIC	?allocate@?$allocator@D@std@@QEAAPEAD_K@Z	; std::allocator<char>::allocate
PUBLIC	?copy@?$_Narrow_char_traits@DH@std@@SAPEADQEADQEBD_K@Z ; std::_Narrow_char_traits<char,int>::copy
PUBLIC	?eq@?$_Narrow_char_traits@DH@std@@SA_NAEBD0@Z	; std::_Narrow_char_traits<char,int>::eq
PUBLIC	?to_int_type@?$_Narrow_char_traits@DH@std@@SAHAEBD@Z ; std::_Narrow_char_traits<char,int>::to_int_type
PUBLIC	?not_eof@?$_Narrow_char_traits@DH@std@@SAHAEBH@Z ; std::_Narrow_char_traits<char,int>::not_eof
PUBLIC	?select_on_container_copy_construction@?$_Default_allocator_traits@V?$allocator@D@std@@@std@@SA?AV?$allocator@D@2@AEBV32@@Z ; std::_Default_allocator_traits<std::allocator<char> >::select_on_container_copy_construction
PUBLIC	?_Myptr@?$_String_val@U?$_Simple_types@D@std@@@std@@QEAAPEADXZ ; std::_String_val<std::_Simple_types<char> >::_Myptr
PUBLIC	?_Myptr@?$_String_val@U?$_Simple_types@D@std@@@std@@QEBAPEBDXZ ; std::_String_val<std::_Simple_types<char> >::_Myptr
PUBLIC	??1_Bxty@?$_String_val@U?$_Simple_types@D@std@@@std@@QEAA@XZ ; std::_String_val<std::_Simple_types<char> >::_Bxty::~_Bxty
PUBLIC	??0?$basic_string@DU?$char_traits@D@std@@V?$allocator@D@2@@std@@QEAA@AEBV01@_K1AEBV?$allocator@D@1@@Z ; std::basic_string<char,std::char_traits<char>,std::allocator<char> >::basic_string<char,std::char_traits<char>,std::allocator<char> >
PUBLIC	?_Take_contents@?$basic_string@DU?$char_traits@D@std@@V?$allocator@D@2@@std@@AEAAXAEAV12@U?$integral_constant@_N$00@2@@Z ; std::basic_string<char,std::char_traits<char>,std::allocator<char> >::_Take_contents
PUBLIC	?_Construct_lv_contents@?$basic_string@DU?$char_traits@D@std@@V?$allocator@D@2@@std@@AEAAXAEBV12@@Z ; std::basic_string<char,std::char_traits<char>,std::allocator<char> >::_Construct_lv_contents
PUBLIC	??R<lambda_66f57f934f28d61049862f64df852ff0>@@QEBAXQEAD_KQEBD@Z ; <lambda_66f57f934f28d61049862f64df852ff0>::operator()
PUBLIC	?assign@?$basic_string@DU?$char_traits@D@std@@V?$allocator@D@2@@std@@QEAAAEAV12@QEBD_K@Z ; std::basic_string<char,std::char_traits<char>,std::allocator<char> >::assign
PUBLIC	?assign@?$basic_string@DU?$char_traits@D@std@@V?$allocator@D@2@@std@@QEAAAEAV12@QEBD@Z ; std::basic_string<char,std::char_traits<char>,std::allocator<char> >::assign
PUBLIC	?erase@?$basic_string@DU?$char_traits@D@std@@V?$allocator@D@2@@std@@QEAAAEAV12@_K_K@Z ; std::basic_string<char,std::char_traits<char>,std::allocator<char> >::erase
PUBLIC	??R<lambda_319d5e083f45f90dcdce5dce53cbb275>@@QEBAXQEADQEBD_KD@Z ; <lambda_319d5e083f45f90dcdce5dce53cbb275>::operator()
PUBLIC	?push_back@?$basic_string@DU?$char_traits@D@std@@V?$allocator@D@2@@std@@QEAAXD@Z ; std::basic_string<char,std::char_traits<char>,std::allocator<char> >::push_back
PUBLIC	?front@?$basic_string@DU?$char_traits@D@std@@V?$allocator@D@2@@std@@QEAAAEADXZ ; std::basic_string<char,std::char_traits<char>,std::allocator<char> >::front
PUBLIC	?data@?$basic_string@DU?$char_traits@D@std@@V?$allocator@D@2@@std@@QEAAPEADXZ ; std::basic_string<char,std::char_traits<char>,std::allocator<char> >::data
PUBLIC	?get_allocator@?$basic_string@DU?$char_traits@D@std@@V?$allocator@D@2@@std@@QEBA?AV?$allocator@D@2@XZ ; std::basic_string<char,std::char_traits<char>,std::allocator<char> >::get_allocator
PUBLIC	?_Tidy_init@?$basic_string@DU?$char_traits@D@std@@V?$allocator@D@2@@std@@AEAAXXZ ; std::basic_string<char,std::char_traits<char>,std::allocator<char> >::_Tidy_init
PUBLIC	?_Tidy_deallocate@?$basic_string@DU?$char_traits@D@std@@V?$allocator@D@2@@std@@AEAAXXZ ; std::basic_string<char,std::char_traits<char>,std::allocator<char> >::_Tidy_deallocate
PUBLIC	?_Getal@?$basic_string@DU?$char_traits@D@std@@V?$allocator@D@2@@std@@AEAAAEAV?$allocator@D@2@XZ ; std::basic_string<char,std::char_traits<char>,std::allocator<char> >::_Getal
PUBLIC	?_Getal@?$basic_string@DU?$char_traits@D@std@@V?$allocator@D@2@@std@@AEBAAEBV?$allocator@D@2@XZ ; std::basic_string<char,std::char_traits<char>,std::allocator<char> >::_Getal
PUBLIC	??0?$fpos@U_Mbstatet@@@std@@QEAA@_J@Z		; std::fpos<_Mbstatet>::fpos<_Mbstatet>
PUBLIC	??0?$fpos@U_Mbstatet@@@std@@QEAA@U_Mbstatet@@_J@Z ; std::fpos<_Mbstatet>::fpos<_Mbstatet>
PUBLIC	?state@?$fpos@U_Mbstatet@@@std@@QEBA?AU_Mbstatet@@XZ ; std::fpos<_Mbstatet>::state
PUBLIC	??B?$fpos@U_Mbstatet@@@std@@QEBA_JXZ		; std::fpos<_Mbstatet>::operator __int64
PUBLIC	??0?$basic_stringbuf@DU?$char_traits@D@std@@V?$allocator@D@2@@std@@QEAA@AEBV?$basic_string@DU?$char_traits@D@std@@V?$allocator@D@2@@1@H@Z ; std::basic_stringbuf<char,std::char_traits<char>,std::allocator<char> >::basic_stringbuf<char,std::char_traits<char>,std::allocator<char> >
PUBLIC	?_Tidy@?$basic_stringbuf@DU?$char_traits@D@std@@V?$allocator@D@2@@std@@IEAAXXZ ; std::basic_stringbuf<char,std::char_traits<char>,std::allocator<char> >::_Tidy
PUBLIC	?value@?$variable_if_dynamic@_J$00@internal@Eigen@@SA_JXZ ; Eigen::internal::variable_if_dynamic<__int64,1>::value
PUBLIC	?derived@?$EigenBase@V?$Matrix@M$0?0$0?0$0A@$0?0$0?0@Eigen@@@Eigen@@QEAAAEAV?$Matrix@M$0?0$0?0$0A@$0?0$0?0@2@XZ ; Eigen::EigenBase<Eigen::Matrix<float,-1,-1,0,-1,-1> >::derived
PUBLIC	?rows@?$EigenBase@V?$Matrix@M$0?0$0?0$0A@$0?0$0?0@Eigen@@@Eigen@@QEBA_JXZ ; Eigen::EigenBase<Eigen::Matrix<float,-1,-1,0,-1,-1> >::rows
PUBLIC	?cols@?$EigenBase@V?$Matrix@M$0?0$0?0$0A@$0?0$0?0@Eigen@@@Eigen@@QEBA_JXZ ; Eigen::EigenBase<Eigen::Matrix<float,-1,-1,0,-1,-1> >::cols
PUBLIC	?coeffRef@?$DenseCoeffsBase@V?$Matrix@M$0?0$0?0$0A@$0?0$0?0@Eigen@@$00@Eigen@@QEAAAEAM_J0@Z ; Eigen::DenseCoeffsBase<Eigen::Matrix<float,-1,-1,0,-1,-1>,1>::coeffRef
PUBLIC	?rows@?$DenseStorage@M$0?0$0?0$0?0$0A@@Eigen@@QEBA_JXZ ; Eigen::DenseStorage<float,-1,-1,-1,0>::rows
PUBLIC	?cols@?$DenseStorage@M$0?0$0?0$0?0$0A@@Eigen@@QEBA_JXZ ; Eigen::DenseStorage<float,-1,-1,-1,0>::cols
PUBLIC	?resize@?$DenseStorage@M$0?0$0?0$0?0$0A@@Eigen@@QEAAX_J00@Z ; Eigen::DenseStorage<float,-1,-1,-1,0>::resize
PUBLIC	?data@?$DenseStorage@M$0?0$0?0$0?0$0A@@Eigen@@QEAAPEAMXZ ; Eigen::DenseStorage<float,-1,-1,-1,0>::data
PUBLIC	??0?$PlainObjectBase@V?$Matrix@M$0?0$0?0$0A@$0?0$0?0@Eigen@@@Eigen@@IEAA@XZ ; Eigen::PlainObjectBase<Eigen::Matrix<float,-1,-1,0,-1,-1> >::PlainObjectBase<Eigen::Matrix<float,-1,-1,0,-1,-1> >
PUBLIC	??0?$PlainObjectBase@V?$Matrix@M$0?0$0?0$0A@$0?0$0?0@Eigen@@@Eigen@@IEAA@AEBV01@@Z ; Eigen::PlainObjectBase<Eigen::Matrix<float,-1,-1,0,-1,-1> >::PlainObjectBase<Eigen::Matrix<float,-1,-1,0,-1,-1> >
PUBLIC	?_check_template_params@?$PlainObjectBase@V?$Matrix@M$0?0$0?0$0A@$0?0$0?0@Eigen@@@Eigen@@SAXXZ ; Eigen::PlainObjectBase<Eigen::Matrix<float,-1,-1,0,-1,-1> >::_check_template_params
PUBLIC	??0?$Reshaped@V?$Matrix@M$0?0$0?0$0A@$0?0$0?0@Eigen@@$0?0$00$0A@@Eigen@@QEAA@AEAV?$Matrix@M$0?0$0?0$0A@$0?0$0?0@1@_J1@Z ; Eigen::Reshaped<Eigen::Matrix<float,-1,-1,0,-1,-1>,-1,1,0>::Reshaped<Eigen::Matrix<float,-1,-1,0,-1,-1>,-1,1,0>
PUBLIC	?_Reallocate_exactly@?$vector@V?$Matrix@M$0?0$0?0$0A@$0?0$0?0@Eigen@@V?$allocator@V?$Matrix@M$0?0$0?0$0A@$0?0$0?0@Eigen@@@std@@@std@@AEAAX_K@Z ; std::vector<Eigen::Matrix<float,-1,-1,0,-1,-1>,std::allocator<Eigen::Matrix<float,-1,-1,0,-1,-1> > >::_Reallocate_exactly
PUBLIC	?max_size@?$vector@V?$Matrix@M$0?0$0?0$0A@$0?0$0?0@Eigen@@V?$allocator@V?$Matrix@M$0?0$0?0$0A@$0?0$0?0@Eigen@@@std@@@std@@QEBA_KXZ ; std::vector<Eigen::Matrix<float,-1,-1,0,-1,-1>,std::allocator<Eigen::Matrix<float,-1,-1,0,-1,-1> > >::max_size
PUBLIC	?capacity@?$vector@V?$Matrix@M$0?0$0?0$0A@$0?0$0?0@Eigen@@V?$allocator@V?$Matrix@M$0?0$0?0$0A@$0?0$0?0@Eigen@@@std@@@std@@QEBA_KXZ ; std::vector<Eigen::Matrix<float,-1,-1,0,-1,-1>,std::allocator<Eigen::Matrix<float,-1,-1,0,-1,-1> > >::capacity
PUBLIC	?_Tidy@?$vector@V?$Matrix@M$0?0$0?0$0A@$0?0$0?0@Eigen@@V?$allocator@V?$Matrix@M$0?0$0?0$0A@$0?0$0?0@Eigen@@@std@@@std@@AEAAXXZ ; std::vector<Eigen::Matrix<float,-1,-1,0,-1,-1>,std::allocator<Eigen::Matrix<float,-1,-1,0,-1,-1> > >::_Tidy
PUBLIC	?_Xlength@?$vector@V?$Matrix@M$0?0$0?0$0A@$0?0$0?0@Eigen@@V?$allocator@V?$Matrix@M$0?0$0?0$0A@$0?0$0?0@Eigen@@@std@@@std@@CAXXZ ; std::vector<Eigen::Matrix<float,-1,-1,0,-1,-1>,std::allocator<Eigen::Matrix<float,-1,-1,0,-1,-1> > >::_Xlength
PUBLIC	?_Getal@?$vector@V?$Matrix@M$0?0$0?0$0A@$0?0$0?0@Eigen@@V?$allocator@V?$Matrix@M$0?0$0?0$0A@$0?0$0?0@Eigen@@@std@@@std@@AEBAAEBV?$allocator@V?$Matrix@M$0?0$0?0$0A@$0?0$0?0@Eigen@@@2@XZ ; std::vector<Eigen::Matrix<float,-1,-1,0,-1,-1>,std::allocator<Eigen::Matrix<float,-1,-1,0,-1,-1> > >::_Getal
PUBLIC	?_Get_first@?$_Compressed_pair@V?$allocator@V?$Matrix@M$0?0$0?0$0A@$0?0$0?0@Eigen@@@std@@V?$_Vector_val@U?$_Simple_types@V?$Matrix@M$0?0$0?0$0A@$0?0$0?0@Eigen@@@std@@@2@$00@std@@QEAAAEAV?$allocator@V?$Matrix@M$0?0$0?0$0A@$0?0$0?0@Eigen@@@2@XZ ; std::_Compressed_pair<std::allocator<Eigen::Matrix<float,-1,-1,0,-1,-1> >,std::_Vector_val<std::_Simple_types<Eigen::Matrix<float,-1,-1,0,-1,-1> > >,1>::_Get_first
PUBLIC	?_Tidy@?$vector@V?$unique_ptr@VLayer@@U?$default_delete@VLayer@@@std@@@std@@V?$allocator@V?$unique_ptr@VLayer@@U?$default_delete@VLayer@@@std@@@std@@@2@@std@@AEAAXXZ ; std::vector<std::unique_ptr<Layer,std::default_delete<Layer> >,std::allocator<std::unique_ptr<Layer,std::default_delete<Layer> > > >::_Tidy
PUBLIC	??0?$_Tree@V?$_Tmap_traits@_KUgameInfo@@U?$less@_K@std@@V?$allocator@U?$pair@$$CB_KUgameInfo@@@std@@@3@$0A@@std@@@std@@QEAA@AEBU?$less@_K@1@@Z ; std::_Tree<std::_Tmap_traits<unsigned __int64,gameInfo,std::less<unsigned __int64>,std::allocator<std::pair<unsigned __int64 const ,gameInfo> >,0> >::_Tree<std::_Tmap_traits<unsigned __int64,gameInfo,std::less<unsigned __int64>,std::allocator<std::pair<unsigned __int64 const ,gameInfo> >,0> >
PUBLIC	?_Getal@?$_Tree@V?$_Tmap_traits@_KUgameInfo@@U?$less@_K@std@@V?$allocator@U?$pair@$$CB_KUgameInfo@@@std@@@3@$0A@@std@@@std@@IEAAAEAV?$allocator@U?$_Tree_node@U?$pair@$$CB_KUgameInfo@@@std@@PEAX@std@@@2@XZ ; std::_Tree<std::_Tmap_traits<unsigned __int64,gameInfo,std::less<unsigned __int64>,std::allocator<std::pair<unsigned __int64 const ,gameInfo> >,0> >::_Getal
PUBLIC	?_Get_scary@?$_Tree@V?$_Tmap_traits@_KUgameInfo@@U?$less@_K@std@@V?$allocator@U?$pair@$$CB_KUgameInfo@@@std@@@3@$0A@@std@@@std@@IEAAPEAV?$_Tree_val@U?$_Tree_simple_types@U?$pair@$$CB_KUgameInfo@@@std@@@std@@@2@XZ ; std::_Tree<std::_Tmap_traits<unsigned __int64,gameInfo,std::less<unsigned __int64>,std::allocator<std::pair<unsigned __int64 const ,gameInfo> >,0> >::_Get_scary
PUBLIC	?_Orphan_ptr@?$_Tree_val@U?$_Tree_simple_types@U?$pair@$$CB_KUgameInfo@@@std@@@std@@@std@@QEAAXQEAU?$_Tree_node@U?$pair@$$CB_KUgameInfo@@@std@@PEAX@2@@Z ; std::_Tree_val<std::_Tree_simple_types<std::pair<unsigned __int64 const ,gameInfo> > >::_Orphan_ptr
PUBLIC	??0?$basic_filebuf@DU?$char_traits@D@std@@@std@@QEAA@XZ ; std::basic_filebuf<char,std::char_traits<char> >::basic_filebuf<char,std::char_traits<char> >
PUBLIC	?open@?$basic_filebuf@DU?$char_traits@D@std@@@std@@QEAAPEAV12@PEBDHH@Z ; std::basic_filebuf<char,std::char_traits<char> >::open
PUBLIC	?close@?$basic_filebuf@DU?$char_traits@D@std@@@std@@QEAAPEAV12@XZ ; std::basic_filebuf<char,std::char_traits<char> >::close
PUBLIC	?_Init@?$basic_filebuf@DU?$char_traits@D@std@@@std@@IEAAXPEAU_iobuf@@W4_Initfl@12@@Z ; std::basic_filebuf<char,std::char_traits<char> >::_Init
PUBLIC	?_Endwrite@?$basic_filebuf@DU?$char_traits@D@std@@@std@@IEAA_NXZ ; std::basic_filebuf<char,std::char_traits<char> >::_Endwrite
PUBLIC	?_Initcvt@?$basic_filebuf@DU?$char_traits@D@std@@@std@@IEAAXAEBV?$codecvt@DDU_Mbstatet@@@2@@Z ; std::basic_filebuf<char,std::char_traits<char> >::_Initcvt
PUBLIC	?_Reset_back@?$basic_filebuf@DU?$char_traits@D@std@@@std@@AEAAXXZ ; std::basic_filebuf<char,std::char_traits<char> >::_Reset_back
PUBLIC	?_Set_back@?$basic_filebuf@DU?$char_traits@D@std@@@std@@AEAAXXZ ; std::basic_filebuf<char,std::char_traits<char> >::_Set_back
PUBLIC	??0?$mersenne_twister@_K$0EA@$0BDI@$0JM@$0BP@$0?EKPNJAKFFGJJOGBH@$0BN@$0BB@$0HBNGHPPPONKGAAAA@$0CF@$0?IBBCAAAAAAAAA@$0CL@@std@@QEAA@_K00@Z ; std::mersenne_twister<unsigned __int64,64,312,156,31,-5403634167711393303,29,17,8202884508482404352,37,-2270628950310912,43>::mersenne_twister<unsigned __int64,64,312,156,31,-5403634167711393303,29,17,8202884508482404352,37,-2270628950310912,43>
PUBLIC	??0?$uniform_real@N@std@@QEAA@NN@Z		; std::uniform_real<double>::uniform_real<double>
PUBLIC	?_Move_assign@?$vector@HV?$allocator@H@std@@@std@@AEAAXAEAV12@U_Equal_allocators@2@@Z ; std::vector<int,std::allocator<int> >::_Move_assign
PUBLIC	?_Tidy@?$vector@HV?$allocator@H@std@@@std@@AEAAXXZ ; std::vector<int,std::allocator<int> >::_Tidy
PUBLIC	?_Get_first@?$_Compressed_pair@V?$allocator@H@std@@V?$_Vector_val@U?$_Simple_types@H@std@@@2@$00@std@@QEAAAEAV?$allocator@H@2@XZ ; std::_Compressed_pair<std::allocator<int>,std::_Vector_val<std::_Simple_types<int> >,1>::_Get_first
PUBLIC	??0?$mersenne_twister@I$0CA@$0CHA@$0BIN@$0BP@$0JJAILANP@$0L@$06$0JNCMFGIA@$0P@$0OPMGAAAA@$0BC@@std@@QEAA@III@Z ; std::mersenne_twister<unsigned int,32,624,397,31,2567483615,11,7,2636928640,15,4022730752,18>::mersenne_twister<unsigned int,32,624,397,31,2567483615,11,7,2636928640,15,4022730752,18>
PUBLIC	??0?$uniform_int@H@std@@QEAA@HH@Z		; std::uniform_int<int>::uniform_int<int>
PUBLIC	?_Tidy@?$vector@UGame@uci@@V?$allocator@UGame@uci@@@std@@@std@@AEAAXXZ ; std::vector<uci::Game,std::allocator<uci::Game> >::_Tidy
PUBLIC	?_Get_first@?$_Compressed_pair@V?$allocator@UGame@uci@@@std@@V?$_Vector_val@U?$_Simple_types@UGame@uci@@@std@@@2@$00@std@@QEAAAEAV?$allocator@UGame@uci@@@2@XZ ; std::_Compressed_pair<std::allocator<uci::Game>,std::_Vector_val<std::_Simple_types<uci::Game> >,1>::_Get_first
PUBLIC	?pointer_to@?$pointer_traits@PEAD@std@@SAPEADAEAD@Z ; std::pointer_traits<char *>::pointer_to
PUBLIC	??1_Sentry_base@?$basic_istream@DU?$char_traits@D@std@@@std@@QEAA@XZ ; std::basic_istream<char,std::char_traits<char> >::_Sentry_base::~_Sentry_base
PUBLIC	??0sentry@?$basic_istream@DU?$char_traits@D@std@@@std@@QEAA@AEAV12@_N@Z ; std::basic_istream<char,std::char_traits<char> >::sentry::sentry
PUBLIC	??Bsentry@?$basic_istream@DU?$char_traits@D@std@@@std@@QEBA_NXZ ; std::basic_istream<char,std::char_traits<char> >::sentry::operator bool
PUBLIC	??1?$_String_val@U?$_Simple_types@D@std@@@std@@QEAA@XZ ; std::_String_val<std::_Simple_types<char> >::~_String_val<std::_Simple_types<char> >
PUBLIC	??1?$_Compressed_pair@V?$allocator@D@std@@V?$_String_val@U?$_Simple_types@D@std@@@2@$00@std@@QEAA@XZ ; std::_Compressed_pair<std::allocator<char>,std::_String_val<std::_Simple_types<char> >,1>::~_Compressed_pair<std::allocator<char>,std::_String_val<std::_Simple_types<char> >,1>
PUBLIC	??1sentry@?$basic_istream@DU?$char_traits@D@std@@@std@@QEAA@XZ ; std::basic_istream<char,std::char_traits<char> >::sentry::~sentry
PUBLIC	??_G?$basic_stringstream@DU?$char_traits@D@std@@V?$allocator@D@2@@std@@UEAAPEAXI@Z ; std::basic_stringstream<char,std::char_traits<char>,std::allocator<char> >::`scalar deleting destructor'
PUBLIC	??_G?$basic_stringbuf@DU?$char_traits@D@std@@V?$allocator@D@2@@std@@UEAAPEAXI@Z ; std::basic_stringbuf<char,std::char_traits<char>,std::allocator<char> >::`scalar deleting destructor'
PUBLIC	??_G?$basic_ofstream@DU?$char_traits@D@std@@@std@@UEAAPEAXI@Z ; std::basic_ofstream<char,std::char_traits<char> >::`scalar deleting destructor'
PUBLIC	??_G?$basic_filebuf@DU?$char_traits@D@std@@@std@@UEAAPEAXI@Z ; std::basic_filebuf<char,std::char_traits<char> >::`scalar deleting destructor'
PUBLIC	??_G?$basic_ifstream@DU?$char_traits@D@std@@@std@@UEAAPEAXI@Z ; std::basic_ifstream<char,std::char_traits<char> >::`scalar deleting destructor'
PUBLIC	??0?$basic_string@DU?$char_traits@D@std@@V?$allocator@D@2@@std@@QEAA@AEBV01@@Z ; std::basic_string<char,std::char_traits<char>,std::allocator<char> >::basic_string<char,std::char_traits<char>,std::allocator<char> >
PUBLIC	??0?$basic_string@DU?$char_traits@D@std@@V?$allocator@D@2@@std@@QEAA@XZ ; std::basic_string<char,std::char_traits<char>,std::allocator<char> >::basic_string<char,std::char_traits<char>,std::allocator<char> >
PUBLIC	??0?$basic_string@DU?$char_traits@D@std@@V?$allocator@D@2@@std@@QEAA@QEBD@Z ; std::basic_string<char,std::char_traits<char>,std::allocator<char> >::basic_string<char,std::char_traits<char>,std::allocator<char> >
PUBLIC	??0?$basic_string@DU?$char_traits@D@std@@V?$allocator@D@2@@std@@QEAA@$$QEAV01@@Z ; std::basic_string<char,std::char_traits<char>,std::allocator<char> >::basic_string<char,std::char_traits<char>,std::allocator<char> >
PUBLIC	??1?$basic_string@DU?$char_traits@D@std@@V?$allocator@D@2@@std@@QEAA@XZ ; std::basic_string<char,std::char_traits<char>,std::allocator<char> >::~basic_string<char,std::char_traits<char>,std::allocator<char> >
PUBLIC	??Y?$basic_string@DU?$char_traits@D@std@@V?$allocator@D@2@@std@@QEAAAEAV01@D@Z ; std::basic_string<char,std::char_traits<char>,std::allocator<char> >::operator+=
PUBLIC	??A?$basic_string@DU?$char_traits@D@std@@V?$allocator@D@2@@std@@QEAAAEAD_K@Z ; std::basic_string<char,std::char_traits<char>,std::allocator<char> >::operator[]
PUBLIC	??A?$basic_string@DU?$char_traits@D@std@@V?$allocator@D@2@@std@@QEBAAEBD_K@Z ; std::basic_string<char,std::char_traits<char>,std::allocator<char> >::operator[]
PUBLIC	?c_str@?$basic_string@DU?$char_traits@D@std@@V?$allocator@D@2@@std@@QEBAPEBDXZ ; std::basic_string<char,std::char_traits<char>,std::allocator<char> >::c_str
PUBLIC	?length@?$basic_string@DU?$char_traits@D@std@@V?$allocator@D@2@@std@@QEBA_KXZ ; std::basic_string<char,std::char_traits<char>,std::allocator<char> >::length
PUBLIC	?size@?$basic_string@DU?$char_traits@D@std@@V?$allocator@D@2@@std@@QEBA_KXZ ; std::basic_string<char,std::char_traits<char>,std::allocator<char> >::size
PUBLIC	?find@?$basic_string@DU?$char_traits@D@std@@V?$allocator@D@2@@std@@QEBA_KQEBD_K@Z ; std::basic_string<char,std::char_traits<char>,std::allocator<char> >::find
PUBLIC	?find@?$basic_string@DU?$char_traits@D@std@@V?$allocator@D@2@@std@@QEBA_KD_K@Z ; std::basic_string<char,std::char_traits<char>,std::allocator<char> >::find
PUBLIC	?substr@?$basic_string@DU?$char_traits@D@std@@V?$allocator@D@2@@std@@QEBA?AV12@_K0@Z ; std::basic_string<char,std::char_traits<char>,std::allocator<char> >::substr
PUBLIC	??0?$time_point@Usteady_clock@chrono@std@@V?$duration@_JU?$ratio@$00$0DLJKMKAA@@std@@@23@@chrono@std@@QEAA@AEBV?$duration@_JU?$ratio@$00$0DLJKMKAA@@std@@@12@@Z ; std::chrono::time_point<std::chrono::steady_clock,std::chrono::duration<__int64,std::ratio<1,1000000000> > >::time_point<std::chrono::steady_clock,std::chrono::duration<__int64,std::ratio<1,1000000000> > >
PUBLIC	??0?$basic_stringstream@DU?$char_traits@D@std@@V?$allocator@D@2@@std@@QEAA@AEBV?$basic_string@DU?$char_traits@D@std@@V?$allocator@D@2@@1@H@Z ; std::basic_stringstream<char,std::char_traits<char>,std::allocator<char> >::basic_stringstream<char,std::char_traits<char>,std::allocator<char> >
PUBLIC	??1?$basic_stringstream@DU?$char_traits@D@std@@V?$allocator@D@2@@std@@UEAA@XZ ; std::basic_stringstream<char,std::char_traits<char>,std::allocator<char> >::~basic_stringstream<char,std::char_traits<char>,std::allocator<char> >
PUBLIC	??1?$basic_stringbuf@DU?$char_traits@D@std@@V?$allocator@D@2@@std@@UEAA@XZ ; std::basic_stringbuf<char,std::char_traits<char>,std::allocator<char> >::~basic_stringbuf<char,std::char_traits<char>,std::allocator<char> >
PUBLIC	?overflow@?$basic_stringbuf@DU?$char_traits@D@std@@V?$allocator@D@2@@std@@MEAAHH@Z ; std::basic_stringbuf<char,std::char_traits<char>,std::allocator<char> >::overflow
PUBLIC	?pbackfail@?$basic_stringbuf@DU?$char_traits@D@std@@V?$allocator@D@2@@std@@MEAAHH@Z ; std::basic_stringbuf<char,std::char_traits<char>,std::allocator<char> >::pbackfail
PUBLIC	?underflow@?$basic_stringbuf@DU?$char_traits@D@std@@V?$allocator@D@2@@std@@MEAAHXZ ; std::basic_stringbuf<char,std::char_traits<char>,std::allocator<char> >::underflow
PUBLIC	?seekoff@?$basic_stringbuf@DU?$char_traits@D@std@@V?$allocator@D@2@@std@@MEAA?AV?$fpos@U_Mbstatet@@@2@_JHH@Z ; std::basic_stringbuf<char,std::char_traits<char>,std::allocator<char> >::seekoff
PUBLIC	?seekpos@?$basic_stringbuf@DU?$char_traits@D@std@@V?$allocator@D@2@@std@@MEAA?AV?$fpos@U_Mbstatet@@@2@V32@H@Z ; std::basic_stringbuf<char,std::char_traits<char>,std::allocator<char> >::seekpos
PUBLIC	?size@?$EigenBase@V?$Matrix@M$0?0$0?0$0A@$0?0$0?0@Eigen@@@Eigen@@QEBA_JXZ ; Eigen::EigenBase<Eigen::Matrix<float,-1,-1,0,-1,-1> >::size
PUBLIC	??R?$DenseCoeffsBase@V?$Matrix@M$0?0$0?0$0A@$0?0$0?0@Eigen@@$00@Eigen@@QEAAAEAM_J0@Z ; Eigen::DenseCoeffsBase<Eigen::Matrix<float,-1,-1,0,-1,-1>,1>::operator()
PUBLIC	?reshaped@?$DenseBase@V?$Matrix@M$0?0$0?0$0A@$0?0$0?0@Eigen@@@Eigen@@QEAA?AV?$Reshaped@V?$Matrix@M$0?0$0?0$0A@$0?0$0?0@Eigen@@$0?0$00$0A@@2@XZ ; Eigen::DenseBase<Eigen::Matrix<float,-1,-1,0,-1,-1> >::reshaped
PUBLIC	??1?$DenseStorage@M$0?0$0?0$0?0$0A@@Eigen@@QEAA@XZ ; Eigen::DenseStorage<float,-1,-1,-1,0>::~DenseStorage<float,-1,-1,-1,0>
PUBLIC	?rows@?$PlainObjectBase@V?$Matrix@M$0?0$0?0$0A@$0?0$0?0@Eigen@@@Eigen@@QEBA_JXZ ; Eigen::PlainObjectBase<Eigen::Matrix<float,-1,-1,0,-1,-1> >::rows
PUBLIC	?cols@?$PlainObjectBase@V?$Matrix@M$0?0$0?0$0A@$0?0$0?0@Eigen@@@Eigen@@QEBA_JXZ ; Eigen::PlainObjectBase<Eigen::Matrix<float,-1,-1,0,-1,-1> >::cols
PUBLIC	?data@?$PlainObjectBase@V?$Matrix@M$0?0$0?0$0A@$0?0$0?0@Eigen@@@Eigen@@QEAAPEAMXZ ; Eigen::PlainObjectBase<Eigen::Matrix<float,-1,-1,0,-1,-1> >::data
PUBLIC	?resize@?$PlainObjectBase@V?$Matrix@M$0?0$0?0$0A@$0?0$0?0@Eigen@@@Eigen@@QEAAX_J0@Z ; Eigen::PlainObjectBase<Eigen::Matrix<float,-1,-1,0,-1,-1> >::resize
PUBLIC	??0?$Matrix@M$0?0$0?0$0A@$0?0$0?0@Eigen@@QEAA@XZ ; Eigen::Matrix<float,-1,-1,0,-1,-1>::Matrix<float,-1,-1,0,-1,-1>
PUBLIC	??0?$Matrix@M$0?0$0?0$0A@$0?0$0?0@Eigen@@QEAA@AEBV01@@Z ; Eigen::Matrix<float,-1,-1,0,-1,-1>::Matrix<float,-1,-1,0,-1,-1>
PUBLIC	??D?$pointer_based_stl_iterator@V?$Reshaped@V?$Matrix@M$0?0$0?0$0A@$0?0$0?0@Eigen@@$0?0$00$0A@@Eigen@@@internal@Eigen@@QEBAAEAMXZ ; Eigen::internal::pointer_based_stl_iterator<Eigen::Reshaped<Eigen::Matrix<float,-1,-1,0,-1,-1>,-1,1,0> >::operator*
PUBLIC	??E?$pointer_based_stl_iterator@V?$Reshaped@V?$Matrix@M$0?0$0?0$0A@$0?0$0?0@Eigen@@$0?0$00$0A@@Eigen@@@internal@Eigen@@QEAAAEAV012@XZ ; Eigen::internal::pointer_based_stl_iterator<Eigen::Reshaped<Eigen::Matrix<float,-1,-1,0,-1,-1>,-1,1,0> >::operator++
PUBLIC	??9?$pointer_based_stl_iterator@V?$Reshaped@V?$Matrix@M$0?0$0?0$0A@$0?0$0?0@Eigen@@$0?0$00$0A@@Eigen@@@internal@Eigen@@QEBA_NAEBV012@@Z ; Eigen::internal::pointer_based_stl_iterator<Eigen::Reshaped<Eigen::Matrix<float,-1,-1,0,-1,-1>,-1,1,0> >::operator!=
PUBLIC	??0?$vector@V?$Matrix@M$0?0$0?0$0A@$0?0$0?0@Eigen@@V?$allocator@V?$Matrix@M$0?0$0?0$0A@$0?0$0?0@Eigen@@@std@@@std@@QEAA@XZ ; std::vector<Eigen::Matrix<float,-1,-1,0,-1,-1>,std::allocator<Eigen::Matrix<float,-1,-1,0,-1,-1> > >::vector<Eigen::Matrix<float,-1,-1,0,-1,-1>,std::allocator<Eigen::Matrix<float,-1,-1,0,-1,-1> > >
PUBLIC	??1?$vector@V?$Matrix@M$0?0$0?0$0A@$0?0$0?0@Eigen@@V?$allocator@V?$Matrix@M$0?0$0?0$0A@$0?0$0?0@Eigen@@@std@@@std@@QEAA@XZ ; std::vector<Eigen::Matrix<float,-1,-1,0,-1,-1>,std::allocator<Eigen::Matrix<float,-1,-1,0,-1,-1> > >::~vector<Eigen::Matrix<float,-1,-1,0,-1,-1>,std::allocator<Eigen::Matrix<float,-1,-1,0,-1,-1> > >
PUBLIC	?reserve@?$vector@V?$Matrix@M$0?0$0?0$0A@$0?0$0?0@Eigen@@V?$allocator@V?$Matrix@M$0?0$0?0$0A@$0?0$0?0@Eigen@@@std@@@std@@QEAAX_K@Z ; std::vector<Eigen::Matrix<float,-1,-1,0,-1,-1>,std::allocator<Eigen::Matrix<float,-1,-1,0,-1,-1> > >::reserve
PUBLIC	?size@?$vector@V?$Matrix@M$0?0$0?0$0A@$0?0$0?0@Eigen@@V?$allocator@V?$Matrix@M$0?0$0?0$0A@$0?0$0?0@Eigen@@@std@@@std@@QEBA_KXZ ; std::vector<Eigen::Matrix<float,-1,-1,0,-1,-1>,std::allocator<Eigen::Matrix<float,-1,-1,0,-1,-1> > >::size
PUBLIC	??A?$vector@V?$Matrix@M$0?0$0?0$0A@$0?0$0?0@Eigen@@V?$allocator@V?$Matrix@M$0?0$0?0$0A@$0?0$0?0@Eigen@@@std@@@std@@QEAAAEAV?$Matrix@M$0?0$0?0$0A@$0?0$0?0@Eigen@@_K@Z ; std::vector<Eigen::Matrix<float,-1,-1,0,-1,-1>,std::allocator<Eigen::Matrix<float,-1,-1,0,-1,-1> > >::operator[]
PUBLIC	?_Orphan_range@?$vector@V?$Matrix@M$0?0$0?0$0A@$0?0$0?0@Eigen@@V?$allocator@V?$Matrix@M$0?0$0?0$0A@$0?0$0?0@Eigen@@@std@@@std@@AEBAXPEAV?$Matrix@M$0?0$0?0$0A@$0?0$0?0@Eigen@@0@Z ; std::vector<Eigen::Matrix<float,-1,-1,0,-1,-1>,std::allocator<Eigen::Matrix<float,-1,-1,0,-1,-1> > >::_Orphan_range
PUBLIC	?_Getal@?$vector@V?$Matrix@M$0?0$0?0$0A@$0?0$0?0@Eigen@@V?$allocator@V?$Matrix@M$0?0$0?0$0A@$0?0$0?0@Eigen@@@std@@@std@@AEAAAEAV?$allocator@V?$Matrix@M$0?0$0?0$0A@$0?0$0?0@Eigen@@@2@XZ ; std::vector<Eigen::Matrix<float,-1,-1,0,-1,-1>,std::allocator<Eigen::Matrix<float,-1,-1,0,-1,-1> > >::_Getal
PUBLIC	??1?$vector@V?$unique_ptr@VLayer@@U?$default_delete@VLayer@@@std@@@std@@V?$allocator@V?$unique_ptr@VLayer@@U?$default_delete@VLayer@@@std@@@std@@@2@@std@@QEAA@XZ ; std::vector<std::unique_ptr<Layer,std::default_delete<Layer> >,std::allocator<std::unique_ptr<Layer,std::default_delete<Layer> > > >::~vector<std::unique_ptr<Layer,std::default_delete<Layer> >,std::allocator<std::unique_ptr<Layer,std::default_delete<Layer> > > >
PUBLIC	??1?$_Tree@V?$_Tmap_traits@_KUgameInfo@@U?$less@_K@std@@V?$allocator@U?$pair@$$CB_KUgameInfo@@@std@@@3@$0A@@std@@@std@@QEAA@XZ ; std::_Tree<std::_Tmap_traits<unsigned __int64,gameInfo,std::less<unsigned __int64>,std::allocator<std::pair<unsigned __int64 const ,gameInfo> >,0> >::~_Tree<std::_Tmap_traits<unsigned __int64,gameInfo,std::less<unsigned __int64>,std::allocator<std::pair<unsigned __int64 const ,gameInfo> >,0> >
PUBLIC	?clear@?$_Tree@V?$_Tmap_traits@_KUgameInfo@@U?$less@_K@std@@V?$allocator@U?$pair@$$CB_KUgameInfo@@@std@@@3@$0A@@std@@@std@@QEAAXXZ ; std::_Tree<std::_Tmap_traits<unsigned __int64,gameInfo,std::less<unsigned __int64>,std::allocator<std::pair<unsigned __int64 const ,gameInfo> >,0> >::clear
PUBLIC	??0?$map@_KUgameInfo@@U?$less@_K@std@@V?$allocator@U?$pair@$$CB_KUgameInfo@@@std@@@3@@std@@QEAA@XZ ; std::map<unsigned __int64,gameInfo,std::less<unsigned __int64>,std::allocator<std::pair<unsigned __int64 const ,gameInfo> > >::map<unsigned __int64,gameInfo,std::less<unsigned __int64>,std::allocator<std::pair<unsigned __int64 const ,gameInfo> > >
PUBLIC	??0?$initializer_list@H@std@@QEAA@PEBH0@Z	; std::initializer_list<int>::initializer_list<int>
PUBLIC	??0?$basic_ofstream@DU?$char_traits@D@std@@@std@@QEAA@PEBDHH@Z ; std::basic_ofstream<char,std::char_traits<char> >::basic_ofstream<char,std::char_traits<char> >
PUBLIC	??1?$basic_ofstream@DU?$char_traits@D@std@@@std@@UEAA@XZ ; std::basic_ofstream<char,std::char_traits<char> >::~basic_ofstream<char,std::char_traits<char> >
PUBLIC	?close@?$basic_ofstream@DU?$char_traits@D@std@@@std@@QEAAXXZ ; std::basic_ofstream<char,std::char_traits<char> >::close
PUBLIC	??1?$basic_filebuf@DU?$char_traits@D@std@@@std@@UEAA@XZ ; std::basic_filebuf<char,std::char_traits<char> >::~basic_filebuf<char,std::char_traits<char> >
PUBLIC	?_Lock@?$basic_filebuf@DU?$char_traits@D@std@@@std@@UEAAXXZ ; std::basic_filebuf<char,std::char_traits<char> >::_Lock
PUBLIC	?_Unlock@?$basic_filebuf@DU?$char_traits@D@std@@@std@@UEAAXXZ ; std::basic_filebuf<char,std::char_traits<char> >::_Unlock
PUBLIC	?to_char_type@?$_Narrow_char_traits@DH@std@@SADAEBH@Z ; std::_Narrow_char_traits<char,int>::to_char_type
PUBLIC	?overflow@?$basic_filebuf@DU?$char_traits@D@std@@@std@@MEAAHH@Z ; std::basic_filebuf<char,std::char_traits<char> >::overflow
PUBLIC	?pbackfail@?$basic_filebuf@DU?$char_traits@D@std@@@std@@MEAAHH@Z ; std::basic_filebuf<char,std::char_traits<char> >::pbackfail
PUBLIC	?underflow@?$basic_filebuf@DU?$char_traits@D@std@@@std@@MEAAHXZ ; std::basic_filebuf<char,std::char_traits<char> >::underflow
PUBLIC	?uflow@?$basic_filebuf@DU?$char_traits@D@std@@@std@@MEAAHXZ ; std::basic_filebuf<char,std::char_traits<char> >::uflow
PUBLIC	?xsgetn@?$basic_filebuf@DU?$char_traits@D@std@@@std@@MEAA_JPEAD_J@Z ; std::basic_filebuf<char,std::char_traits<char> >::xsgetn
PUBLIC	?xsputn@?$basic_filebuf@DU?$char_traits@D@std@@@std@@MEAA_JPEBD_J@Z ; std::basic_filebuf<char,std::char_traits<char> >::xsputn
PUBLIC	?seekoff@?$basic_filebuf@DU?$char_traits@D@std@@@std@@MEAA?AV?$fpos@U_Mbstatet@@@2@_JHH@Z ; std::basic_filebuf<char,std::char_traits<char> >::seekoff
PUBLIC	?seekpos@?$basic_filebuf@DU?$char_traits@D@std@@@std@@MEAA?AV?$fpos@U_Mbstatet@@@2@V32@H@Z ; std::basic_filebuf<char,std::char_traits<char> >::seekpos
PUBLIC	?setbuf@?$basic_filebuf@DU?$char_traits@D@std@@@std@@MEAAPEAV?$basic_streambuf@DU?$char_traits@D@std@@@2@PEAD_J@Z ; std::basic_filebuf<char,std::char_traits<char> >::setbuf
PUBLIC	?sync@?$basic_filebuf@DU?$char_traits@D@std@@@std@@MEAAHXZ ; std::basic_filebuf<char,std::char_traits<char> >::sync
PUBLIC	?imbue@?$basic_filebuf@DU?$char_traits@D@std@@@std@@MEAAXAEBVlocale@2@@Z ; std::basic_filebuf<char,std::char_traits<char> >::imbue
PUBLIC	??0?$mersenne_twister_engine@_K$0EA@$0BDI@$0JM@$0BP@$0?EKPNJAKFFGJJOGBH@$0BN@$0FFFFFFFFFFFFFFFF@$0BB@$0HBNGHPPPONKGAAAA@$0CF@$0?IBBCAAAAAAAAA@$0CL@$0FIFBPECNEMJFHPCN@@std@@QEAA@_K@Z ; std::mersenne_twister_engine<unsigned __int64,64,312,156,31,-5403634167711393303,29,6148914691236517205,17,8202884508482404352,37,-2270628950310912,43,6364136223846793005>::mersenne_twister_engine<unsigned __int64,64,312,156,31,-5403634167711393303,29,6148914691236517205,17,8202884508482404352,37,-2270628950310912,43,6364136223846793005>
PUBLIC	??0?$uniform_real_distribution@N@std@@QEAA@NN@Z	; std::uniform_real_distribution<double>::uniform_real_distribution<double>
PUBLIC	??0?$vector@HV?$allocator@H@std@@@std@@QEAA@XZ	; std::vector<int,std::allocator<int> >::vector<int,std::allocator<int> >
PUBLIC	??4?$vector@HV?$allocator@H@std@@@std@@QEAAAEAV01@$$QEAV01@@Z ; std::vector<int,std::allocator<int> >::operator=
PUBLIC	??1?$vector@HV?$allocator@H@std@@@std@@QEAA@XZ	; std::vector<int,std::allocator<int> >::~vector<int,std::allocator<int> >
PUBLIC	?_Orphan_range@?$vector@HV?$allocator@H@std@@@std@@AEBAXPEAH0@Z ; std::vector<int,std::allocator<int> >::_Orphan_range
PUBLIC	?_Getal@?$vector@HV?$allocator@H@std@@@std@@AEAAAEAV?$allocator@H@2@XZ ; std::vector<int,std::allocator<int> >::_Getal
PUBLIC	??0?$mersenne_twister_engine@I$0CA@$0CHA@$0BIN@$0BP@$0JJAILANP@$0L@$0PPPPPPPP@$06$0JNCMFGIA@$0P@$0OPMGAAAA@$0BC@$0GMAHIJGF@@std@@QEAA@I@Z ; std::mersenne_twister_engine<unsigned int,32,624,397,31,2567483615,11,4294967295,7,2636928640,15,4022730752,18,1812433253>::mersenne_twister_engine<unsigned int,32,624,397,31,2567483615,11,4294967295,7,2636928640,15,4022730752,18,1812433253>
PUBLIC	??0?$uniform_int_distribution@H@std@@QEAA@HH@Z	; std::uniform_int_distribution<int>::uniform_int_distribution<int>
PUBLIC	??0?$vector@UGame@uci@@V?$allocator@UGame@uci@@@std@@@std@@QEAA@XZ ; std::vector<uci::Game,std::allocator<uci::Game> >::vector<uci::Game,std::allocator<uci::Game> >
PUBLIC	??1?$vector@UGame@uci@@V?$allocator@UGame@uci@@@std@@@std@@QEAA@XZ ; std::vector<uci::Game,std::allocator<uci::Game> >::~vector<uci::Game,std::allocator<uci::Game> >
PUBLIC	??A?$vector@UGame@uci@@V?$allocator@UGame@uci@@@std@@@std@@QEAAAEAUGame@uci@@_K@Z ; std::vector<uci::Game,std::allocator<uci::Game> >::operator[]
PUBLIC	?_Orphan_range@?$vector@UGame@uci@@V?$allocator@UGame@uci@@@std@@@std@@AEBAXPEAUGame@uci@@0@Z ; std::vector<uci::Game,std::allocator<uci::Game> >::_Orphan_range
PUBLIC	?_Getal@?$vector@UGame@uci@@V?$allocator@UGame@uci@@@std@@@std@@AEAAAEAV?$allocator@UGame@uci@@@2@XZ ; std::vector<uci::Game,std::allocator<uci::Game> >::_Getal
PUBLIC	??0?$basic_ifstream@DU?$char_traits@D@std@@@std@@QEAA@PEBDHH@Z ; std::basic_ifstream<char,std::char_traits<char> >::basic_ifstream<char,std::char_traits<char> >
PUBLIC	??1?$basic_ifstream@DU?$char_traits@D@std@@@std@@UEAA@XZ ; std::basic_ifstream<char,std::char_traits<char> >::~basic_ifstream<char,std::char_traits<char> >
PUBLIC	main
PUBLIC	?__autoclassinit2@?$basic_ifstream@DU?$char_traits@D@std@@@std@@QEAAX_K@Z ; std::basic_ifstream<char,std::char_traits<char> >::__autoclassinit2
PUBLIC	??_D?$basic_ifstream@DU?$char_traits@D@std@@@std@@QEAAXXZ ; std::basic_ifstream<char,std::char_traits<char> >::`vbase destructor'
PUBLIC	?calculate@uci@@YAXXZ				; uci::calculate
PUBLIC	?rate@uci@@YAXXZ				; uci::rate
PUBLIC	??1Game@uci@@QEAA@XZ				; uci::Game::~Game
PUBLIC	?__autoclassinit2@?$vector@UGame@uci@@V?$allocator@UGame@uci@@@std@@@std@@QEAAX_K@Z ; std::vector<uci::Game,std::allocator<uci::Game> >::__autoclassinit2
PUBLIC	??$_Emplace_back_with_unused_capacity@UGame@uci@@@?$vector@UGame@uci@@V?$allocator@UGame@uci@@@std@@@std@@AEAAAEAUGame@uci@@$$QEAU23@@Z ; std::vector<uci::Game,std::allocator<uci::Game> >::_Emplace_back_with_unused_capacity<uci::Game>
PUBLIC	??$emplace_back@UGame@uci@@@?$vector@UGame@uci@@V?$allocator@UGame@uci@@@std@@@std@@QEAAAEAUGame@uci@@$$QEAU23@@Z ; std::vector<uci::Game,std::allocator<uci::Game> >::emplace_back<uci::Game>
PUBLIC	??$_Emplace_back_with_unused_capacity@AEAH@?$vector@HV?$allocator@H@std@@@std@@AEAAAEAHAEAH@Z ; std::vector<int,std::allocator<int> >::_Emplace_back_with_unused_capacity<int &>
PUBLIC	??$emplace_back@AEAH@?$vector@HV?$allocator@H@std@@@std@@QEAAAEAHAEAH@Z ; std::vector<int,std::allocator<int> >::emplace_back<int &>
PUBLIC	??$_Emplace_back_with_unused_capacity@$$CBV?$Matrix@M$0?0$0?0$0A@$0?0$0?0@Eigen@@@?$vector@V?$Matrix@M$0?0$0?0$0A@$0?0$0?0@Eigen@@V?$allocator@V?$Matrix@M$0?0$0?0$0A@$0?0$0?0@Eigen@@@std@@@std@@AEAAAEAV?$Matrix@M$0?0$0?0$0A@$0?0$0?0@Eigen@@$$QEBV23@@Z ; std::vector<Eigen::Matrix<float,-1,-1,0,-1,-1>,std::allocator<Eigen::Matrix<float,-1,-1,0,-1,-1> > >::_Emplace_back_with_unused_capacity<Eigen::Matrix<float,-1,-1,0,-1,-1> const >
PUBLIC	??$emplace_back@$$CBV?$Matrix@M$0?0$0?0$0A@$0?0$0?0@Eigen@@@?$vector@V?$Matrix@M$0?0$0?0$0A@$0?0$0?0@Eigen@@V?$allocator@V?$Matrix@M$0?0$0?0$0A@$0?0$0?0@Eigen@@@std@@@std@@QEAAAEAV?$Matrix@M$0?0$0?0$0A@$0?0$0?0@Eigen@@$$QEBV23@@Z ; std::vector<Eigen::Matrix<float,-1,-1,0,-1,-1>,std::allocator<Eigen::Matrix<float,-1,-1,0,-1,-1> > >::emplace_back<Eigen::Matrix<float,-1,-1,0,-1,-1> const >
PUBLIC	?selfplay@uci@@YAXH@Z				; uci::selfplay
PUBLIC	??$_Emplace_back_with_unused_capacity@V?$Matrix@M$0?0$0?0$0A@$0?0$0?0@Eigen@@@?$vector@V?$Matrix@M$0?0$0?0$0A@$0?0$0?0@Eigen@@V?$allocator@V?$Matrix@M$0?0$0?0$0A@$0?0$0?0@Eigen@@@std@@@std@@AEAAAEAV?$Matrix@M$0?0$0?0$0A@$0?0$0?0@Eigen@@$$QEAV23@@Z ; std::vector<Eigen::Matrix<float,-1,-1,0,-1,-1>,std::allocator<Eigen::Matrix<float,-1,-1,0,-1,-1> > >::_Emplace_back_with_unused_capacity<Eigen::Matrix<float,-1,-1,0,-1,-1> >
PUBLIC	??$emplace_back@V?$Matrix@M$0?0$0?0$0A@$0?0$0?0@Eigen@@@?$vector@V?$Matrix@M$0?0$0?0$0A@$0?0$0?0@Eigen@@V?$allocator@V?$Matrix@M$0?0$0?0$0A@$0?0$0?0@Eigen@@@std@@@std@@QEAAAEAV?$Matrix@M$0?0$0?0$0A@$0?0$0?0@Eigen@@$$QEAV23@@Z ; std::vector<Eigen::Matrix<float,-1,-1,0,-1,-1>,std::allocator<Eigen::Matrix<float,-1,-1,0,-1,-1> > >::emplace_back<Eigen::Matrix<float,-1,-1,0,-1,-1> >
PUBLIC	??4Game@uci@@QEAAAEAU01@$$QEAU01@@Z		; uci::Game::operator=
PUBLIC	??0Game@uci@@QEAA@XZ				; uci::Game::Game
PUBLIC	??0Game@uci@@QEAA@$$QEAU01@@Z			; uci::Game::Game
PUBLIC	?__autoclassinit2@?$basic_ofstream@DU?$char_traits@D@std@@@std@@QEAAX_K@Z ; std::basic_ofstream<char,std::char_traits<char> >::__autoclassinit2
PUBLIC	??_D?$basic_ofstream@DU?$char_traits@D@std@@@std@@QEAAXXZ ; std::basic_ofstream<char,std::char_traits<char> >::`vbase destructor'
PUBLIC	?generateWeights@uci@@YAXXZ			; uci::generateWeights
PUBLIC	?__autoclassinit2@?$basic_stringstream@DU?$char_traits@D@std@@V?$allocator@D@2@@std@@QEAAX_K@Z ; std::basic_stringstream<char,std::char_traits<char>,std::allocator<char> >::__autoclassinit2
PUBLIC	??_D?$basic_stringstream@DU?$char_traits@D@std@@V?$allocator@D@2@@std@@QEAAXXZ ; std::basic_stringstream<char,std::char_traits<char>,std::allocator<char> >::`vbase destructor'
PUBLIC	?__autoclassinit2@Board@@QEAAX_K@Z		; Board::__autoclassinit2
PUBLIC	??1Board@@QEAA@XZ				; Board::~Board
PUBLIC	?Loop@uci@@YAXXZ				; uci::Loop
PUBLIC	?go@uci@@YAHAEAVBoard@@N_NH@Z			; uci::go
PUBLIC	?position@uci@@YAXAEAVBoard@@AEBV?$basic_string@DU?$char_traits@D@std@@V?$allocator@D@2@@std@@@Z ; uci::position
PUBLIC	?elapsed@Timer@@QEBANXZ				; Timer::elapsed
PUBLIC	??0Timer@@QEAA@XZ				; Timer::Timer
PUBLIC	??1NN@@QEAA@XZ					; NN::~NN
PUBLIC	?__autoclassinit2@NN@@QEAAX_K@Z			; NN::__autoclassinit2
PUBLIC	??1?$map@_KUgameInfo@@U?$less@_K@std@@V?$allocator@U?$pair@$$CB_KUgameInfo@@@std@@@3@@std@@QEAA@XZ ; std::map<unsigned __int64,gameInfo,std::less<unsigned __int64>,std::allocator<std::pair<unsigned __int64 const ,gameInfo> > >::~map<unsigned __int64,gameInfo,std::less<unsigned __int64>,std::allocator<std::pair<unsigned __int64 const ,gameInfo> > >
PUBLIC	?__autoclassinit2@?$map@_KUgameInfo@@U?$less@_K@std@@V?$allocator@U?$pair@$$CB_KUgameInfo@@@std@@@3@@std@@QEAAX_K@Z ; std::map<unsigned __int64,gameInfo,std::less<unsigned __int64>,std::allocator<std::pair<unsigned __int64 const ,gameInfo> > >::__autoclassinit2
PUBLIC	??1?$PlainObjectBase@V?$Matrix@M$0?0$0?0$0A@$0?0$0?0@Eigen@@@Eigen@@QEAA@XZ ; Eigen::PlainObjectBase<Eigen::Matrix<float,-1,-1,0,-1,-1> >::~PlainObjectBase<Eigen::Matrix<float,-1,-1,0,-1,-1> >
PUBLIC	?__autoclassinit2@?$Matrix@M$0?0$0?0$0A@$0?0$0?0@Eigen@@QEAAX_K@Z ; Eigen::Matrix<float,-1,-1,0,-1,-1>::__autoclassinit2
PUBLIC	??1?$Matrix@M$0?0$0?0$0A@$0?0$0?0@Eigen@@QEAA@XZ ; Eigen::Matrix<float,-1,-1,0,-1,-1>::~Matrix<float,-1,-1,0,-1,-1>
PUBLIC	?__autoclassinit2@?$pointer_based_stl_iterator@V?$Reshaped@V?$Matrix@M$0?0$0?0$0A@$0?0$0?0@Eigen@@$0?0$00$0A@@Eigen@@@internal@Eigen@@QEAAX_K@Z ; Eigen::internal::pointer_based_stl_iterator<Eigen::Reshaped<Eigen::Matrix<float,-1,-1,0,-1,-1>,-1,1,0> >::__autoclassinit2
PUBLIC	?gameResult@Board@@QEBA?AW4Color@@XZ		; Board::gameResult
PUBLIC	?side@Board@@QEBA?AW4Color@@XZ			; Board::side
PUBLIC	??0IOFormat@Eigen@@QEAA@HHAEBV?$basic_string@DU?$char_traits@D@std@@V?$allocator@D@2@@std@@00000D@Z ; Eigen::IOFormat::IOFormat
PUBLIC	?aligned_free@internal@Eigen@@YAXPEAX@Z		; Eigen::internal::aligned_free
PUBLIC	?aligned_malloc@internal@Eigen@@YAPEAX_K@Z	; Eigen::internal::aligned_malloc
PUBLIC	?check_that_malloc_is_allowed@internal@Eigen@@YAXXZ ; Eigen::internal::check_that_malloc_is_allowed
PUBLIC	?throw_std_bad_alloc@internal@Eigen@@YAXXZ	; Eigen::internal::throw_std_bad_alloc
PUBLIC	?count@?$duration@NU?$ratio@$00$00@std@@@chrono@std@@QEBANXZ ; std::chrono::duration<double,std::ratio<1,1> >::count
PUBLIC	??$?0N$0A@@?$duration@NU?$ratio@$00$00@std@@@chrono@std@@QEAA@AEBN@Z ; std::chrono::duration<double,std::ratio<1,1> >::duration<double,std::ratio<1,1> ><double,0>
PUBLIC	??$duration_cast@V?$duration@NU?$ratio@$00$00@std@@@chrono@std@@_JU?$ratio@$00$0DLJKMKAA@@3@$0A@@chrono@std@@YA?AV?$duration@NU?$ratio@$00$00@std@@@01@AEBV?$duration@_JU?$ratio@$00$0DLJKMKAA@@std@@@01@@Z ; std::chrono::duration_cast<std::chrono::duration<double,std::ratio<1,1> >,__int64,std::ratio<1,1000000000>,0>
PUBLIC	?count@?$duration@_JU?$ratio@$00$0DLJKMKAA@@std@@@chrono@std@@QEBA_JXZ ; std::chrono::duration<__int64,std::ratio<1,1000000000> >::count
PUBLIC	??$?0_J$0A@@?$duration@_JU?$ratio@$00$0DLJKMKAA@@std@@@chrono@std@@QEAA@AEB_J@Z ; std::chrono::duration<__int64,std::ratio<1,1000000000> >::duration<__int64,std::ratio<1,1000000000> ><__int64,0>
PUBLIC	?now@steady_clock@chrono@std@@SA?AV?$time_point@Usteady_clock@chrono@std@@V?$duration@_JU?$ratio@$00$0DLJKMKAA@@std@@@23@@23@XZ ; std::chrono::steady_clock::now
PUBLIC	??$_Ungetc@D@std@@YA_NAEBDPEAU_iobuf@@@Z	; std::_Ungetc<char>
PUBLIC	??$_Fputc@D@std@@YA_NDPEAU_iobuf@@@Z		; std::_Fputc<char>
PUBLIC	??$_Fgetc@D@std@@YA_NAEADPEAU_iobuf@@@Z		; std::_Fgetc<char>
PUBLIC	??Rrandom_device@std@@QEAAIXZ			; std::random_device::operator()
PUBLIC	??0random_device@std@@QEAA@XZ			; std::random_device::random_device
PUBLIC	?_Getfacet@locale@std@@QEBAPEBVfacet@12@_K@Z	; std::locale::_Getfacet
PUBLIC	??1locale@std@@QEAA@XZ				; std::locale::~locale
PUBLIC	??0bad_cast@std@@QEAA@AEBV01@@Z			; std::bad_cast::bad_cast
PUBLIC	?_Throw_bad_cast@std@@YAXXZ			; std::_Throw_bad_cast
PUBLIC	??1bad_cast@std@@UEAA@XZ			; std::bad_cast::~bad_cast
PUBLIC	??_Gbad_cast@std@@UEAAPEAXI@Z			; std::bad_cast::`scalar deleting destructor'
PUBLIC	??0bad_cast@std@@QEAA@XZ			; std::bad_cast::bad_cast
PUBLIC	?_Xlen_string@std@@YAXXZ			; std::_Xlen_string
PUBLIC	?_Release@_Fake_proxy_ptr_impl@std@@QEAAXXZ	; std::_Fake_proxy_ptr_impl::_Release
PUBLIC	??0_Fake_proxy_ptr_impl@std@@QEAA@AEBU_Fake_allocator@1@AEBU_Container_base0@1@@Z ; std::_Fake_proxy_ptr_impl::_Fake_proxy_ptr_impl
PUBLIC	?_Swap_proxy_and_iterators@_Container_base0@std@@QEAAXAEAU12@@Z ; std::_Container_base0::_Swap_proxy_and_iterators
PUBLIC	??$_Convert_size@_K@std@@YA_K_K@Z		; std::_Convert_size<unsigned __int64>
PUBLIC	??0bad_alloc@std@@QEAA@XZ			; std::bad_alloc::bad_alloc
PUBLIC	?hashMap@@3V?$map@_KUgameInfo@@U?$less@_K@std@@V?$allocator@U?$pair@$$CB_KUgameInfo@@@std@@@3@@std@@A ; hashMap
PUBLIC	?network@@3VNN@@A				; network
EXTRN	??_E?$basic_stringstream@DU?$char_traits@D@std@@V?$allocator@D@2@@std@@UEAAPEAXI@Z:PROC ; std::basic_stringstream<char,std::char_traits<char>,std::allocator<char> >::`vector deleting destructor'
EXTRN	??_Ebad_cast@std@@UEAAPEAXI@Z:PROC		; std::bad_cast::`vector deleting destructor'
EXTRN	??_E?$basic_ifstream@DU?$char_traits@D@std@@@std@@UEAAPEAXI@Z:PROC ; std::basic_ifstream<char,std::char_traits<char> >::`vector deleting destructor'
EXTRN	??_E?$basic_filebuf@DU?$char_traits@D@std@@@std@@UEAAPEAXI@Z:PROC ; std::basic_filebuf<char,std::char_traits<char> >::`vector deleting destructor'
EXTRN	??_E?$basic_stringbuf@DU?$char_traits@D@std@@V?$allocator@D@2@@std@@UEAAPEAXI@Z:PROC ; std::basic_stringbuf<char,std::char_traits<char>,std::allocator<char> >::`vector deleting destructor'
EXTRN	??_E?$basic_ofstream@DU?$char_traits@D@std@@@std@@UEAAPEAXI@Z:PROC ; std::basic_ofstream<char,std::char_traits<char> >::`vector deleting destructor'
EXTRN	??1?$basic_streambuf@DU?$char_traits@D@std@@@std@@UEAA@XZ:PROC ; std::basic_streambuf<char,std::char_traits<char> >::~basic_streambuf<char,std::char_traits<char> >
EXTRN	??1_Lockit@std@@QEAA@XZ:PROC			; std::_Lockit::~_Lockit
;	COMDAT ?hashMap@@3V?$map@_KUgameInfo@@U?$less@_K@std@@V?$allocator@U?$pair@$$CB_KUgameInfo@@@std@@@3@@std@@A
_BSS	SEGMENT
?hashMap@@3V?$map@_KUgameInfo@@U?$less@_K@std@@V?$allocator@U?$pair@$$CB_KUgameInfo@@@std@@@3@@std@@A DB 010H DUP (?) ; hashMap
_BSS	ENDS
;	COMDAT ?network@@3VNN@@A
_BSS	SEGMENT
?network@@3VNN@@A DB 020H DUP (?)			; network
_BSS	ENDS
;	COMDAT pdata
pdata	SEGMENT
$pdata$??$_Emplace_back@UGame@uci@@@?$_Uninitialized_backout_al@V?$allocator@UGame@uci@@@std@@@std@@QEAAX$$QEAUGame@uci@@@Z DD imagerel $LN22@Emplace_ba
	DD	imagerel $LN22@Emplace_ba+54
	DD	imagerel $unwind$??$_Emplace_back@UGame@uci@@@?$_Uninitialized_backout_al@V?$allocator@UGame@uci@@@std@@@std@@QEAAX$$QEAUGame@uci@@@Z
pdata	ENDS
;	COMDAT pdata
pdata	SEGMENT
$pdata$??$_Copy_memmove@PEAHPEAH@std@@YAPEAHPEAH00@Z DD imagerel $LN4@Copy_memmo
	DD	imagerel $LN4@Copy_memmo+48
	DD	imagerel $unwind$??$_Copy_memmove@PEAHPEAH@std@@YAPEAHPEAH00@Z
pdata	ENDS
;	COMDAT pdata
pdata	SEGMENT
$pdata$??$generate_canonical@N$0?0V?$mersenne_twister_engine@_K$0EA@$0BDI@$0JM@$0BP@$0?EKPNJAKFFGJJOGBH@$0BN@$0FFFFFFFFFFFFFFFF@$0BB@$0HBNGHPPPONKGAAAA@$0CF@$0?IBBCAAAAAAAAA@$0CL@$0FIFBPECNEMJFHPCN@@std@@@std@@YANAEAV?$mersenne_twister_engine@_K$0EA@$0BDI@$0JM@$0BP@$0?EKPNJAKFFGJJOGBH@$0BN@$0FFFFFFFFFFFFFFFF@$0BB@$0HBNGHPPPONKGAAAA@$0CF@$0?IBBCAAAAAAAAA@$0CL@$0FIFBPECNEMJFHPCN@@0@@Z DD imagerel $LN14@generate_c
	DD	imagerel $LN14@generate_c+135
	DD	imagerel $unwind$??$generate_canonical@N$0?0V?$mersenne_twister_engine@_K$0EA@$0BDI@$0JM@$0BP@$0?EKPNJAKFFGJJOGBH@$0BN@$0FFFFFFFFFFFFFFFF@$0BB@$0HBNGHPPPONKGAAAA@$0CF@$0?IBBCAAAAAAAAA@$0CL@$0FIFBPECNEMJFHPCN@@std@@@std@@YANAEAV?$mersenne_twister_engine@_K$0EA@$0BDI@$0JM@$0BP@$0?EKPNJAKFFGJJOGBH@$0BN@$0FFFFFFFFFFFFFFFF@$0BB@$0HBNGHPPPONKGAAAA@$0CF@$0?IBBCAAAAAAAAA@$0CL@$0FIFBPECNEMJFHPCN@@0@@Z
pdata	ENDS
;	COMDAT pdata
pdata	SEGMENT
$pdata$0$??$generate_canonical@N$0?0V?$mersenne_twister_engine@_K$0EA@$0BDI@$0JM@$0BP@$0?EKPNJAKFFGJJOGBH@$0BN@$0FFFFFFFFFFFFFFFF@$0BB@$0HBNGHPPPONKGAAAA@$0CF@$0?IBBCAAAAAAAAA@$0CL@$0FIFBPECNEMJFHPCN@@std@@@std@@YANAEAV?$mersenne_twister_engine@_K$0EA@$0BDI@$0JM@$0BP@$0?EKPNJAKFFGJJOGBH@$0BN@$0FFFFFFFFFFFFFFFF@$0BB@$0HBNGHPPPONKGAAAA@$0CF@$0?IBBCAAAAAAAAA@$0CL@$0FIFBPECNEMJFHPCN@@0@@Z DD imagerel $LN14@generate_c+135
	DD	imagerel $LN14@generate_c+211
	DD	imagerel $chain$0$??$generate_canonical@N$0?0V?$mersenne_twister_engine@_K$0EA@$0BDI@$0JM@$0BP@$0?EKPNJAKFFGJJOGBH@$0BN@$0FFFFFFFFFFFFFFFF@$0BB@$0HBNGHPPPONKGAAAA@$0CF@$0?IBBCAAAAAAAAA@$0CL@$0FIFBPECNEMJFHPCN@@std@@@std@@YANAEAV?$mersenne_twister_engine@_K$0EA@$0BDI@$0JM@$0BP@$0?EKPNJAKFFGJJOGBH@$0BN@$0FFFFFFFFFFFFFFFF@$0BB@$0HBNGHPPPONKGAAAA@$0CF@$0?IBBCAAAAAAAAA@$0CL@$0FIFBPECNEMJFHPCN@@0@@Z
pdata	ENDS
;	COMDAT pdata
pdata	SEGMENT
$pdata$1$??$generate_canonical@N$0?0V?$mersenne_twister_engine@_K$0EA@$0BDI@$0JM@$0BP@$0?EKPNJAKFFGJJOGBH@$0BN@$0FFFFFFFFFFFFFFFF@$0BB@$0HBNGHPPPONKGAAAA@$0CF@$0?IBBCAAAAAAAAA@$0CL@$0FIFBPECNEMJFHPCN@@std@@@std@@YANAEAV?$mersenne_twister_engine@_K$0EA@$0BDI@$0JM@$0BP@$0?EKPNJAKFFGJJOGBH@$0BN@$0FFFFFFFFFFFFFFFF@$0BB@$0HBNGHPPPONKGAAAA@$0CF@$0?IBBCAAAAAAAAA@$0CL@$0FIFBPECNEMJFHPCN@@0@@Z DD imagerel $LN14@generate_c+211
	DD	imagerel $LN14@generate_c+229
	DD	imagerel $chain$1$??$generate_canonical@N$0?0V?$mersenne_twister_engine@_K$0EA@$0BDI@$0JM@$0BP@$0?EKPNJAKFFGJJOGBH@$0BN@$0FFFFFFFFFFFFFFFF@$0BB@$0HBNGHPPPONKGAAAA@$0CF@$0?IBBCAAAAAAAAA@$0CL@$0FIFBPECNEMJFHPCN@@std@@@std@@YANAEAV?$mersenne_twister_engine@_K$0EA@$0BDI@$0JM@$0BP@$0?EKPNJAKFFGJJOGBH@$0BN@$0FFFFFFFFFFFFFFFF@$0BB@$0HBNGHPPPONKGAAAA@$0CF@$0?IBBCAAAAAAAAA@$0CL@$0FIFBPECNEMJFHPCN@@0@@Z
pdata	ENDS
;	COMDAT pdata
pdata	SEGMENT
$pdata$?_Refill_lower@?$mersenne_twister@_K$0EA@$0BDI@$0JM@$0BP@$0?EKPNJAKFFGJJOGBH@$0BN@$0BB@$0HBNGHPPPONKGAAAA@$0CF@$0?IBBCAAAAAAAAA@$0CL@@std@@IEAAXXZ DD imagerel $LN18@Refill_low
	DD	imagerel $LN18@Refill_low+264
	DD	imagerel $unwind$?_Refill_lower@?$mersenne_twister@_K$0EA@$0BDI@$0JM@$0BP@$0?EKPNJAKFFGJJOGBH@$0BN@$0BB@$0HBNGHPPPONKGAAAA@$0CF@$0?IBBCAAAAAAAAA@$0CL@@std@@IEAAXXZ
pdata	ENDS
;	COMDAT pdata
pdata	SEGMENT
$pdata$??R?$mersenne_twister@_K$0EA@$0BDI@$0JM@$0BP@$0?EKPNJAKFFGJJOGBH@$0BN@$0BB@$0HBNGHPPPONKGAAAA@$0CF@$0?IBBCAAAAAAAAA@$0CL@@std@@QEAA_KXZ DD imagerel $LN32@operator
	DD	imagerel $LN32@operator+126
	DD	imagerel $unwind$??R?$mersenne_twister@_K$0EA@$0BDI@$0JM@$0BP@$0?EKPNJAKFFGJJOGBH@$0BN@$0BB@$0HBNGHPPPONKGAAAA@$0CF@$0?IBBCAAAAAAAAA@$0CL@@std@@QEAA_KXZ
pdata	ENDS
;	COMDAT pdata
pdata	SEGMENT
$pdata$1$??R?$mersenne_twister@_K$0EA@$0BDI@$0JM@$0BP@$0?EKPNJAKFFGJJOGBH@$0BN@$0BB@$0HBNGHPPPONKGAAAA@$0CF@$0?IBBCAAAAAAAAA@$0CL@@std@@QEAA_KXZ DD imagerel $LN32@operator+126
	DD	imagerel $LN32@operator+371
	DD	imagerel $chain$1$??R?$mersenne_twister@_K$0EA@$0BDI@$0JM@$0BP@$0?EKPNJAKFFGJJOGBH@$0BN@$0BB@$0HBNGHPPPONKGAAAA@$0CF@$0?IBBCAAAAAAAAA@$0CL@@std@@QEAA_KXZ
pdata	ENDS
;	COMDAT pdata
pdata	SEGMENT
$pdata$2$??R?$mersenne_twister@_K$0EA@$0BDI@$0JM@$0BP@$0?EKPNJAKFFGJJOGBH@$0BN@$0BB@$0HBNGHPPPONKGAAAA@$0CF@$0?IBBCAAAAAAAAA@$0CL@@std@@QEAA_KXZ DD imagerel $LN32@operator+371
	DD	imagerel $LN32@operator+458
	DD	imagerel $chain$2$??R?$mersenne_twister@_K$0EA@$0BDI@$0JM@$0BP@$0?EKPNJAKFFGJJOGBH@$0BN@$0BB@$0HBNGHPPPONKGAAAA@$0CF@$0?IBBCAAAAAAAAA@$0CL@@std@@QEAA_KXZ
pdata	ENDS
;	COMDAT pdata
pdata	SEGMENT
$pdata$??0?$basic_stringbuf@DU?$char_traits@D@std@@V?$allocator@D@2@@std@@QEAA@H@Z DD imagerel $LN6@basic_stri
	DD	imagerel $LN6@basic_stri+43
	DD	imagerel $unwind$??0?$basic_stringbuf@DU?$char_traits@D@std@@V?$allocator@D@2@@std@@QEAA@H@Z
pdata	ENDS
;	COMDAT pdata
pdata	SEGMENT
$pdata$?str@?$basic_stringbuf@DU?$char_traits@D@std@@V?$allocator@D@2@@std@@QEBA?AV?$basic_string@DU?$char_traits@D@std@@V?$allocator@D@2@@2@XZ DD imagerel $LN36@str
	DD	imagerel $LN36@str+152
	DD	imagerel $unwind$?str@?$basic_stringbuf@DU?$char_traits@D@std@@V?$allocator@D@2@@std@@QEBA?AV?$basic_string@DU?$char_traits@D@std@@V?$allocator@D@2@@2@XZ
pdata	ENDS
;	COMDAT pdata
pdata	SEGMENT
$pdata$?dtor$0@?0??str@?$basic_stringbuf@DU?$char_traits@D@std@@V?$allocator@D@2@@std@@QEBA?AV?$basic_string@DU?$char_traits@D@std@@V?$allocator@D@2@@2@XZ@4HA DD imagerel ?dtor$0@?0??str@?$basic_stringbuf@DU?$char_traits@D@std@@V?$allocator@D@2@@std@@QEBA?AV?$basic_string@DU?$char_traits@D@std@@V?$allocator@D@2@@2@XZ@4HA
	DD	imagerel ?dtor$0@?0??str@?$basic_stringbuf@DU?$char_traits@D@std@@V?$allocator@D@2@@std@@QEBA?AV?$basic_string@DU?$char_traits@D@std@@V?$allocator@D@2@@2@XZ@4HA+38
	DD	imagerel $unwind$?dtor$0@?0??str@?$basic_stringbuf@DU?$char_traits@D@std@@V?$allocator@D@2@@std@@QEBA?AV?$basic_string@DU?$char_traits@D@std@@V?$allocator@D@2@@2@XZ@4HA
pdata	ENDS
;	COMDAT pdata
pdata	SEGMENT
$pdata$?_Get_bits@?$_Rng_from_urng@IV?$mersenne_twister_engine@_K$0EA@$0BDI@$0JM@$0BP@$0?EKPNJAKFFGJJOGBH@$0BN@$0FFFFFFFFFFFFFFFF@$0BB@$0HBNGHPPPONKGAAAA@$0CF@$0?IBBCAAAAAAAAA@$0CL@$0FIFBPECNEMJFHPCN@@std@@@std@@AEAA_KXZ DD imagerel $LN13@Get_bits
	DD	imagerel $LN13@Get_bits+36
	DD	imagerel $unwind$?_Get_bits@?$_Rng_from_urng@IV?$mersenne_twister_engine@_K$0EA@$0BDI@$0JM@$0BP@$0?EKPNJAKFFGJJOGBH@$0BN@$0FFFFFFFFFFFFFFFF@$0BB@$0HBNGHPPPONKGAAAA@$0CF@$0?IBBCAAAAAAAAA@$0CL@$0FIFBPECNEMJFHPCN@@std@@@std@@AEAA_KXZ
pdata	ENDS
;	COMDAT pdata
pdata	SEGMENT
$pdata$??0?$basic_stringstream@DU?$char_traits@D@std@@V?$allocator@D@2@@std@@QEAA@XZ DD imagerel $LN13@basic_stri
	DD	imagerel $LN13@basic_stri+181
	DD	imagerel $unwind$??0?$basic_stringstream@DU?$char_traits@D@std@@V?$allocator@D@2@@std@@QEAA@XZ
pdata	ENDS
;	COMDAT pdata
pdata	SEGMENT
$pdata$?dtor$0@?0???0?$basic_stringstream@DU?$char_traits@D@std@@V?$allocator@D@2@@std@@QEAA@XZ@4HA DD imagerel ?dtor$0@?0???0?$basic_stringstream@DU?$char_traits@D@std@@V?$allocator@D@2@@std@@QEAA@XZ@4HA
	DD	imagerel ?dtor$0@?0???0?$basic_stringstream@DU?$char_traits@D@std@@V?$allocator@D@2@@std@@QEAA@XZ@4HA+46
	DD	imagerel $unwind$?dtor$0@?0???0?$basic_stringstream@DU?$char_traits@D@std@@V?$allocator@D@2@@std@@QEAA@XZ@4HA
pdata	ENDS
;	COMDAT pdata
pdata	SEGMENT
$pdata$?str@?$basic_stringstream@DU?$char_traits@D@std@@V?$allocator@D@2@@std@@QEBA?AV?$basic_string@DU?$char_traits@D@std@@V?$allocator@D@2@@2@XZ DD imagerel $LN40@str
	DD	imagerel $LN40@str+156
	DD	imagerel $unwind$?str@?$basic_stringstream@DU?$char_traits@D@std@@V?$allocator@D@2@@std@@QEBA?AV?$basic_string@DU?$char_traits@D@std@@V?$allocator@D@2@@2@XZ
pdata	ENDS
;	COMDAT pdata
pdata	SEGMENT
$pdata$?dtor$1@?0??str@?$basic_stringstream@DU?$char_traits@D@std@@V?$allocator@D@2@@std@@QEBA?AV?$basic_string@DU?$char_traits@D@std@@V?$allocator@D@2@@2@XZ@4HA DD imagerel ?dtor$1@?0??str@?$basic_stringstream@DU?$char_traits@D@std@@V?$allocator@D@2@@std@@QEBA?AV?$basic_string@DU?$char_traits@D@std@@V?$allocator@D@2@@2@XZ@4HA
	DD	imagerel ?dtor$1@?0??str@?$basic_stringstream@DU?$char_traits@D@std@@V?$allocator@D@2@@std@@QEBA?AV?$basic_string@DU?$char_traits@D@std@@V?$allocator@D@2@@2@XZ@4HA+38
	DD	imagerel $unwind$?dtor$1@?0??str@?$basic_stringstream@DU?$char_traits@D@std@@V?$allocator@D@2@@std@@QEBA?AV?$basic_string@DU?$char_traits@D@std@@V?$allocator@D@2@@2@XZ@4HA
pdata	ENDS
;	COMDAT pdata
pdata	SEGMENT
$pdata$??R?$_Rng_from_urng@IV?$mersenne_twister_engine@_K$0EA@$0BDI@$0JM@$0BP@$0?EKPNJAKFFGJJOGBH@$0BN@$0FFFFFFFFFFFFFFFF@$0BB@$0HBNGHPPPONKGAAAA@$0CF@$0?IBBCAAAAAAAAA@$0CL@$0FIFBPECNEMJFHPCN@@std@@@std@@QEAAII@Z DD imagerel $LN29@operator
	DD	imagerel $LN29@operator+180
	DD	imagerel $unwind$??R?$_Rng_from_urng@IV?$mersenne_twister_engine@_K$0EA@$0BDI@$0JM@$0BP@$0?EKPNJAKFFGJJOGBH@$0BN@$0FFFFFFFFFFFFFFFF@$0BB@$0HBNGHPPPONKGAAAA@$0CF@$0?IBBCAAAAAAAAA@$0CL@$0FIFBPECNEMJFHPCN@@std@@@std@@QEAAII@Z
pdata	ENDS
;	COMDAT pdata
pdata	SEGMENT
$pdata$?_Get_all_bits@?$_Rng_from_urng@IV?$mersenne_twister_engine@_K$0EA@$0BDI@$0JM@$0BP@$0?EKPNJAKFFGJJOGBH@$0BN@$0FFFFFFFFFFFFFFFF@$0BB@$0HBNGHPPPONKGAAAA@$0CF@$0?IBBCAAAAAAAAA@$0CL@$0FIFBPECNEMJFHPCN@@std@@@std@@QEAA_KXZ DD imagerel $LN21@Get_all_bi
	DD	imagerel $LN21@Get_all_bi+97
	DD	imagerel $unwind$?_Get_all_bits@?$_Rng_from_urng@IV?$mersenne_twister_engine@_K$0EA@$0BDI@$0JM@$0BP@$0?EKPNJAKFFGJJOGBH@$0BN@$0FFFFFFFFFFFFFFFF@$0BB@$0HBNGHPPPONKGAAAA@$0CF@$0?IBBCAAAAAAAAA@$0CL@$0FIFBPECNEMJFHPCN@@std@@@std@@QEAA_KXZ
pdata	ENDS
;	COMDAT pdata
pdata	SEGMENT
$pdata$??_G?$Matrix@M$0?0$0?0$0A@$0?0$0?0@Eigen@@QEAAPEAXI@Z DD imagerel $LN21@scalar
	DD	imagerel $LN21@scalar+27
	DD	imagerel $unwind$??_G?$Matrix@M$0?0$0?0$0A@$0?0$0?0@Eigen@@QEAAPEAXI@Z
pdata	ENDS
;	COMDAT pdata
pdata	SEGMENT
$pdata$??_G?$unique_ptr@VLayer@@U?$default_delete@VLayer@@@std@@@std@@QEAAPEAXI@Z DD imagerel $LN14@scalar
	DD	imagerel $LN14@scalar+36
	DD	imagerel $unwind$??_G?$unique_ptr@VLayer@@U?$default_delete@VLayer@@@std@@@std@@QEAAPEAXI@Z
pdata	ENDS
;	COMDAT pdata
pdata	SEGMENT
$pdata$??_GGame@uci@@QEAAPEAXI@Z DD imagerel $LN38@scalar
	DD	imagerel $LN38@scalar+105
	DD	imagerel $unwind$??_GGame@uci@@QEAAPEAXI@Z
pdata	ENDS
;	COMDAT pdata
pdata	SEGMENT
$pdata$??$_Get_size_of_n@$03@std@@YA_K_K@Z DD imagerel $LN7@Get_size_o
	DD	imagerel $LN7@Get_size_o+38
	DD	imagerel $unwind$??$_Get_size_of_n@$03@std@@YA_K_K@Z
pdata	ENDS
;	COMDAT pdata
pdata	SEGMENT
$pdata$??$_Uninitialized_move@PEAHV?$allocator@H@std@@@std@@YAPEAHQEAH0PEAHAEAV?$allocator@H@0@@Z DD imagerel $LN6@Uninitiali
	DD	imagerel $LN6@Uninitiali+52
	DD	imagerel $unwind$??$_Uninitialized_move@PEAHV?$allocator@H@std@@@std@@YAPEAHQEAH0PEAHAEAV?$allocator@H@0@@Z
pdata	ENDS
;	COMDAT pdata
pdata	SEGMENT
$pdata$??$_Get_size_of_n@$0DI@@std@@YA_K_K@Z DD imagerel $LN7@Get_size_o
	DD	imagerel $LN7@Get_size_o+34
	DD	imagerel $unwind$??$_Get_size_of_n@$0DI@@std@@YA_K_K@Z
pdata	ENDS
;	COMDAT pdata
pdata	SEGMENT
$pdata$??$_Uninitialized_move@PEAUGame@uci@@V?$allocator@UGame@uci@@@std@@@std@@YAPEAUGame@uci@@QEAU12@0PEAU12@AEAV?$allocator@UGame@uci@@@0@@Z DD imagerel $LN39@Uninitiali
	DD	imagerel $LN39@Uninitiali+22
	DD	imagerel $unwind$??$_Uninitialized_move@PEAUGame@uci@@V?$allocator@UGame@uci@@@std@@@std@@YAPEAUGame@uci@@QEAU12@0PEAU12@AEAV?$allocator@UGame@uci@@@0@@Z
pdata	ENDS
;	COMDAT pdata
pdata	SEGMENT
$pdata$1$??$_Uninitialized_move@PEAUGame@uci@@V?$allocator@UGame@uci@@@std@@@std@@YAPEAUGame@uci@@QEAU12@0PEAU12@AEAV?$allocator@UGame@uci@@@0@@Z DD imagerel $LN39@Uninitiali+22
	DD	imagerel $LN39@Uninitiali+115
	DD	imagerel $chain$1$??$_Uninitialized_move@PEAUGame@uci@@V?$allocator@UGame@uci@@@std@@@std@@YAPEAUGame@uci@@QEAU12@0PEAU12@AEAV?$allocator@UGame@uci@@@0@@Z
pdata	ENDS
;	COMDAT pdata
pdata	SEGMENT
$pdata$2$??$_Uninitialized_move@PEAUGame@uci@@V?$allocator@UGame@uci@@@std@@@std@@YAPEAUGame@uci@@QEAU12@0PEAU12@AEAV?$allocator@UGame@uci@@@0@@Z DD imagerel $LN39@Uninitiali+115
	DD	imagerel $LN39@Uninitiali+137
	DD	imagerel $chain$2$??$_Uninitialized_move@PEAUGame@uci@@V?$allocator@UGame@uci@@@std@@@std@@YAPEAUGame@uci@@QEAU12@0PEAU12@AEAV?$allocator@UGame@uci@@@0@@Z
pdata	ENDS
;	COMDAT pdata
pdata	SEGMENT
$pdata$??$destroy@UGame@uci@@@?$_Default_allocator_traits@V?$allocator@UGame@uci@@@std@@@std@@SAXAEAV?$allocator@UGame@uci@@@1@QEAUGame@uci@@@Z DD imagerel $LN41@destroy
	DD	imagerel $LN41@destroy+101
	DD	imagerel $unwind$??$destroy@UGame@uci@@@?$_Default_allocator_traits@V?$allocator@UGame@uci@@@std@@@std@@SAXAEAV?$allocator@UGame@uci@@@1@QEAUGame@uci@@@Z
pdata	ENDS
;	COMDAT pdata
pdata	SEGMENT
$pdata$??$conditional_aligned_malloc@$00@internal@Eigen@@YAPEAX_K@Z DD imagerel $LN10@conditiona
	DD	imagerel $LN10@conditiona+37
	DD	imagerel $unwind$??$conditional_aligned_malloc@$00@internal@Eigen@@YAPEAX_K@Z
pdata	ENDS
;	COMDAT pdata
pdata	SEGMENT
$pdata$??$check_size_for_overflow@M@internal@Eigen@@YAX_K@Z DD imagerel $LN7@check_size
	DD	imagerel $LN7@check_size+30
	DD	imagerel $unwind$??$check_size_for_overflow@M@internal@Eigen@@YAX_K@Z
pdata	ENDS
;	COMDAT pdata
pdata	SEGMENT
$pdata$??$_init2@HH@?$PlainObjectBase@V?$Matrix@M$0?0$0?0$0A@$0?0$0?0@Eigen@@@Eigen@@IEAAX_J0PEAH@Z DD imagerel $LN27@init2
	DD	imagerel $LN27@init2+63
	DD	imagerel $unwind$??$_init2@HH@?$PlainObjectBase@V?$Matrix@M$0?0$0?0$0A@$0?0$0?0@Eigen@@@Eigen@@IEAAX_J0PEAH@Z
pdata	ENDS
;	COMDAT pdata
pdata	SEGMENT
$pdata$0$??$_init2@HH@?$PlainObjectBase@V?$Matrix@M$0?0$0?0$0A@$0?0$0?0@Eigen@@@Eigen@@IEAAX_J0PEAH@Z DD imagerel $LN27@init2+63
	DD	imagerel $LN27@init2+143
	DD	imagerel $chain$0$??$_init2@HH@?$PlainObjectBase@V?$Matrix@M$0?0$0?0$0A@$0?0$0?0@Eigen@@@Eigen@@IEAAX_J0PEAH@Z
pdata	ENDS
;	COMDAT pdata
pdata	SEGMENT
$pdata$1$??$_init2@HH@?$PlainObjectBase@V?$Matrix@M$0?0$0?0$0A@$0?0$0?0@Eigen@@@Eigen@@IEAAX_J0PEAH@Z DD imagerel $LN27@init2+143
	DD	imagerel $LN27@init2+149
	DD	imagerel $chain$1$??$_init2@HH@?$PlainObjectBase@V?$Matrix@M$0?0$0?0$0A@$0?0$0?0@Eigen@@@Eigen@@IEAAX_J0PEAH@Z
pdata	ENDS
;	COMDAT pdata
pdata	SEGMENT
$pdata$??$_Eval@V?$mersenne_twister_engine@_K$0EA@$0BDI@$0JM@$0BP@$0?EKPNJAKFFGJJOGBH@$0BN@$0FFFFFFFFFFFFFFFF@$0BB@$0HBNGHPPPONKGAAAA@$0CF@$0?IBBCAAAAAAAAA@$0CL@$0FIFBPECNEMJFHPCN@@std@@@?$uniform_int@H@std@@AEBAHAEAV?$mersenne_twister_engine@_K$0EA@$0BDI@$0JM@$0BP@$0?EKPNJAKFFGJJOGBH@$0BN@$0FFFFFFFFFFFFFFFF@$0BB@$0HBNGHPPPONKGAAAA@$0CF@$0?IBBCAAAAAAAAA@$0CL@$0FIFBPECNEMJFHPCN@@1@HH@Z DD imagerel $LN80@Eval
	DD	imagerel $LN80@Eval+79
	DD	imagerel $unwind$??$_Eval@V?$mersenne_twister_engine@_K$0EA@$0BDI@$0JM@$0BP@$0?EKPNJAKFFGJJOGBH@$0BN@$0FFFFFFFFFFFFFFFF@$0BB@$0HBNGHPPPONKGAAAA@$0CF@$0?IBBCAAAAAAAAA@$0CL@$0FIFBPECNEMJFHPCN@@std@@@?$uniform_int@H@std@@AEBAHAEAV?$mersenne_twister_engine@_K$0EA@$0BDI@$0JM@$0BP@$0?EKPNJAKFFGJJOGBH@$0BN@$0FFFFFFFFFFFFFFFF@$0BB@$0HBNGHPPPONKGAAAA@$0CF@$0?IBBCAAAAAAAAA@$0CL@$0FIFBPECNEMJFHPCN@@1@HH@Z
pdata	ENDS
;	COMDAT pdata
pdata	SEGMENT
$pdata$1$??$_Eval@V?$mersenne_twister_engine@_K$0EA@$0BDI@$0JM@$0BP@$0?EKPNJAKFFGJJOGBH@$0BN@$0FFFFFFFFFFFFFFFF@$0BB@$0HBNGHPPPONKGAAAA@$0CF@$0?IBBCAAAAAAAAA@$0CL@$0FIFBPECNEMJFHPCN@@std@@@?$uniform_int@H@std@@AEBAHAEAV?$mersenne_twister_engine@_K$0EA@$0BDI@$0JM@$0BP@$0?EKPNJAKFFGJJOGBH@$0BN@$0FFFFFFFFFFFFFFFF@$0BB@$0HBNGHPPPONKGAAAA@$0CF@$0?IBBCAAAAAAAAA@$0CL@$0FIFBPECNEMJFHPCN@@1@HH@Z DD imagerel $LN80@Eval+79
	DD	imagerel $LN80@Eval+171
	DD	imagerel $chain$1$??$_Eval@V?$mersenne_twister_engine@_K$0EA@$0BDI@$0JM@$0BP@$0?EKPNJAKFFGJJOGBH@$0BN@$0FFFFFFFFFFFFFFFF@$0BB@$0HBNGHPPPONKGAAAA@$0CF@$0?IBBCAAAAAAAAA@$0CL@$0FIFBPECNEMJFHPCN@@std@@@?$uniform_int@H@std@@AEBAHAEAV?$mersenne_twister_engine@_K$0EA@$0BDI@$0JM@$0BP@$0?EKPNJAKFFGJJOGBH@$0BN@$0FFFFFFFFFFFFFFFF@$0BB@$0HBNGHPPPONKGAAAA@$0CF@$0?IBBCAAAAAAAAA@$0CL@$0FIFBPECNEMJFHPCN@@1@HH@Z
pdata	ENDS
;	COMDAT pdata
pdata	SEGMENT
$pdata$2$??$_Eval@V?$mersenne_twister_engine@_K$0EA@$0BDI@$0JM@$0BP@$0?EKPNJAKFFGJJOGBH@$0BN@$0FFFFFFFFFFFFFFFF@$0BB@$0HBNGHPPPONKGAAAA@$0CF@$0?IBBCAAAAAAAAA@$0CL@$0FIFBPECNEMJFHPCN@@std@@@?$uniform_int@H@std@@AEBAHAEAV?$mersenne_twister_engine@_K$0EA@$0BDI@$0JM@$0BP@$0?EKPNJAKFFGJJOGBH@$0BN@$0FFFFFFFFFFFFFFFF@$0BB@$0HBNGHPPPONKGAAAA@$0CF@$0?IBBCAAAAAAAAA@$0CL@$0FIFBPECNEMJFHPCN@@1@HH@Z DD imagerel $LN80@Eval+171
	DD	imagerel $LN80@Eval+206
	DD	imagerel $chain$2$??$_Eval@V?$mersenne_twister_engine@_K$0EA@$0BDI@$0JM@$0BP@$0?EKPNJAKFFGJJOGBH@$0BN@$0FFFFFFFFFFFFFFFF@$0BB@$0HBNGHPPPONKGAAAA@$0CF@$0?IBBCAAAAAAAAA@$0CL@$0FIFBPECNEMJFHPCN@@std@@@?$uniform_int@H@std@@AEBAHAEAV?$mersenne_twister_engine@_K$0EA@$0BDI@$0JM@$0BP@$0?EKPNJAKFFGJJOGBH@$0BN@$0FFFFFFFFFFFFFFFF@$0BB@$0HBNGHPPPONKGAAAA@$0CF@$0?IBBCAAAAAAAAA@$0CL@$0FIFBPECNEMJFHPCN@@1@HH@Z
pdata	ENDS
;	COMDAT pdata
pdata	SEGMENT
$pdata$??$_Eval@V?$mersenne_twister_engine@_K$0EA@$0BDI@$0JM@$0BP@$0?EKPNJAKFFGJJOGBH@$0BN@$0FFFFFFFFFFFFFFFF@$0BB@$0HBNGHPPPONKGAAAA@$0CF@$0?IBBCAAAAAAAAA@$0CL@$0FIFBPECNEMJFHPCN@@std@@@?$uniform_real@N@std@@AEBANAEAV?$mersenne_twister_engine@_K$0EA@$0BDI@$0JM@$0BP@$0?EKPNJAKFFGJJOGBH@$0BN@$0FFFFFFFFFFFFFFFF@$0BB@$0HBNGHPPPONKGAAAA@$0CF@$0?IBBCAAAAAAAAA@$0CL@$0FIFBPECNEMJFHPCN@@1@AEBUparam_type@01@@Z DD imagerel $LN16@Eval
	DD	imagerel $LN16@Eval+142
	DD	imagerel $unwind$??$_Eval@V?$mersenne_twister_engine@_K$0EA@$0BDI@$0JM@$0BP@$0?EKPNJAKFFGJJOGBH@$0BN@$0FFFFFFFFFFFFFFFF@$0BB@$0HBNGHPPPONKGAAAA@$0CF@$0?IBBCAAAAAAAAA@$0CL@$0FIFBPECNEMJFHPCN@@std@@@?$uniform_real@N@std@@AEBANAEAV?$mersenne_twister_engine@_K$0EA@$0BDI@$0JM@$0BP@$0?EKPNJAKFFGJJOGBH@$0BN@$0FFFFFFFFFFFFFFFF@$0BB@$0HBNGHPPPONKGAAAA@$0CF@$0?IBBCAAAAAAAAA@$0CL@$0FIFBPECNEMJFHPCN@@1@AEBUparam_type@01@@Z
pdata	ENDS
;	COMDAT pdata
pdata	SEGMENT
$pdata$0$??$_Eval@V?$mersenne_twister_engine@_K$0EA@$0BDI@$0JM@$0BP@$0?EKPNJAKFFGJJOGBH@$0BN@$0FFFFFFFFFFFFFFFF@$0BB@$0HBNGHPPPONKGAAAA@$0CF@$0?IBBCAAAAAAAAA@$0CL@$0FIFBPECNEMJFHPCN@@std@@@?$uniform_real@N@std@@AEBANAEAV?$mersenne_twister_engine@_K$0EA@$0BDI@$0JM@$0BP@$0?EKPNJAKFFGJJOGBH@$0BN@$0FFFFFFFFFFFFFFFF@$0BB@$0HBNGHPPPONKGAAAA@$0CF@$0?IBBCAAAAAAAAA@$0CL@$0FIFBPECNEMJFHPCN@@1@AEBUparam_type@01@@Z DD imagerel $LN16@Eval+142
	DD	imagerel $LN16@Eval+216
	DD	imagerel $chain$0$??$_Eval@V?$mersenne_twister_engine@_K$0EA@$0BDI@$0JM@$0BP@$0?EKPNJAKFFGJJOGBH@$0BN@$0FFFFFFFFFFFFFFFF@$0BB@$0HBNGHPPPONKGAAAA@$0CF@$0?IBBCAAAAAAAAA@$0CL@$0FIFBPECNEMJFHPCN@@std@@@?$uniform_real@N@std@@AEBANAEAV?$mersenne_twister_engine@_K$0EA@$0BDI@$0JM@$0BP@$0?EKPNJAKFFGJJOGBH@$0BN@$0FFFFFFFFFFFFFFFF@$0BB@$0HBNGHPPPONKGAAAA@$0CF@$0?IBBCAAAAAAAAA@$0CL@$0FIFBPECNEMJFHPCN@@1@AEBUparam_type@01@@Z
pdata	ENDS
;	COMDAT pdata
pdata	SEGMENT
$pdata$1$??$_Eval@V?$mersenne_twister_engine@_K$0EA@$0BDI@$0JM@$0BP@$0?EKPNJAKFFGJJOGBH@$0BN@$0FFFFFFFFFFFFFFFF@$0BB@$0HBNGHPPPONKGAAAA@$0CF@$0?IBBCAAAAAAAAA@$0CL@$0FIFBPECNEMJFHPCN@@std@@@?$uniform_real@N@std@@AEBANAEAV?$mersenne_twister_engine@_K$0EA@$0BDI@$0JM@$0BP@$0?EKPNJAKFFGJJOGBH@$0BN@$0FFFFFFFFFFFFFFFF@$0BB@$0HBNGHPPPONKGAAAA@$0CF@$0?IBBCAAAAAAAAA@$0CL@$0FIFBPECNEMJFHPCN@@1@AEBUparam_type@01@@Z DD imagerel $LN16@Eval+216
	DD	imagerel $LN16@Eval+253
	DD	imagerel $chain$1$??$_Eval@V?$mersenne_twister_engine@_K$0EA@$0BDI@$0JM@$0BP@$0?EKPNJAKFFGJJOGBH@$0BN@$0FFFFFFFFFFFFFFFF@$0BB@$0HBNGHPPPONKGAAAA@$0CF@$0?IBBCAAAAAAAAA@$0CL@$0FIFBPECNEMJFHPCN@@std@@@?$uniform_real@N@std@@AEBANAEAV?$mersenne_twister_engine@_K$0EA@$0BDI@$0JM@$0BP@$0?EKPNJAKFFGJJOGBH@$0BN@$0FFFFFFFFFFFFFFFF@$0BB@$0HBNGHPPPONKGAAAA@$0CF@$0?IBBCAAAAAAAAA@$0CL@$0FIFBPECNEMJFHPCN@@1@AEBUparam_type@01@@Z
pdata	ENDS
;	COMDAT pdata
pdata	SEGMENT
$pdata$??$getline@DU?$char_traits@D@std@@V?$allocator@D@2@@std@@YAAEAV?$basic_istream@DU?$char_traits@D@std@@@0@$$QEAV10@AEAV?$basic_string@DU?$char_traits@D@std@@V?$allocator@D@2@@0@D@Z DD imagerel $LN83@getline
	DD	imagerel $LN83@getline+411
	DD	imagerel $unwind$??$getline@DU?$char_traits@D@std@@V?$allocator@D@2@@std@@YAAEAV?$basic_istream@DU?$char_traits@D@std@@@0@$$QEAV10@AEAV?$basic_string@DU?$char_traits@D@std@@V?$allocator@D@2@@0@D@Z
pdata	ENDS
;	COMDAT pdata
pdata	SEGMENT
$pdata$?catch$4@?0???$getline@DU?$char_traits@D@std@@V?$allocator@D@2@@std@@YAAEAV?$basic_istream@DU?$char_traits@D@std@@@0@$$QEAV10@AEAV?$basic_string@DU?$char_traits@D@std@@V?$allocator@D@2@@0@D@Z@4HA DD imagerel ?catch$4@?0???$getline@DU?$char_traits@D@std@@V?$allocator@D@2@@std@@YAAEAV?$basic_istream@DU?$char_traits@D@std@@@0@$$QEAV10@AEAV?$basic_string@DU?$char_traits@D@std@@V?$allocator@D@2@@0@D@Z@4HA
	DD	imagerel ?catch$4@?0???$getline@DU?$char_traits@D@std@@V?$allocator@D@2@@std@@YAAEAV?$basic_istream@DU?$char_traits@D@std@@@0@$$QEAV10@AEAV?$basic_string@DU?$char_traits@D@std@@V?$allocator@D@2@@0@D@Z@4HA+59
	DD	imagerel $unwind$?catch$4@?0???$getline@DU?$char_traits@D@std@@V?$allocator@D@2@@std@@YAAEAV?$basic_istream@DU?$char_traits@D@std@@@0@$$QEAV10@AEAV?$basic_string@DU?$char_traits@D@std@@V?$allocator@D@2@@0@D@Z@4HA
pdata	ENDS
;	COMDAT pdata
pdata	SEGMENT
$pdata$??$print_matrix@V?$Matrix@M$0?0$0?0$0A@$0?0$0?0@Eigen@@@internal@Eigen@@YAAEAV?$basic_ostream@DU?$char_traits@D@std@@@std@@AEAV23@AEBV?$Matrix@M$0?0$0?0$0A@$0?0$0?0@1@AEBUIOFormat@1@@Z DD imagerel $LN256@print_matr
	DD	imagerel $LN256@print_matr+1349
	DD	imagerel $unwind$??$print_matrix@V?$Matrix@M$0?0$0?0$0A@$0?0$0?0@Eigen@@@internal@Eigen@@YAAEAV?$basic_ostream@DU?$char_traits@D@std@@@std@@AEAV23@AEBV?$Matrix@M$0?0$0?0$0A@$0?0$0?0@1@AEBUIOFormat@1@@Z
pdata	ENDS
;	COMDAT pdata
pdata	SEGMENT
$pdata$?dtor$2@?0???$print_matrix@V?$Matrix@M$0?0$0?0$0A@$0?0$0?0@Eigen@@@internal@Eigen@@YAAEAV?$basic_ostream@DU?$char_traits@D@std@@@std@@AEAV23@AEBV?$Matrix@M$0?0$0?0$0A@$0?0$0?0@1@AEBUIOFormat@1@@Z@4HA DD imagerel ?dtor$2@?0???$print_matrix@V?$Matrix@M$0?0$0?0$0A@$0?0$0?0@Eigen@@@internal@Eigen@@YAAEAV?$basic_ostream@DU?$char_traits@D@std@@@std@@AEAV23@AEBV?$Matrix@M$0?0$0?0$0A@$0?0$0?0@1@AEBUIOFormat@1@@Z@4HA
	DD	imagerel ?dtor$2@?0???$print_matrix@V?$Matrix@M$0?0$0?0$0A@$0?0$0?0@Eigen@@@internal@Eigen@@YAAEAV?$basic_ostream@DU?$char_traits@D@std@@@std@@AEAV23@AEBV?$Matrix@M$0?0$0?0$0A@$0?0$0?0@1@AEBUIOFormat@1@@Z@4HA+46
	DD	imagerel $unwind$?dtor$2@?0???$print_matrix@V?$Matrix@M$0?0$0?0$0A@$0?0$0?0@Eigen@@@internal@Eigen@@YAAEAV?$basic_ostream@DU?$char_traits@D@std@@@std@@AEAV23@AEBV?$Matrix@M$0?0$0?0$0A@$0?0$0?0@1@AEBUIOFormat@1@@Z@4HA
pdata	ENDS
;	COMDAT pdata
pdata	SEGMENT
$pdata$?dtor$7@?0???$print_matrix@V?$Matrix@M$0?0$0?0$0A@$0?0$0?0@Eigen@@@internal@Eigen@@YAAEAV?$basic_ostream@DU?$char_traits@D@std@@@std@@AEAV23@AEBV?$Matrix@M$0?0$0?0$0A@$0?0$0?0@1@AEBUIOFormat@1@@Z@4HA DD imagerel ?dtor$7@?0???$print_matrix@V?$Matrix@M$0?0$0?0$0A@$0?0$0?0@Eigen@@@internal@Eigen@@YAAEAV?$basic_ostream@DU?$char_traits@D@std@@@std@@AEAV23@AEBV?$Matrix@M$0?0$0?0$0A@$0?0$0?0@1@AEBUIOFormat@1@@Z@4HA
	DD	imagerel ?dtor$7@?0???$print_matrix@V?$Matrix@M$0?0$0?0$0A@$0?0$0?0@Eigen@@@internal@Eigen@@YAAEAV?$basic_ostream@DU?$char_traits@D@std@@@std@@AEAV23@AEBV?$Matrix@M$0?0$0?0$0A@$0?0$0?0@1@AEBUIOFormat@1@@Z@4HA+38
	DD	imagerel $unwind$?dtor$7@?0???$print_matrix@V?$Matrix@M$0?0$0?0$0A@$0?0$0?0@Eigen@@@internal@Eigen@@YAAEAV?$basic_ostream@DU?$char_traits@D@std@@@std@@AEAV23@AEBV?$Matrix@M$0?0$0?0$0A@$0?0$0?0@1@AEBUIOFormat@1@@Z@4HA
pdata	ENDS
;	COMDAT pdata
pdata	SEGMENT
$pdata$??$_Insert_string@DU?$char_traits@D@std@@_K@std@@YAAEAV?$basic_ostream@DU?$char_traits@D@std@@@0@AEAV10@QEBD_K@Z DD imagerel $LN99@Insert_str
	DD	imagerel $LN99@Insert_str+447
	DD	imagerel $unwind$??$_Insert_string@DU?$char_traits@D@std@@_K@std@@YAAEAV?$basic_ostream@DU?$char_traits@D@std@@@0@AEAV10@QEBD_K@Z
pdata	ENDS
;	COMDAT pdata
pdata	SEGMENT
$pdata$?catch$4@?0???$_Insert_string@DU?$char_traits@D@std@@_K@std@@YAAEAV?$basic_ostream@DU?$char_traits@D@std@@@0@AEAV10@QEBD_K@Z@4HA DD imagerel ?catch$4@?0???$_Insert_string@DU?$char_traits@D@std@@_K@std@@YAAEAV?$basic_ostream@DU?$char_traits@D@std@@@0@AEAV10@QEBD_K@Z@4HA
	DD	imagerel ?catch$4@?0???$_Insert_string@DU?$char_traits@D@std@@_K@std@@YAAEAV?$basic_ostream@DU?$char_traits@D@std@@@0@AEAV10@QEBD_K@Z@4HA+59
	DD	imagerel $unwind$?catch$4@?0???$_Insert_string@DU?$char_traits@D@std@@_K@std@@YAAEAV?$basic_ostream@DU?$char_traits@D@std@@@0@AEAV10@QEBD_K@Z@4HA
pdata	ENDS
;	COMDAT pdata
pdata	SEGMENT
$pdata$?_Umove_if_noexcept1@?$vector@UGame@uci@@V?$allocator@UGame@uci@@@std@@@std@@AEAAXPEAUGame@uci@@00U?$integral_constant@_N$00@2@@Z DD imagerel $LN41@Umove_if_n
	DD	imagerel $LN41@Umove_if_n+22
	DD	imagerel $unwind$?_Umove_if_noexcept1@?$vector@UGame@uci@@V?$allocator@UGame@uci@@@std@@@std@@AEAAXPEAUGame@uci@@00U?$integral_constant@_N$00@2@@Z
pdata	ENDS
;	COMDAT pdata
pdata	SEGMENT
$pdata$1$?_Umove_if_noexcept1@?$vector@UGame@uci@@V?$allocator@UGame@uci@@@std@@@std@@AEAAXPEAUGame@uci@@00U?$integral_constant@_N$00@2@@Z DD imagerel $LN41@Umove_if_n+22
	DD	imagerel $LN41@Umove_if_n+115
	DD	imagerel $chain$1$?_Umove_if_noexcept1@?$vector@UGame@uci@@V?$allocator@UGame@uci@@@std@@@std@@AEAAXPEAUGame@uci@@00U?$integral_constant@_N$00@2@@Z
pdata	ENDS
;	COMDAT pdata
pdata	SEGMENT
$pdata$2$?_Umove_if_noexcept1@?$vector@UGame@uci@@V?$allocator@UGame@uci@@@std@@@std@@AEAAXPEAUGame@uci@@00U?$integral_constant@_N$00@2@@Z DD imagerel $LN41@Umove_if_n+115
	DD	imagerel $LN41@Umove_if_n+133
	DD	imagerel $chain$2$?_Umove_if_noexcept1@?$vector@UGame@uci@@V?$allocator@UGame@uci@@@std@@@std@@AEAAXPEAUGame@uci@@00U?$integral_constant@_N$00@2@@Z
pdata	ENDS
;	COMDAT pdata
pdata	SEGMENT
$pdata$?allocate@?$allocator@H@std@@QEAAPEAH_K@Z DD imagerel $LN30@allocate
	DD	imagerel $LN30@allocate+112
	DD	imagerel $unwind$?allocate@?$allocator@H@std@@QEAAPEAH_K@Z
pdata	ENDS
;	COMDAT pdata
pdata	SEGMENT
$pdata$?_Umove@?$vector@HV?$allocator@H@std@@@std@@AEAAPEAHPEAH00@Z DD imagerel $LN8@Umove
	DD	imagerel $LN8@Umove+49
	DD	imagerel $unwind$?_Umove@?$vector@HV?$allocator@H@std@@@std@@AEAAPEAHPEAH00@Z
pdata	ENDS
;	COMDAT pdata
pdata	SEGMENT
$pdata$?_Change_array@?$vector@HV?$allocator@H@std@@@std@@AEAAXQEAH_K1@Z DD imagerel $LN25@Change_arr
	DD	imagerel $LN25@Change_arr+136
	DD	imagerel $unwind$?_Change_array@?$vector@HV?$allocator@H@std@@@std@@AEAAXQEAH_K1@Z
pdata	ENDS
;	COMDAT pdata
pdata	SEGMENT
$pdata$?_Xlength@?$vector@HV?$allocator@H@std@@@std@@CAXXZ DD imagerel $LN4@Xlength
	DD	imagerel $LN4@Xlength+18
	DD	imagerel $unwind$?_Xlength@?$vector@HV?$allocator@H@std@@@std@@CAXXZ
pdata	ENDS
;	COMDAT pdata
pdata	SEGMENT
$pdata$?allocate@?$allocator@UGame@uci@@@std@@QEAAPEAUGame@uci@@_K@Z DD imagerel $LN30@allocate
	DD	imagerel $LN30@allocate+108
	DD	imagerel $unwind$?allocate@?$allocator@UGame@uci@@@std@@QEAAPEAUGame@uci@@_K@Z
pdata	ENDS
;	COMDAT pdata
pdata	SEGMENT
$pdata$?_Umove@?$vector@UGame@uci@@V?$allocator@UGame@uci@@@std@@@std@@AEAAPEAUGame@uci@@PEAU34@00@Z DD imagerel $LN41@Umove
	DD	imagerel $LN41@Umove+22
	DD	imagerel $unwind$?_Umove@?$vector@UGame@uci@@V?$allocator@UGame@uci@@@std@@@std@@AEAAPEAUGame@uci@@PEAU34@00@Z
pdata	ENDS
;	COMDAT pdata
pdata	SEGMENT
$pdata$1$?_Umove@?$vector@UGame@uci@@V?$allocator@UGame@uci@@@std@@@std@@AEAAPEAUGame@uci@@PEAU34@00@Z DD imagerel $LN41@Umove+22
	DD	imagerel $LN41@Umove+115
	DD	imagerel $chain$1$?_Umove@?$vector@UGame@uci@@V?$allocator@UGame@uci@@@std@@@std@@AEAAPEAUGame@uci@@PEAU34@00@Z
pdata	ENDS
;	COMDAT pdata
pdata	SEGMENT
$pdata$2$?_Umove@?$vector@UGame@uci@@V?$allocator@UGame@uci@@@std@@@std@@AEAAPEAUGame@uci@@PEAU34@00@Z DD imagerel $LN41@Umove+115
	DD	imagerel $LN41@Umove+137
	DD	imagerel $chain$2$?_Umove@?$vector@UGame@uci@@V?$allocator@UGame@uci@@@std@@@std@@AEAAPEAUGame@uci@@PEAU34@00@Z
pdata	ENDS
;	COMDAT pdata
pdata	SEGMENT
$pdata$?_Umove_if_noexcept@?$vector@UGame@uci@@V?$allocator@UGame@uci@@@std@@@std@@AEAAXPEAUGame@uci@@00@Z DD imagerel $LN43@Umove_if_n
	DD	imagerel $LN43@Umove_if_n+37
	DD	imagerel $unwind$?_Umove_if_noexcept@?$vector@UGame@uci@@V?$allocator@UGame@uci@@@std@@@std@@AEAAXPEAUGame@uci@@00@Z
pdata	ENDS
;	COMDAT pdata
pdata	SEGMENT
$pdata$1$?_Umove_if_noexcept@?$vector@UGame@uci@@V?$allocator@UGame@uci@@@std@@@std@@AEAAXPEAUGame@uci@@00@Z DD imagerel $LN43@Umove_if_n+37
	DD	imagerel $LN43@Umove_if_n+131
	DD	imagerel $chain$1$?_Umove_if_noexcept@?$vector@UGame@uci@@V?$allocator@UGame@uci@@@std@@@std@@AEAAXPEAUGame@uci@@00@Z
pdata	ENDS
;	COMDAT pdata
pdata	SEGMENT
$pdata$2$?_Umove_if_noexcept@?$vector@UGame@uci@@V?$allocator@UGame@uci@@@std@@@std@@AEAAXPEAUGame@uci@@00@Z DD imagerel $LN43@Umove_if_n+131
	DD	imagerel $LN43@Umove_if_n+163
	DD	imagerel $chain$2$?_Umove_if_noexcept@?$vector@UGame@uci@@V?$allocator@UGame@uci@@@std@@@std@@AEAAXPEAUGame@uci@@00@Z
pdata	ENDS
;	COMDAT pdata
pdata	SEGMENT
$pdata$?_Change_array@?$vector@UGame@uci@@V?$allocator@UGame@uci@@@std@@@std@@AEAAXQEAUGame@uci@@_K1@Z DD imagerel $LN27@Change_arr
	DD	imagerel $LN27@Change_arr+181
	DD	imagerel $unwind$?_Change_array@?$vector@UGame@uci@@V?$allocator@UGame@uci@@@std@@@std@@AEAAXQEAUGame@uci@@_K1@Z
pdata	ENDS
;	COMDAT pdata
pdata	SEGMENT
$pdata$?_Xlength@?$vector@UGame@uci@@V?$allocator@UGame@uci@@@std@@@std@@CAXXZ DD imagerel $LN4@Xlength
	DD	imagerel $LN4@Xlength+18
	DD	imagerel $unwind$?_Xlength@?$vector@UGame@uci@@V?$allocator@UGame@uci@@@std@@@std@@CAXXZ
pdata	ENDS
;	COMDAT pdata
pdata	SEGMENT
$pdata$??1?$_Uninitialized_backout_al@V?$allocator@V?$Matrix@M$0?0$0?0$0A@$0?0$0?0@Eigen@@@std@@@std@@QEAA@XZ DD imagerel $LN34@Uninitiali
	DD	imagerel $LN34@Uninitiali+51
	DD	imagerel $unwind$??1?$_Uninitialized_backout_al@V?$allocator@V?$Matrix@M$0?0$0?0$0A@$0?0$0?0@Eigen@@@std@@@std@@QEAA@XZ
pdata	ENDS
;	COMDAT pdata
pdata	SEGMENT
$pdata$??1IOFormat@Eigen@@QEAA@XZ DD imagerel $LN196@IOFormat
	DD	imagerel $LN196@IOFormat+593
	DD	imagerel $unwind$??1IOFormat@Eigen@@QEAA@XZ
pdata	ENDS
;	COMDAT pdata
pdata	SEGMENT
$pdata$??$_Get_size_of_n@$0BI@@std@@YA_K_K@Z DD imagerel $LN7@Get_size_o
	DD	imagerel $LN7@Get_size_o+38
	DD	imagerel $unwind$??$_Get_size_of_n@$0BI@@std@@YA_K_K@Z
pdata	ENDS
;	COMDAT pdata
pdata	SEGMENT
$pdata$??$_Destroy_range@V?$allocator@V?$Matrix@M$0?0$0?0$0A@$0?0$0?0@Eigen@@@std@@@std@@YAXPEAV?$Matrix@M$0?0$0?0$0A@$0?0$0?0@Eigen@@QEAV12@AEAV?$allocator@V?$Matrix@M$0?0$0?0$0A@$0?0$0?0@Eigen@@@0@@Z DD imagerel $LN33@Destroy_ra
	DD	imagerel $LN33@Destroy_ra+50
	DD	imagerel $unwind$??$_Destroy_range@V?$allocator@V?$Matrix@M$0?0$0?0$0A@$0?0$0?0@Eigen@@@std@@@std@@YAXPEAV?$Matrix@M$0?0$0?0$0A@$0?0$0?0@Eigen@@QEAV12@AEAV?$allocator@V?$Matrix@M$0?0$0?0$0A@$0?0$0?0@Eigen@@@0@@Z
pdata	ENDS
;	COMDAT pdata
pdata	SEGMENT
$pdata$??$_Destroy_range@V?$allocator@V?$unique_ptr@VLayer@@U?$default_delete@VLayer@@@std@@@std@@@std@@@std@@YAXPEAV?$unique_ptr@VLayer@@U?$default_delete@VLayer@@@std@@@0@QEAV10@AEAV?$allocator@V?$unique_ptr@VLayer@@U?$default_delete@VLayer@@@std@@@std@@@0@@Z DD imagerel $LN25@Destroy_ra
	DD	imagerel $LN25@Destroy_ra+59
	DD	imagerel $unwind$??$_Destroy_range@V?$allocator@V?$unique_ptr@VLayer@@U?$default_delete@VLayer@@@std@@@std@@@std@@@std@@YAXPEAV?$unique_ptr@VLayer@@U?$default_delete@VLayer@@@std@@@0@QEAV10@AEAV?$allocator@V?$unique_ptr@VLayer@@U?$default_delete@VLayer@@@std@@@std@@@0@@Z
pdata	ENDS
;	COMDAT pdata
pdata	SEGMENT
$pdata$??$_Buyheadnode@V?$allocator@U?$_Tree_node@U?$pair@$$CB_KUgameInfo@@@std@@PEAX@std@@@std@@@?$_Tree_node@U?$pair@$$CB_KUgameInfo@@@std@@PEAX@std@@SAPEAU01@AEAV?$allocator@U?$_Tree_node@U?$pair@$$CB_KUgameInfo@@@std@@PEAX@std@@@1@@Z DD imagerel $LN32@Buyheadnod
	DD	imagerel $LN32@Buyheadnod+36
	DD	imagerel $unwind$??$_Buyheadnode@V?$allocator@U?$_Tree_node@U?$pair@$$CB_KUgameInfo@@@std@@PEAX@std@@@std@@@?$_Tree_node@U?$pair@$$CB_KUgameInfo@@@std@@PEAX@std@@SAPEAU01@AEAV?$allocator@U?$_Tree_node@U?$pair@$$CB_KUgameInfo@@@std@@PEAX@std@@@1@@Z
pdata	ENDS
;	COMDAT pdata
pdata	SEGMENT
$pdata$??$_Destroy_range@V?$allocator@UGame@uci@@@std@@@std@@YAXPEAUGame@uci@@QEAU12@AEAV?$allocator@UGame@uci@@@0@@Z DD imagerel $LN56@Destroy_ra
	DD	imagerel $LN56@Destroy_ra+14
	DD	imagerel $unwind$??$_Destroy_range@V?$allocator@UGame@uci@@@std@@@std@@YAXPEAUGame@uci@@QEAU12@AEAV?$allocator@UGame@uci@@@0@@Z
pdata	ENDS
;	COMDAT pdata
pdata	SEGMENT
$pdata$1$??$_Destroy_range@V?$allocator@UGame@uci@@@std@@@std@@YAXPEAUGame@uci@@QEAU12@AEAV?$allocator@UGame@uci@@@0@@Z DD imagerel $LN56@Destroy_ra+14
	DD	imagerel $LN56@Destroy_ra+138
	DD	imagerel $chain$1$??$_Destroy_range@V?$allocator@UGame@uci@@@std@@@std@@YAXPEAUGame@uci@@QEAU12@AEAV?$allocator@UGame@uci@@@0@@Z
pdata	ENDS
;	COMDAT pdata
pdata	SEGMENT
$pdata$2$??$_Destroy_range@V?$allocator@UGame@uci@@@std@@@std@@YAXPEAUGame@uci@@QEAU12@AEAV?$allocator@UGame@uci@@@0@@Z DD imagerel $LN56@Destroy_ra+138
	DD	imagerel $LN56@Destroy_ra+139
	DD	imagerel $chain$2$??$_Destroy_range@V?$allocator@UGame@uci@@@std@@@std@@YAXPEAUGame@uci@@QEAU12@AEAV?$allocator@UGame@uci@@@0@@Z
pdata	ENDS
;	COMDAT pdata
pdata	SEGMENT
$pdata$3$??$_Destroy_range@V?$allocator@UGame@uci@@@std@@@std@@YAXPEAUGame@uci@@QEAU12@AEAV?$allocator@UGame@uci@@@0@@Z DD imagerel $LN56@Destroy_ra+139
	DD	imagerel $LN56@Destroy_ra+146
	DD	imagerel $chain$3$??$_Destroy_range@V?$allocator@UGame@uci@@@std@@@std@@YAXPEAUGame@uci@@QEAU12@AEAV?$allocator@UGame@uci@@@0@@Z
pdata	ENDS
;	COMDAT pdata
pdata	SEGMENT
$pdata$??$_Reallocate_for@V<lambda_66f57f934f28d61049862f64df852ff0>@@PEBD@?$basic_string@DU?$char_traits@D@std@@V?$allocator@D@2@@std@@AEAAAEAV01@_KV<lambda_66f57f934f28d61049862f64df852ff0>@@PEBD@Z DD imagerel $LN66@Reallocate
	DD	imagerel $LN66@Reallocate+39
	DD	imagerel $unwind$??$_Reallocate_for@V<lambda_66f57f934f28d61049862f64df852ff0>@@PEBD@?$basic_string@DU?$char_traits@D@std@@V?$allocator@D@2@@std@@AEAAAEAV01@_KV<lambda_66f57f934f28d61049862f64df852ff0>@@PEBD@Z
pdata	ENDS
;	COMDAT pdata
pdata	SEGMENT
$pdata$1$??$_Reallocate_for@V<lambda_66f57f934f28d61049862f64df852ff0>@@PEBD@?$basic_string@DU?$char_traits@D@std@@V?$allocator@D@2@@std@@AEAAAEAV01@_KV<lambda_66f57f934f28d61049862f64df852ff0>@@PEBD@Z DD imagerel $LN66@Reallocate+39
	DD	imagerel $LN66@Reallocate+289
	DD	imagerel $chain$1$??$_Reallocate_for@V<lambda_66f57f934f28d61049862f64df852ff0>@@PEBD@?$basic_string@DU?$char_traits@D@std@@V?$allocator@D@2@@std@@AEAAAEAV01@_KV<lambda_66f57f934f28d61049862f64df852ff0>@@PEBD@Z
pdata	ENDS
;	COMDAT pdata
pdata	SEGMENT
$pdata$3$??$_Reallocate_for@V<lambda_66f57f934f28d61049862f64df852ff0>@@PEBD@?$basic_string@DU?$char_traits@D@std@@V?$allocator@D@2@@std@@AEAAAEAV01@_KV<lambda_66f57f934f28d61049862f64df852ff0>@@PEBD@Z DD imagerel $LN66@Reallocate+289
	DD	imagerel $LN66@Reallocate+302
	DD	imagerel $chain$3$??$_Reallocate_for@V<lambda_66f57f934f28d61049862f64df852ff0>@@PEBD@?$basic_string@DU?$char_traits@D@std@@V?$allocator@D@2@@std@@AEAAAEAV01@_KV<lambda_66f57f934f28d61049862f64df852ff0>@@PEBD@Z
pdata	ENDS
;	COMDAT pdata
pdata	SEGMENT
$pdata$4$??$_Reallocate_for@V<lambda_66f57f934f28d61049862f64df852ff0>@@PEBD@?$basic_string@DU?$char_traits@D@std@@V?$allocator@D@2@@std@@AEAAAEAV01@_KV<lambda_66f57f934f28d61049862f64df852ff0>@@PEBD@Z DD imagerel $LN66@Reallocate+302
	DD	imagerel $LN66@Reallocate+308
	DD	imagerel $chain$4$??$_Reallocate_for@V<lambda_66f57f934f28d61049862f64df852ff0>@@PEBD@?$basic_string@DU?$char_traits@D@std@@V?$allocator@D@2@@std@@AEAAAEAV01@_KV<lambda_66f57f934f28d61049862f64df852ff0>@@PEBD@Z
pdata	ENDS
;	COMDAT pdata
pdata	SEGMENT
$pdata$??$_Reallocate_grow_by@V<lambda_319d5e083f45f90dcdce5dce53cbb275>@@D@?$basic_string@DU?$char_traits@D@std@@V?$allocator@D@2@@std@@AEAAAEAV01@_KV<lambda_319d5e083f45f90dcdce5dce53cbb275>@@D@Z DD imagerel $LN71@Reallocate
	DD	imagerel $LN71@Reallocate+47
	DD	imagerel $unwind$??$_Reallocate_grow_by@V<lambda_319d5e083f45f90dcdce5dce53cbb275>@@D@?$basic_string@DU?$char_traits@D@std@@V?$allocator@D@2@@std@@AEAAAEAV01@_KV<lambda_319d5e083f45f90dcdce5dce53cbb275>@@D@Z
pdata	ENDS
;	COMDAT pdata
pdata	SEGMENT
$pdata$2$??$_Reallocate_grow_by@V<lambda_319d5e083f45f90dcdce5dce53cbb275>@@D@?$basic_string@DU?$char_traits@D@std@@V?$allocator@D@2@@std@@AEAAAEAV01@_KV<lambda_319d5e083f45f90dcdce5dce53cbb275>@@D@Z DD imagerel $LN71@Reallocate+47
	DD	imagerel $LN71@Reallocate+339
	DD	imagerel $chain$2$??$_Reallocate_grow_by@V<lambda_319d5e083f45f90dcdce5dce53cbb275>@@D@?$basic_string@DU?$char_traits@D@std@@V?$allocator@D@2@@std@@AEAAAEAV01@_KV<lambda_319d5e083f45f90dcdce5dce53cbb275>@@D@Z
pdata	ENDS
;	COMDAT pdata
pdata	SEGMENT
$pdata$4$??$_Reallocate_grow_by@V<lambda_319d5e083f45f90dcdce5dce53cbb275>@@D@?$basic_string@DU?$char_traits@D@std@@V?$allocator@D@2@@std@@AEAAAEAV01@_KV<lambda_319d5e083f45f90dcdce5dce53cbb275>@@D@Z DD imagerel $LN71@Reallocate+339
	DD	imagerel $LN71@Reallocate+345
	DD	imagerel $chain$4$??$_Reallocate_grow_by@V<lambda_319d5e083f45f90dcdce5dce53cbb275>@@D@?$basic_string@DU?$char_traits@D@std@@V?$allocator@D@2@@std@@AEAAAEAV01@_KV<lambda_319d5e083f45f90dcdce5dce53cbb275>@@D@Z
pdata	ENDS
;	COMDAT pdata
pdata	SEGMENT
$pdata$5$??$_Reallocate_grow_by@V<lambda_319d5e083f45f90dcdce5dce53cbb275>@@D@?$basic_string@DU?$char_traits@D@std@@V?$allocator@D@2@@std@@AEAAAEAV01@_KV<lambda_319d5e083f45f90dcdce5dce53cbb275>@@D@Z DD imagerel $LN71@Reallocate+345
	DD	imagerel $LN71@Reallocate+351
	DD	imagerel $chain$5$??$_Reallocate_grow_by@V<lambda_319d5e083f45f90dcdce5dce53cbb275>@@D@?$basic_string@DU?$char_traits@D@std@@V?$allocator@D@2@@std@@AEAAAEAV01@_KV<lambda_319d5e083f45f90dcdce5dce53cbb275>@@D@Z
pdata	ENDS
;	COMDAT pdata
pdata	SEGMENT
$pdata$??$conditional_aligned_new_auto@M$00@internal@Eigen@@YAPEAM_K@Z DD imagerel $LN25@conditiona
	DD	imagerel $LN25@conditiona+26
	DD	imagerel $unwind$??$conditional_aligned_new_auto@M$00@internal@Eigen@@YAPEAM_K@Z
pdata	ENDS
;	COMDAT pdata
pdata	SEGMENT
$pdata$0$??$conditional_aligned_new_auto@M$00@internal@Eigen@@YAPEAM_K@Z DD imagerel $LN25@conditiona+26
	DD	imagerel $LN25@conditiona+73
	DD	imagerel $chain$0$??$conditional_aligned_new_auto@M$00@internal@Eigen@@YAPEAM_K@Z
pdata	ENDS
;	COMDAT pdata
pdata	SEGMENT
$pdata$2$??$conditional_aligned_new_auto@M$00@internal@Eigen@@YAPEAM_K@Z DD imagerel $LN25@conditiona+73
	DD	imagerel $LN25@conditiona+79
	DD	imagerel $chain$2$??$conditional_aligned_new_auto@M$00@internal@Eigen@@YAPEAM_K@Z
pdata	ENDS
;	COMDAT pdata
pdata	SEGMENT
$pdata$??$_Traits_find@U?$char_traits@D@std@@@std@@YA_KQEBD_K101@Z DD imagerel $LN23@Traits_fin
	DD	imagerel $LN23@Traits_fin+183
	DD	imagerel $unwind$??$_Traits_find@U?$char_traits@D@std@@@std@@YA_KQEBD_K101@Z
pdata	ENDS
;	COMDAT pdata
pdata	SEGMENT
$pdata$??$_Traits_find_ch@U?$char_traits@D@std@@@std@@YA_KQEBD_K1D@Z DD imagerel $LN9@Traits_fin
	DD	imagerel $LN9@Traits_fin+54
	DD	imagerel $unwind$??$_Traits_find_ch@U?$char_traits@D@std@@@std@@YA_KQEBD_K1D@Z
pdata	ENDS
;	COMDAT pdata
pdata	SEGMENT
$pdata$??$run@_J@?$check_rows_cols_for_overflow@$0?0@internal@Eigen@@SAX_J0@Z DD imagerel $LN9@run
	DD	imagerel $LN9@run+48
	DD	imagerel $unwind$??$run@_J@?$check_rows_cols_for_overflow@$0?0@internal@Eigen@@SAX_J0@Z
pdata	ENDS
;	COMDAT pdata
pdata	SEGMENT
$pdata$??$_Erase_head@V?$allocator@U?$_Tree_node@U?$pair@$$CB_KUgameInfo@@@std@@PEAX@std@@@std@@@?$_Tree_val@U?$_Tree_simple_types@U?$pair@$$CB_KUgameInfo@@@std@@@std@@@std@@QEAAXAEAV?$allocator@U?$_Tree_node@U?$pair@$$CB_KUgameInfo@@@std@@PEAX@std@@@1@@Z DD imagerel $LN60@Erase_head
	DD	imagerel $LN60@Erase_head+113
	DD	imagerel $unwind$??$_Erase_head@V?$allocator@U?$_Tree_node@U?$pair@$$CB_KUgameInfo@@@std@@PEAX@std@@@std@@@?$_Tree_val@U?$_Tree_simple_types@U?$pair@$$CB_KUgameInfo@@@std@@@std@@@std@@QEAAXAEAV?$allocator@U?$_Tree_node@U?$pair@$$CB_KUgameInfo@@@std@@PEAX@std@@@1@@Z
pdata	ENDS
;	COMDAT pdata
pdata	SEGMENT
$pdata$??$_Erase_tree@V?$allocator@U?$_Tree_node@U?$pair@$$CB_KUgameInfo@@@std@@PEAX@std@@@std@@@?$_Tree_val@U?$_Tree_simple_types@U?$pair@$$CB_KUgameInfo@@@std@@@std@@@std@@QEAAXAEAV?$allocator@U?$_Tree_node@U?$pair@$$CB_KUgameInfo@@@std@@PEAX@std@@@1@PEAU?$_Tree_node@U?$pair@$$CB_KUgameInfo@@@std@@PEAX@1@@Z DD imagerel $LN37@Erase_tree
	DD	imagerel $LN37@Erase_tree+77
	DD	imagerel $unwind$??$_Erase_tree@V?$allocator@U?$_Tree_node@U?$pair@$$CB_KUgameInfo@@@std@@PEAX@std@@@std@@@?$_Tree_val@U?$_Tree_simple_types@U?$pair@$$CB_KUgameInfo@@@std@@@std@@@std@@QEAAXAEAV?$allocator@U?$_Tree_node@U?$pair@$$CB_KUgameInfo@@@std@@PEAX@std@@@1@PEAU?$_Tree_node@U?$pair@$$CB_KUgameInfo@@@std@@PEAX@1@@Z
pdata	ENDS
;	COMDAT pdata
pdata	SEGMENT
$pdata$??$use_facet@V?$codecvt@DDU_Mbstatet@@@std@@@std@@YAAEBV?$codecvt@DDU_Mbstatet@@@0@AEBVlocale@0@@Z DD imagerel $LN41@use_facet
	DD	imagerel $LN41@use_facet+251
	DD	imagerel $unwind$??$use_facet@V?$codecvt@DDU_Mbstatet@@@std@@@std@@YAAEBV?$codecvt@DDU_Mbstatet@@@0@AEBVlocale@0@@Z
pdata	ENDS
;	COMDAT pdata
pdata	SEGMENT
$pdata$??$?0HH@?$Matrix@M$0?0$0?0$0A@$0?0$0?0@Eigen@@QEAA@AEBH0@Z DD imagerel $LN36@Matrix
	DD	imagerel $LN36@Matrix+153
	DD	imagerel $unwind$??$?0HH@?$Matrix@M$0?0$0?0$0A@$0?0$0?0@Eigen@@QEAA@AEBH0@Z
pdata	ENDS
;	COMDAT pdata
pdata	SEGMENT
$pdata$??$?RV?$mersenne_twister_engine@_K$0EA@$0BDI@$0JM@$0BP@$0?EKPNJAKFFGJJOGBH@$0BN@$0FFFFFFFFFFFFFFFF@$0BB@$0HBNGHPPPONKGAAAA@$0CF@$0?IBBCAAAAAAAAA@$0CL@$0FIFBPECNEMJFHPCN@@std@@@?$uniform_int@H@std@@QEBAHAEAV?$mersenne_twister_engine@_K$0EA@$0BDI@$0JM@$0BP@$0?EKPNJAKFFGJJOGBH@$0BN@$0FFFFFFFFFFFFFFFF@$0BB@$0HBNGHPPPONKGAAAA@$0CF@$0?IBBCAAAAAAAAA@$0CL@$0FIFBPECNEMJFHPCN@@1@@Z DD imagerel $LN82@operator
	DD	imagerel $LN82@operator+86
	DD	imagerel $unwind$??$?RV?$mersenne_twister_engine@_K$0EA@$0BDI@$0JM@$0BP@$0?EKPNJAKFFGJJOGBH@$0BN@$0FFFFFFFFFFFFFFFF@$0BB@$0HBNGHPPPONKGAAAA@$0CF@$0?IBBCAAAAAAAAA@$0CL@$0FIFBPECNEMJFHPCN@@std@@@?$uniform_int@H@std@@QEBAHAEAV?$mersenne_twister_engine@_K$0EA@$0BDI@$0JM@$0BP@$0?EKPNJAKFFGJJOGBH@$0BN@$0FFFFFFFFFFFFFFFF@$0BB@$0HBNGHPPPONKGAAAA@$0CF@$0?IBBCAAAAAAAAA@$0CL@$0FIFBPECNEMJFHPCN@@1@@Z
pdata	ENDS
;	COMDAT pdata
pdata	SEGMENT
$pdata$1$??$?RV?$mersenne_twister_engine@_K$0EA@$0BDI@$0JM@$0BP@$0?EKPNJAKFFGJJOGBH@$0BN@$0FFFFFFFFFFFFFFFF@$0BB@$0HBNGHPPPONKGAAAA@$0CF@$0?IBBCAAAAAAAAA@$0CL@$0FIFBPECNEMJFHPCN@@std@@@?$uniform_int@H@std@@QEBAHAEAV?$mersenne_twister_engine@_K$0EA@$0BDI@$0JM@$0BP@$0?EKPNJAKFFGJJOGBH@$0BN@$0FFFFFFFFFFFFFFFF@$0BB@$0HBNGHPPPONKGAAAA@$0CF@$0?IBBCAAAAAAAAA@$0CL@$0FIFBPECNEMJFHPCN@@1@@Z DD imagerel $LN82@operator+86
	DD	imagerel $LN82@operator+176
	DD	imagerel $chain$1$??$?RV?$mersenne_twister_engine@_K$0EA@$0BDI@$0JM@$0BP@$0?EKPNJAKFFGJJOGBH@$0BN@$0FFFFFFFFFFFFFFFF@$0BB@$0HBNGHPPPONKGAAAA@$0CF@$0?IBBCAAAAAAAAA@$0CL@$0FIFBPECNEMJFHPCN@@std@@@?$uniform_int@H@std@@QEBAHAEAV?$mersenne_twister_engine@_K$0EA@$0BDI@$0JM@$0BP@$0?EKPNJAKFFGJJOGBH@$0BN@$0FFFFFFFFFFFFFFFF@$0BB@$0HBNGHPPPONKGAAAA@$0CF@$0?IBBCAAAAAAAAA@$0CL@$0FIFBPECNEMJFHPCN@@1@@Z
pdata	ENDS
;	COMDAT pdata
pdata	SEGMENT
$pdata$2$??$?RV?$mersenne_twister_engine@_K$0EA@$0BDI@$0JM@$0BP@$0?EKPNJAKFFGJJOGBH@$0BN@$0FFFFFFFFFFFFFFFF@$0BB@$0HBNGHPPPONKGAAAA@$0CF@$0?IBBCAAAAAAAAA@$0CL@$0FIFBPECNEMJFHPCN@@std@@@?$uniform_int@H@std@@QEBAHAEAV?$mersenne_twister_engine@_K$0EA@$0BDI@$0JM@$0BP@$0?EKPNJAKFFGJJOGBH@$0BN@$0FFFFFFFFFFFFFFFF@$0BB@$0HBNGHPPPONKGAAAA@$0CF@$0?IBBCAAAAAAAAA@$0CL@$0FIFBPECNEMJFHPCN@@1@@Z DD imagerel $LN82@operator+176
	DD	imagerel $LN82@operator+211
	DD	imagerel $chain$2$??$?RV?$mersenne_twister_engine@_K$0EA@$0BDI@$0JM@$0BP@$0?EKPNJAKFFGJJOGBH@$0BN@$0FFFFFFFFFFFFFFFF@$0BB@$0HBNGHPPPONKGAAAA@$0CF@$0?IBBCAAAAAAAAA@$0CL@$0FIFBPECNEMJFHPCN@@std@@@?$uniform_int@H@std@@QEBAHAEAV?$mersenne_twister_engine@_K$0EA@$0BDI@$0JM@$0BP@$0?EKPNJAKFFGJJOGBH@$0BN@$0FFFFFFFFFFFFFFFF@$0BB@$0HBNGHPPPONKGAAAA@$0CF@$0?IBBCAAAAAAAAA@$0CL@$0FIFBPECNEMJFHPCN@@1@@Z
pdata	ENDS
;	COMDAT pdata
pdata	SEGMENT
$pdata$??$_Emplace_reallocate@UGame@uci@@@?$vector@UGame@uci@@V?$allocator@UGame@uci@@@std@@@std@@QEAAPEAUGame@uci@@QEAU23@$$QEAU23@@Z DD imagerel $LN210@Emplace_re
	DD	imagerel $LN210@Emplace_re+176
	DD	imagerel $unwind$??$_Emplace_reallocate@UGame@uci@@@?$vector@UGame@uci@@V?$allocator@UGame@uci@@@std@@@std@@QEAAPEAUGame@uci@@QEAU23@$$QEAU23@@Z
pdata	ENDS
;	COMDAT pdata
pdata	SEGMENT
$pdata$3$??$_Emplace_reallocate@UGame@uci@@@?$vector@UGame@uci@@V?$allocator@UGame@uci@@@std@@@std@@QEAAPEAUGame@uci@@QEAU23@$$QEAU23@@Z DD imagerel $LN210@Emplace_re+176
	DD	imagerel $LN210@Emplace_re+734
	DD	imagerel $chain$3$??$_Emplace_reallocate@UGame@uci@@@?$vector@UGame@uci@@V?$allocator@UGame@uci@@@std@@@std@@QEAAPEAUGame@uci@@QEAU23@$$QEAU23@@Z
pdata	ENDS
;	COMDAT pdata
pdata	SEGMENT
$pdata$5$??$_Emplace_reallocate@UGame@uci@@@?$vector@UGame@uci@@V?$allocator@UGame@uci@@@std@@@std@@QEAAPEAUGame@uci@@QEAU23@$$QEAU23@@Z DD imagerel $LN210@Emplace_re+734
	DD	imagerel $LN210@Emplace_re+741
	DD	imagerel $chain$5$??$_Emplace_reallocate@UGame@uci@@@?$vector@UGame@uci@@V?$allocator@UGame@uci@@@std@@@std@@QEAAPEAUGame@uci@@QEAU23@$$QEAU23@@Z
pdata	ENDS
;	COMDAT pdata
pdata	SEGMENT
$pdata$6$??$_Emplace_reallocate@UGame@uci@@@?$vector@UGame@uci@@V?$allocator@UGame@uci@@@std@@@std@@QEAAPEAUGame@uci@@QEAU23@$$QEAU23@@Z DD imagerel $LN210@Emplace_re+741
	DD	imagerel $LN210@Emplace_re+747
	DD	imagerel $chain$6$??$_Emplace_reallocate@UGame@uci@@@?$vector@UGame@uci@@V?$allocator@UGame@uci@@@std@@@std@@QEAAPEAUGame@uci@@QEAU23@$$QEAU23@@Z
pdata	ENDS
;	COMDAT pdata
pdata	SEGMENT
$pdata$7$??$_Emplace_reallocate@UGame@uci@@@?$vector@UGame@uci@@V?$allocator@UGame@uci@@@std@@@std@@QEAAPEAUGame@uci@@QEAU23@$$QEAU23@@Z DD imagerel $LN210@Emplace_re+747
	DD	imagerel $LN210@Emplace_re+753
	DD	imagerel $chain$7$??$_Emplace_reallocate@UGame@uci@@@?$vector@UGame@uci@@V?$allocator@UGame@uci@@@std@@@std@@QEAAPEAUGame@uci@@QEAU23@$$QEAU23@@Z
pdata	ENDS
;	COMDAT pdata
pdata	SEGMENT
$pdata$??$_Emplace_reallocate@AEAH@?$vector@HV?$allocator@H@std@@@std@@QEAAPEAHQEAHAEAH@Z DD imagerel $LN94@Emplace_re
	DD	imagerel $LN94@Emplace_re+71
	DD	imagerel $unwind$??$_Emplace_reallocate@AEAH@?$vector@HV?$allocator@H@std@@@std@@QEAAPEAHQEAHAEAH@Z
pdata	ENDS
;	COMDAT pdata
pdata	SEGMENT
$pdata$2$??$_Emplace_reallocate@AEAH@?$vector@HV?$allocator@H@std@@@std@@QEAAPEAHQEAHAEAH@Z DD imagerel $LN94@Emplace_re+71
	DD	imagerel $LN94@Emplace_re+381
	DD	imagerel $chain$2$??$_Emplace_reallocate@AEAH@?$vector@HV?$allocator@H@std@@@std@@QEAAPEAHQEAHAEAH@Z
pdata	ENDS
;	COMDAT pdata
pdata	SEGMENT
$pdata$4$??$_Emplace_reallocate@AEAH@?$vector@HV?$allocator@H@std@@@std@@QEAAPEAHQEAHAEAH@Z DD imagerel $LN94@Emplace_re+381
	DD	imagerel $LN94@Emplace_re+388
	DD	imagerel $chain$4$??$_Emplace_reallocate@AEAH@?$vector@HV?$allocator@H@std@@@std@@QEAAPEAHQEAHAEAH@Z
pdata	ENDS
;	COMDAT pdata
pdata	SEGMENT
$pdata$5$??$_Emplace_reallocate@AEAH@?$vector@HV?$allocator@H@std@@@std@@QEAAPEAHQEAHAEAH@Z DD imagerel $LN94@Emplace_re+388
	DD	imagerel $LN94@Emplace_re+394
	DD	imagerel $chain$5$??$_Emplace_reallocate@AEAH@?$vector@HV?$allocator@H@std@@@std@@QEAAPEAHQEAHAEAH@Z
pdata	ENDS
;	COMDAT pdata
pdata	SEGMENT
$pdata$6$??$_Emplace_reallocate@AEAH@?$vector@HV?$allocator@H@std@@@std@@QEAAPEAHQEAHAEAH@Z DD imagerel $LN94@Emplace_re+394
	DD	imagerel $LN94@Emplace_re+400
	DD	imagerel $chain$6$??$_Emplace_reallocate@AEAH@?$vector@HV?$allocator@H@std@@@std@@QEAAPEAHQEAHAEAH@Z
pdata	ENDS
;	COMDAT pdata
pdata	SEGMENT
$pdata$??$_Emplace_reallocate@$$CBV?$Matrix@M$0?0$0?0$0A@$0?0$0?0@Eigen@@@?$vector@V?$Matrix@M$0?0$0?0$0A@$0?0$0?0@Eigen@@V?$allocator@V?$Matrix@M$0?0$0?0$0A@$0?0$0?0@Eigen@@@std@@@std@@QEAAPEAV?$Matrix@M$0?0$0?0$0A@$0?0$0?0@Eigen@@QEAV23@$$QEBV23@@Z DD imagerel $LN219@Emplace_re
	DD	imagerel $LN219@Emplace_re+586
	DD	imagerel $unwind$??$_Emplace_reallocate@$$CBV?$Matrix@M$0?0$0?0$0A@$0?0$0?0@Eigen@@@?$vector@V?$Matrix@M$0?0$0?0$0A@$0?0$0?0@Eigen@@V?$allocator@V?$Matrix@M$0?0$0?0$0A@$0?0$0?0@Eigen@@@std@@@std@@QEAAPEAV?$Matrix@M$0?0$0?0$0A@$0?0$0?0@Eigen@@QEAV23@$$QEBV23@@Z
pdata	ENDS
;	COMDAT pdata
pdata	SEGMENT
$pdata$?catch$14@?0???$_Emplace_reallocate@$$CBV?$Matrix@M$0?0$0?0$0A@$0?0$0?0@Eigen@@@?$vector@V?$Matrix@M$0?0$0?0$0A@$0?0$0?0@Eigen@@V?$allocator@V?$Matrix@M$0?0$0?0$0A@$0?0$0?0@Eigen@@@std@@@std@@QEAAPEAV?$Matrix@M$0?0$0?0$0A@$0?0$0?0@Eigen@@QEAV23@$$QEBV23@@Z@4HA DD imagerel ?catch$14@?0???$_Emplace_reallocate@$$CBV?$Matrix@M$0?0$0?0$0A@$0?0$0?0@Eigen@@@?$vector@V?$Matrix@M$0?0$0?0$0A@$0?0$0?0@Eigen@@V?$allocator@V?$Matrix@M$0?0$0?0$0A@$0?0$0?0@Eigen@@@std@@@std@@QEAAPEAV?$Matrix@M$0?0$0?0$0A@$0?0$0?0@Eigen@@QEAV23@$$QEBV23@@Z@4HA
	DD	imagerel ?catch$14@?0???$_Emplace_reallocate@$$CBV?$Matrix@M$0?0$0?0$0A@$0?0$0?0@Eigen@@@?$vector@V?$Matrix@M$0?0$0?0$0A@$0?0$0?0@Eigen@@V?$allocator@V?$Matrix@M$0?0$0?0$0A@$0?0$0?0@Eigen@@@std@@@std@@QEAAPEAV?$Matrix@M$0?0$0?0$0A@$0?0$0?0@Eigen@@QEAV23@$$QEBV23@@Z@4HA+49
	DD	imagerel $unwind$?catch$14@?0???$_Emplace_reallocate@$$CBV?$Matrix@M$0?0$0?0$0A@$0?0$0?0@Eigen@@@?$vector@V?$Matrix@M$0?0$0?0$0A@$0?0$0?0@Eigen@@V?$allocator@V?$Matrix@M$0?0$0?0$0A@$0?0$0?0@Eigen@@@std@@@std@@QEAAPEAV?$Matrix@M$0?0$0?0$0A@$0?0$0?0@Eigen@@QEAV23@$$QEBV23@@Z@4HA
pdata	ENDS
;	COMDAT pdata
pdata	SEGMENT
$pdata$??$construct@V?$Matrix@M$0?0$0?0$0A@$0?0$0?0@Eigen@@$$CBV12@@?$_Default_allocator_traits@V?$allocator@V?$Matrix@M$0?0$0?0$0A@$0?0$0?0@Eigen@@@std@@@std@@SAXAEAV?$allocator@V?$Matrix@M$0?0$0?0$0A@$0?0$0?0@Eigen@@@1@QEAV?$Matrix@M$0?0$0?0$0A@$0?0$0?0@Eigen@@$$QEBV34@@Z DD imagerel $LN18@construct
	DD	imagerel $LN18@construct+89
	DD	imagerel $unwind$??$construct@V?$Matrix@M$0?0$0?0$0A@$0?0$0?0@Eigen@@$$CBV12@@?$_Default_allocator_traits@V?$allocator@V?$Matrix@M$0?0$0?0$0A@$0?0$0?0@Eigen@@@std@@@std@@SAXAEAV?$allocator@V?$Matrix@M$0?0$0?0$0A@$0?0$0?0@Eigen@@@1@QEAV?$Matrix@M$0?0$0?0$0A@$0?0$0?0@Eigen@@$$QEBV34@@Z
pdata	ENDS
;	COMDAT pdata
pdata	SEGMENT
$pdata$??$_Emplace_reallocate@V?$Matrix@M$0?0$0?0$0A@$0?0$0?0@Eigen@@@?$vector@V?$Matrix@M$0?0$0?0$0A@$0?0$0?0@Eigen@@V?$allocator@V?$Matrix@M$0?0$0?0$0A@$0?0$0?0@Eigen@@@std@@@std@@QEAAPEAV?$Matrix@M$0?0$0?0$0A@$0?0$0?0@Eigen@@QEAV23@$$QEAV23@@Z DD imagerel $LN213@Emplace_re
	DD	imagerel $LN213@Emplace_re+115
	DD	imagerel $unwind$??$_Emplace_reallocate@V?$Matrix@M$0?0$0?0$0A@$0?0$0?0@Eigen@@@?$vector@V?$Matrix@M$0?0$0?0$0A@$0?0$0?0@Eigen@@V?$allocator@V?$Matrix@M$0?0$0?0$0A@$0?0$0?0@Eigen@@@std@@@std@@QEAAPEAV?$Matrix@M$0?0$0?0$0A@$0?0$0?0@Eigen@@QEAV23@$$QEAV23@@Z
pdata	ENDS
;	COMDAT pdata
pdata	SEGMENT
$pdata$2$??$_Emplace_reallocate@V?$Matrix@M$0?0$0?0$0A@$0?0$0?0@Eigen@@@?$vector@V?$Matrix@M$0?0$0?0$0A@$0?0$0?0@Eigen@@V?$allocator@V?$Matrix@M$0?0$0?0$0A@$0?0$0?0@Eigen@@@std@@@std@@QEAAPEAV?$Matrix@M$0?0$0?0$0A@$0?0$0?0@Eigen@@QEAV23@$$QEAV23@@Z DD imagerel $LN213@Emplace_re+115
	DD	imagerel $LN213@Emplace_re+526
	DD	imagerel $chain$2$??$_Emplace_reallocate@V?$Matrix@M$0?0$0?0$0A@$0?0$0?0@Eigen@@@?$vector@V?$Matrix@M$0?0$0?0$0A@$0?0$0?0@Eigen@@V?$allocator@V?$Matrix@M$0?0$0?0$0A@$0?0$0?0@Eigen@@@std@@@std@@QEAAPEAV?$Matrix@M$0?0$0?0$0A@$0?0$0?0@Eigen@@QEAV23@$$QEAV23@@Z
pdata	ENDS
;	COMDAT pdata
pdata	SEGMENT
$pdata$3$??$_Emplace_reallocate@V?$Matrix@M$0?0$0?0$0A@$0?0$0?0@Eigen@@@?$vector@V?$Matrix@M$0?0$0?0$0A@$0?0$0?0@Eigen@@V?$allocator@V?$Matrix@M$0?0$0?0$0A@$0?0$0?0@Eigen@@@std@@@std@@QEAAPEAV?$Matrix@M$0?0$0?0$0A@$0?0$0?0@Eigen@@QEAV23@$$QEAV23@@Z DD imagerel $LN213@Emplace_re+526
	DD	imagerel $LN213@Emplace_re+532
	DD	imagerel $chain$3$??$_Emplace_reallocate@V?$Matrix@M$0?0$0?0$0A@$0?0$0?0@Eigen@@@?$vector@V?$Matrix@M$0?0$0?0$0A@$0?0$0?0@Eigen@@V?$allocator@V?$Matrix@M$0?0$0?0$0A@$0?0$0?0@Eigen@@@std@@@std@@QEAAPEAV?$Matrix@M$0?0$0?0$0A@$0?0$0?0@Eigen@@QEAV23@$$QEAV23@@Z
pdata	ENDS
;	COMDAT pdata
pdata	SEGMENT
$pdata$??$?RV?$mersenne_twister_engine@_K$0EA@$0BDI@$0JM@$0BP@$0?EKPNJAKFFGJJOGBH@$0BN@$0FFFFFFFFFFFFFFFF@$0BB@$0HBNGHPPPONKGAAAA@$0CF@$0?IBBCAAAAAAAAA@$0CL@$0FIFBPECNEMJFHPCN@@std@@@?$uniform_real@N@std@@QEBANAEAV?$mersenne_twister_engine@_K$0EA@$0BDI@$0JM@$0BP@$0?EKPNJAKFFGJJOGBH@$0BN@$0FFFFFFFFFFFFFFFF@$0BB@$0HBNGHPPPONKGAAAA@$0CF@$0?IBBCAAAAAAAAA@$0CL@$0FIFBPECNEMJFHPCN@@1@@Z DD imagerel $LN18@operator
	DD	imagerel $LN18@operator+142
	DD	imagerel $unwind$??$?RV?$mersenne_twister_engine@_K$0EA@$0BDI@$0JM@$0BP@$0?EKPNJAKFFGJJOGBH@$0BN@$0FFFFFFFFFFFFFFFF@$0BB@$0HBNGHPPPONKGAAAA@$0CF@$0?IBBCAAAAAAAAA@$0CL@$0FIFBPECNEMJFHPCN@@std@@@?$uniform_real@N@std@@QEBANAEAV?$mersenne_twister_engine@_K$0EA@$0BDI@$0JM@$0BP@$0?EKPNJAKFFGJJOGBH@$0BN@$0FFFFFFFFFFFFFFFF@$0BB@$0HBNGHPPPONKGAAAA@$0CF@$0?IBBCAAAAAAAAA@$0CL@$0FIFBPECNEMJFHPCN@@1@@Z
pdata	ENDS
;	COMDAT pdata
pdata	SEGMENT
$pdata$0$??$?RV?$mersenne_twister_engine@_K$0EA@$0BDI@$0JM@$0BP@$0?EKPNJAKFFGJJOGBH@$0BN@$0FFFFFFFFFFFFFFFF@$0BB@$0HBNGHPPPONKGAAAA@$0CF@$0?IBBCAAAAAAAAA@$0CL@$0FIFBPECNEMJFHPCN@@std@@@?$uniform_real@N@std@@QEBANAEAV?$mersenne_twister_engine@_K$0EA@$0BDI@$0JM@$0BP@$0?EKPNJAKFFGJJOGBH@$0BN@$0FFFFFFFFFFFFFFFF@$0BB@$0HBNGHPPPONKGAAAA@$0CF@$0?IBBCAAAAAAAAA@$0CL@$0FIFBPECNEMJFHPCN@@1@@Z DD imagerel $LN18@operator+142
	DD	imagerel $LN18@operator+216
	DD	imagerel $chain$0$??$?RV?$mersenne_twister_engine@_K$0EA@$0BDI@$0JM@$0BP@$0?EKPNJAKFFGJJOGBH@$0BN@$0FFFFFFFFFFFFFFFF@$0BB@$0HBNGHPPPONKGAAAA@$0CF@$0?IBBCAAAAAAAAA@$0CL@$0FIFBPECNEMJFHPCN@@std@@@?$uniform_real@N@std@@QEBANAEAV?$mersenne_twister_engine@_K$0EA@$0BDI@$0JM@$0BP@$0?EKPNJAKFFGJJOGBH@$0BN@$0FFFFFFFFFFFFFFFF@$0BB@$0HBNGHPPPONKGAAAA@$0CF@$0?IBBCAAAAAAAAA@$0CL@$0FIFBPECNEMJFHPCN@@1@@Z
pdata	ENDS
;	COMDAT pdata
pdata	SEGMENT
$pdata$1$??$?RV?$mersenne_twister_engine@_K$0EA@$0BDI@$0JM@$0BP@$0?EKPNJAKFFGJJOGBH@$0BN@$0FFFFFFFFFFFFFFFF@$0BB@$0HBNGHPPPONKGAAAA@$0CF@$0?IBBCAAAAAAAAA@$0CL@$0FIFBPECNEMJFHPCN@@std@@@?$uniform_real@N@std@@QEBANAEAV?$mersenne_twister_engine@_K$0EA@$0BDI@$0JM@$0BP@$0?EKPNJAKFFGJJOGBH@$0BN@$0FFFFFFFFFFFFFFFF@$0BB@$0HBNGHPPPONKGAAAA@$0CF@$0?IBBCAAAAAAAAA@$0CL@$0FIFBPECNEMJFHPCN@@1@@Z DD imagerel $LN18@operator+216
	DD	imagerel $LN18@operator+253
	DD	imagerel $chain$1$??$?RV?$mersenne_twister_engine@_K$0EA@$0BDI@$0JM@$0BP@$0?EKPNJAKFFGJJOGBH@$0BN@$0FFFFFFFFFFFFFFFF@$0BB@$0HBNGHPPPONKGAAAA@$0CF@$0?IBBCAAAAAAAAA@$0CL@$0FIFBPECNEMJFHPCN@@std@@@?$uniform_real@N@std@@QEBANAEAV?$mersenne_twister_engine@_K$0EA@$0BDI@$0JM@$0BP@$0?EKPNJAKFFGJJOGBH@$0BN@$0FFFFFFFFFFFFFFFF@$0BB@$0HBNGHPPPONKGAAAA@$0CF@$0?IBBCAAAAAAAAA@$0CL@$0FIFBPECNEMJFHPCN@@1@@Z
pdata	ENDS
;	COMDAT pdata
pdata	SEGMENT
$pdata$??$getline@DU?$char_traits@D@std@@V?$allocator@D@2@@std@@YAAEAV?$basic_istream@DU?$char_traits@D@std@@@0@AEAV10@AEAV?$basic_string@DU?$char_traits@D@std@@V?$allocator@D@2@@0@@Z DD imagerel $LN4@getline
	DD	imagerel $LN4@getline+59
	DD	imagerel $unwind$??$getline@DU?$char_traits@D@std@@V?$allocator@D@2@@std@@YAAEAV?$basic_istream@DU?$char_traits@D@std@@@0@AEAV10@AEAV?$basic_string@DU?$char_traits@D@std@@V?$allocator@D@2@@0@@Z
pdata	ENDS
;	COMDAT pdata
pdata	SEGMENT
$pdata$??$?6V?$Matrix@M$0?0$0?0$0A@$0?0$0?0@Eigen@@@Eigen@@YAAEAV?$basic_ostream@DU?$char_traits@D@std@@@std@@AEAV12@AEBV?$DenseBase@V?$Matrix@M$0?0$0?0$0A@$0?0$0?0@Eigen@@@0@@Z DD imagerel $LN342@operator
	DD	imagerel $LN342@operator+1179
	DD	imagerel $unwind$??$?6V?$Matrix@M$0?0$0?0$0A@$0?0$0?0@Eigen@@@Eigen@@YAAEAV?$basic_ostream@DU?$char_traits@D@std@@@std@@AEAV12@AEBV?$DenseBase@V?$Matrix@M$0?0$0?0$0A@$0?0$0?0@Eigen@@@0@@Z
pdata	ENDS
;	COMDAT pdata
pdata	SEGMENT
$pdata$??$?6U?$char_traits@D@std@@@std@@YAAEAV?$basic_ostream@DU?$char_traits@D@std@@@0@AEAV10@D@Z DD imagerel $LN96@operator
	DD	imagerel $LN96@operator+436
	DD	imagerel $unwind$??$?6U?$char_traits@D@std@@@std@@YAAEAV?$basic_ostream@DU?$char_traits@D@std@@@0@AEAV10@D@Z
pdata	ENDS
;	COMDAT pdata
pdata	SEGMENT
$pdata$?catch$4@?0???$?6U?$char_traits@D@std@@@std@@YAAEAV?$basic_ostream@DU?$char_traits@D@std@@@0@AEAV10@D@Z@4HA DD imagerel ?catch$4@?0???$?6U?$char_traits@D@std@@@std@@YAAEAV?$basic_ostream@DU?$char_traits@D@std@@@0@AEAV10@D@Z@4HA
	DD	imagerel ?catch$4@?0???$?6U?$char_traits@D@std@@@std@@YAAEAV?$basic_ostream@DU?$char_traits@D@std@@@0@AEAV10@D@Z@4HA+59
	DD	imagerel $unwind$?catch$4@?0???$?6U?$char_traits@D@std@@@std@@YAAEAV?$basic_ostream@DU?$char_traits@D@std@@@0@AEAV10@D@Z@4HA
pdata	ENDS
;	COMDAT pdata
pdata	SEGMENT
$pdata$?_Xran@?$_String_val@U?$_Simple_types@D@std@@@std@@SAXXZ DD imagerel $LN4@Xran
	DD	imagerel $LN4@Xran+18
	DD	imagerel $unwind$?_Xran@?$_String_val@U?$_Simple_types@D@std@@@std@@SAXXZ
pdata	ENDS
;	COMDAT pdata
pdata	SEGMENT
$pdata$?_Check_offset@?$_String_val@U?$_Simple_types@D@std@@@std@@QEBAX_K@Z DD imagerel $LN7@Check_offs
	DD	imagerel $LN7@Check_offs+21
	DD	imagerel $unwind$?_Check_offset@?$_String_val@U?$_Simple_types@D@std@@@std@@QEBAX_K@Z
pdata	ENDS
;	COMDAT pdata
pdata	SEGMENT
$pdata$?assign@?$basic_string@DU?$char_traits@D@std@@V?$allocator@D@2@@std@@QEAAAEAV12@AEBV12@_K_K@Z DD imagerel $LN20@assign
	DD	imagerel $LN20@assign+54
	DD	imagerel $unwind$?assign@?$basic_string@DU?$char_traits@D@std@@V?$allocator@D@2@@std@@QEAAAEAV12@AEBV12@_K_K@Z
pdata	ENDS
;	COMDAT pdata
pdata	SEGMENT
$pdata$?_Init@?$basic_stringbuf@DU?$char_traits@D@std@@V?$allocator@D@2@@std@@IEAAXPEBD_KH@Z DD imagerel $LN49@Init
	DD	imagerel $LN49@Init+49
	DD	imagerel $unwind$?_Init@?$basic_stringbuf@DU?$char_traits@D@std@@V?$allocator@D@2@@std@@IEAAXPEBD_KH@Z
pdata	ENDS
;	COMDAT pdata
pdata	SEGMENT
$pdata$0$?_Init@?$basic_stringbuf@DU?$char_traits@D@std@@V?$allocator@D@2@@std@@IEAAXPEBD_KH@Z DD imagerel $LN49@Init+49
	DD	imagerel $LN49@Init+312
	DD	imagerel $chain$0$?_Init@?$basic_stringbuf@DU?$char_traits@D@std@@V?$allocator@D@2@@std@@IEAAXPEBD_KH@Z
pdata	ENDS
;	COMDAT pdata
pdata	SEGMENT
$pdata$2$?_Init@?$basic_stringbuf@DU?$char_traits@D@std@@V?$allocator@D@2@@std@@IEAAXPEBD_KH@Z DD imagerel $LN49@Init+312
	DD	imagerel $LN49@Init+318
	DD	imagerel $chain$2$?_Init@?$basic_stringbuf@DU?$char_traits@D@std@@V?$allocator@D@2@@std@@IEAAXPEBD_KH@Z
pdata	ENDS
;	COMDAT pdata
pdata	SEGMENT
$pdata$??0?$DenseStorage@M$0?0$0?0$0?0$0A@@Eigen@@QEAA@AEBV01@@Z DD imagerel $LN10@DenseStora
	DD	imagerel $LN10@DenseStora+92
	DD	imagerel $unwind$??0?$DenseStorage@M$0?0$0?0$0?0$0A@@Eigen@@QEAA@AEBV01@@Z
pdata	ENDS
;	COMDAT pdata
pdata	SEGMENT
$pdata$?deallocate@?$allocator@V?$Matrix@M$0?0$0?0$0A@$0?0$0?0@Eigen@@@std@@QEAAXQEAV?$Matrix@M$0?0$0?0$0A@$0?0$0?0@Eigen@@_K@Z DD imagerel $LN21@deallocate
	DD	imagerel $LN21@deallocate+67
	DD	imagerel $unwind$?deallocate@?$allocator@V?$Matrix@M$0?0$0?0$0A@$0?0$0?0@Eigen@@@std@@QEAAXQEAV?$Matrix@M$0?0$0?0$0A@$0?0$0?0@Eigen@@_K@Z
pdata	ENDS
;	COMDAT pdata
pdata	SEGMENT
$pdata$?allocate@?$allocator@V?$Matrix@M$0?0$0?0$0A@$0?0$0?0@Eigen@@@std@@QEAAPEAV?$Matrix@M$0?0$0?0$0A@$0?0$0?0@Eigen@@_K@Z DD imagerel $LN30@allocate
	DD	imagerel $LN30@allocate+116
	DD	imagerel $unwind$?allocate@?$allocator@V?$Matrix@M$0?0$0?0$0A@$0?0$0?0@Eigen@@@std@@QEAAPEAV?$Matrix@M$0?0$0?0$0A@$0?0$0?0@Eigen@@_K@Z
pdata	ENDS
;	COMDAT pdata
pdata	SEGMENT
$pdata$?_Umove_if_noexcept@?$vector@V?$Matrix@M$0?0$0?0$0A@$0?0$0?0@Eigen@@V?$allocator@V?$Matrix@M$0?0$0?0$0A@$0?0$0?0@Eigen@@@std@@@std@@AEAAXPEAV?$Matrix@M$0?0$0?0$0A@$0?0$0?0@Eigen@@00@Z DD imagerel $LN66@Umove_if_n
	DD	imagerel $LN66@Umove_if_n+105
	DD	imagerel $unwind$?_Umove_if_noexcept@?$vector@V?$Matrix@M$0?0$0?0$0A@$0?0$0?0@Eigen@@V?$allocator@V?$Matrix@M$0?0$0?0$0A@$0?0$0?0@Eigen@@@std@@@std@@AEAAXPEAV?$Matrix@M$0?0$0?0$0A@$0?0$0?0@Eigen@@00@Z
pdata	ENDS
;	COMDAT pdata
pdata	SEGMENT
$pdata$?_Destroy@?$vector@V?$Matrix@M$0?0$0?0$0A@$0?0$0?0@Eigen@@V?$allocator@V?$Matrix@M$0?0$0?0$0A@$0?0$0?0@Eigen@@@std@@@std@@AEAAXPEAV?$Matrix@M$0?0$0?0$0A@$0?0$0?0@Eigen@@0@Z DD imagerel $LN35@Destroy
	DD	imagerel $LN35@Destroy+50
	DD	imagerel $unwind$?_Destroy@?$vector@V?$Matrix@M$0?0$0?0$0A@$0?0$0?0@Eigen@@V?$allocator@V?$Matrix@M$0?0$0?0$0A@$0?0$0?0@Eigen@@@std@@@std@@AEAAXPEAV?$Matrix@M$0?0$0?0$0A@$0?0$0?0@Eigen@@0@Z
pdata	ENDS
;	COMDAT pdata
pdata	SEGMENT
$pdata$?_Change_array@?$vector@V?$Matrix@M$0?0$0?0$0A@$0?0$0?0@Eigen@@V?$allocator@V?$Matrix@M$0?0$0?0$0A@$0?0$0?0@Eigen@@@std@@@std@@AEAAXQEAV?$Matrix@M$0?0$0?0$0A@$0?0$0?0@Eigen@@_K1@Z DD imagerel $LN56@Change_arr
	DD	imagerel $LN56@Change_arr+40
	DD	imagerel $unwind$?_Change_array@?$vector@V?$Matrix@M$0?0$0?0$0A@$0?0$0?0@Eigen@@V?$allocator@V?$Matrix@M$0?0$0?0$0A@$0?0$0?0@Eigen@@@std@@@std@@AEAAXQEAV?$Matrix@M$0?0$0?0$0A@$0?0$0?0@Eigen@@_K1@Z
pdata	ENDS
;	COMDAT pdata
pdata	SEGMENT
$pdata$0$?_Change_array@?$vector@V?$Matrix@M$0?0$0?0$0A@$0?0$0?0@Eigen@@V?$allocator@V?$Matrix@M$0?0$0?0$0A@$0?0$0?0@Eigen@@@std@@@std@@AEAAXQEAV?$Matrix@M$0?0$0?0$0A@$0?0$0?0@Eigen@@_K1@Z DD imagerel $LN56@Change_arr+40
	DD	imagerel $LN56@Change_arr+131
	DD	imagerel $chain$0$?_Change_array@?$vector@V?$Matrix@M$0?0$0?0$0A@$0?0$0?0@Eigen@@V?$allocator@V?$Matrix@M$0?0$0?0$0A@$0?0$0?0@Eigen@@@std@@@std@@AEAAXQEAV?$Matrix@M$0?0$0?0$0A@$0?0$0?0@Eigen@@_K1@Z
pdata	ENDS
;	COMDAT pdata
pdata	SEGMENT
$pdata$1$?_Change_array@?$vector@V?$Matrix@M$0?0$0?0$0A@$0?0$0?0@Eigen@@V?$allocator@V?$Matrix@M$0?0$0?0$0A@$0?0$0?0@Eigen@@@std@@@std@@AEAAXQEAV?$Matrix@M$0?0$0?0$0A@$0?0$0?0@Eigen@@_K1@Z DD imagerel $LN56@Change_arr+131
	DD	imagerel $LN56@Change_arr+218
	DD	imagerel $chain$1$?_Change_array@?$vector@V?$Matrix@M$0?0$0?0$0A@$0?0$0?0@Eigen@@V?$allocator@V?$Matrix@M$0?0$0?0$0A@$0?0$0?0@Eigen@@@std@@@std@@AEAAXQEAV?$Matrix@M$0?0$0?0$0A@$0?0$0?0@Eigen@@_K1@Z
pdata	ENDS
;	COMDAT pdata
pdata	SEGMENT
$pdata$?deallocate@?$allocator@V?$unique_ptr@VLayer@@U?$default_delete@VLayer@@@std@@@std@@@std@@QEAAXQEAV?$unique_ptr@VLayer@@U?$default_delete@VLayer@@@std@@@2@_K@Z DD imagerel $LN21@deallocate
	DD	imagerel $LN21@deallocate+67
	DD	imagerel $unwind$?deallocate@?$allocator@V?$unique_ptr@VLayer@@U?$default_delete@VLayer@@@std@@@std@@@std@@QEAAXQEAV?$unique_ptr@VLayer@@U?$default_delete@VLayer@@@std@@@2@_K@Z
pdata	ENDS
;	COMDAT pdata
pdata	SEGMENT
$pdata$?_Destroy@?$vector@V?$unique_ptr@VLayer@@U?$default_delete@VLayer@@@std@@@std@@V?$allocator@V?$unique_ptr@VLayer@@U?$default_delete@VLayer@@@std@@@std@@@2@@std@@AEAAXPEAV?$unique_ptr@VLayer@@U?$default_delete@VLayer@@@std@@@2@0@Z DD imagerel $LN27@Destroy
	DD	imagerel $LN27@Destroy+59
	DD	imagerel $unwind$?_Destroy@?$vector@V?$unique_ptr@VLayer@@U?$default_delete@VLayer@@@std@@@std@@V?$allocator@V?$unique_ptr@VLayer@@U?$default_delete@VLayer@@@std@@@std@@@2@@std@@AEAAXPEAV?$unique_ptr@VLayer@@U?$default_delete@VLayer@@@std@@@2@0@Z
pdata	ENDS
;	COMDAT pdata
pdata	SEGMENT
$pdata$?_Alloc_sentinel_and_proxy@?$_Tree@V?$_Tmap_traits@_KUgameInfo@@U?$less@_K@std@@V?$allocator@U?$pair@$$CB_KUgameInfo@@@std@@@3@$0A@@std@@@std@@IEAAXXZ DD imagerel $LN35@Alloc_sent
	DD	imagerel $LN35@Alloc_sent+43
	DD	imagerel $unwind$?_Alloc_sentinel_and_proxy@?$_Tree@V?$_Tmap_traits@_KUgameInfo@@U?$less@_K@std@@V?$allocator@U?$pair@$$CB_KUgameInfo@@@std@@@3@$0A@@std@@@std@@IEAAXXZ
pdata	ENDS
;	COMDAT pdata
pdata	SEGMENT
$pdata$?deallocate@?$allocator@H@std@@QEAAXQEAH_K@Z DD imagerel $LN21@deallocate
	DD	imagerel $LN21@deallocate+67
	DD	imagerel $unwind$?deallocate@?$allocator@H@std@@QEAAXQEAH_K@Z
pdata	ENDS
;	COMDAT pdata
pdata	SEGMENT
$pdata$?deallocate@?$allocator@UGame@uci@@@std@@QEAAXQEAUGame@uci@@_K@Z DD imagerel $LN21@deallocate
	DD	imagerel $LN21@deallocate+63
	DD	imagerel $unwind$?deallocate@?$allocator@UGame@uci@@@std@@QEAAXQEAUGame@uci@@_K@Z
pdata	ENDS
;	COMDAT pdata
pdata	SEGMENT
$pdata$??0_Sentry_base@?$basic_istream@DU?$char_traits@D@std@@@std@@QEAA@AEAV12@@Z DD imagerel $LN8@Sentry_bas
	DD	imagerel $LN8@Sentry_bas+44
	DD	imagerel $unwind$??0_Sentry_base@?$basic_istream@DU?$char_traits@D@std@@@std@@QEAA@AEAV12@@Z
pdata	ENDS
;	COMDAT pdata
pdata	SEGMENT
$pdata$?deallocate@?$allocator@D@std@@QEAAXQEAD_K@Z DD imagerel $LN21@deallocate
	DD	imagerel $LN21@deallocate+62
	DD	imagerel $unwind$?deallocate@?$allocator@D@std@@QEAAXQEAD_K@Z
pdata	ENDS
;	COMDAT pdata
pdata	SEGMENT
$pdata$?allocate@?$allocator@D@std@@QEAAPEAD_K@Z DD imagerel $LN27@allocate
	DD	imagerel $LN27@allocate+89
	DD	imagerel $unwind$?allocate@?$allocator@D@std@@QEAAPEAD_K@Z
pdata	ENDS
;	COMDAT pdata
pdata	SEGMENT
$pdata$?copy@?$_Narrow_char_traits@DH@std@@SAPEADQEADQEBD_K@Z DD imagerel $LN5@copy
	DD	imagerel $LN5@copy+23
	DD	imagerel $unwind$?copy@?$_Narrow_char_traits@DH@std@@SAPEADQEADQEBD_K@Z
pdata	ENDS
;	COMDAT pdata
pdata	SEGMENT
$pdata$??0?$basic_string@DU?$char_traits@D@std@@V?$allocator@D@2@@std@@QEAA@AEBV01@_K1AEBV?$allocator@D@1@@Z DD imagerel $LN29@basic_stri
	DD	imagerel $LN29@basic_stri+83
	DD	imagerel $unwind$??0?$basic_string@DU?$char_traits@D@std@@V?$allocator@D@2@@std@@QEAA@AEBV01@_K1AEBV?$allocator@D@1@@Z
pdata	ENDS
;	COMDAT pdata
pdata	SEGMENT
$pdata$?_Construct_lv_contents@?$basic_string@DU?$char_traits@D@std@@V?$allocator@D@2@@std@@AEAAXAEBV12@@Z DD imagerel $LN44@Construct_
	DD	imagerel $LN44@Construct_+230
	DD	imagerel $unwind$?_Construct_lv_contents@?$basic_string@DU?$char_traits@D@std@@V?$allocator@D@2@@std@@AEAAXAEBV12@@Z
pdata	ENDS
;	COMDAT pdata
pdata	SEGMENT
$pdata$??R<lambda_66f57f934f28d61049862f64df852ff0>@@QEBAXQEAD_KQEBD@Z DD imagerel $LN7@operator
	DD	imagerel $LN7@operator+42
	DD	imagerel $unwind$??R<lambda_66f57f934f28d61049862f64df852ff0>@@QEBAXQEAD_KQEBD@Z
pdata	ENDS
;	COMDAT pdata
pdata	SEGMENT
$pdata$?assign@?$basic_string@DU?$char_traits@D@std@@V?$allocator@D@2@@std@@QEAAAEAV12@QEBD_K@Z DD imagerel $LN77@assign
	DD	imagerel $LN77@assign+139
	DD	imagerel $unwind$?assign@?$basic_string@DU?$char_traits@D@std@@V?$allocator@D@2@@std@@QEAAAEAV12@QEBD_K@Z
pdata	ENDS
;	COMDAT pdata
pdata	SEGMENT
$pdata$0$?assign@?$basic_string@DU?$char_traits@D@std@@V?$allocator@D@2@@std@@QEAAAEAV12@QEBD_K@Z DD imagerel $LN77@assign+139
	DD	imagerel $LN77@assign+330
	DD	imagerel $chain$0$?assign@?$basic_string@DU?$char_traits@D@std@@V?$allocator@D@2@@std@@QEAAAEAV12@QEBD_K@Z
pdata	ENDS
;	COMDAT pdata
pdata	SEGMENT
$pdata$2$?assign@?$basic_string@DU?$char_traits@D@std@@V?$allocator@D@2@@std@@QEAAAEAV12@QEBD_K@Z DD imagerel $LN77@assign+330
	DD	imagerel $LN77@assign+343
	DD	imagerel $chain$2$?assign@?$basic_string@DU?$char_traits@D@std@@V?$allocator@D@2@@std@@QEAAAEAV12@QEBD_K@Z
pdata	ENDS
;	COMDAT pdata
pdata	SEGMENT
$pdata$3$?assign@?$basic_string@DU?$char_traits@D@std@@V?$allocator@D@2@@std@@QEAAAEAV12@QEBD_K@Z DD imagerel $LN77@assign+343
	DD	imagerel $LN77@assign+349
	DD	imagerel $chain$3$?assign@?$basic_string@DU?$char_traits@D@std@@V?$allocator@D@2@@std@@QEAAAEAV12@QEBD_K@Z
pdata	ENDS
;	COMDAT pdata
pdata	SEGMENT
$pdata$?erase@?$basic_string@DU?$char_traits@D@std@@V?$allocator@D@2@@std@@QEAAAEAV12@_K_K@Z DD imagerel $LN20@erase
	DD	imagerel $LN20@erase+61
	DD	imagerel $unwind$?erase@?$basic_string@DU?$char_traits@D@std@@V?$allocator@D@2@@std@@QEAAAEAV12@_K_K@Z
pdata	ENDS
;	COMDAT pdata
pdata	SEGMENT
$pdata$??R<lambda_319d5e083f45f90dcdce5dce53cbb275>@@QEBAXQEADQEBD_KD@Z DD imagerel $LN7@operator
	DD	imagerel $LN7@operator+57
	DD	imagerel $unwind$??R<lambda_319d5e083f45f90dcdce5dce53cbb275>@@QEBAXQEADQEBD_KD@Z
pdata	ENDS
;	COMDAT pdata
pdata	SEGMENT
$pdata$?_Tidy_deallocate@?$basic_string@DU?$char_traits@D@std@@V?$allocator@D@2@@std@@AEAAXXZ DD imagerel $LN27@Tidy_deall
	DD	imagerel $LN27@Tidy_deall+95
	DD	imagerel $unwind$?_Tidy_deallocate@?$basic_string@DU?$char_traits@D@std@@V?$allocator@D@2@@std@@AEAAXXZ
pdata	ENDS
;	COMDAT pdata
pdata	SEGMENT
$pdata$??0?$basic_stringbuf@DU?$char_traits@D@std@@V?$allocator@D@2@@std@@QEAA@AEBV?$basic_string@DU?$char_traits@D@std@@V?$allocator@D@2@@1@H@Z DD imagerel $LN59@basic_stri
	DD	imagerel $LN59@basic_stri+269
	DD	imagerel $unwind$??0?$basic_stringbuf@DU?$char_traits@D@std@@V?$allocator@D@2@@std@@QEAA@AEBV?$basic_string@DU?$char_traits@D@std@@V?$allocator@D@2@@1@H@Z
pdata	ENDS
;	COMDAT pdata
pdata	SEGMENT
$pdata$?_Tidy@?$basic_stringbuf@DU?$char_traits@D@std@@V?$allocator@D@2@@std@@IEAAXXZ DD imagerel $LN41@Tidy
	DD	imagerel $LN41@Tidy+164
	DD	imagerel $unwind$?_Tidy@?$basic_stringbuf@DU?$char_traits@D@std@@V?$allocator@D@2@@std@@IEAAXXZ
pdata	ENDS
;	COMDAT pdata
pdata	SEGMENT
$pdata$?resize@?$DenseStorage@M$0?0$0?0$0?0$0A@@Eigen@@QEAAX_J00@Z DD imagerel $LN15@resize
	DD	imagerel $LN15@resize+127
	DD	imagerel $unwind$?resize@?$DenseStorage@M$0?0$0?0$0?0$0A@@Eigen@@QEAAX_J00@Z
pdata	ENDS
;	COMDAT pdata
pdata	SEGMENT
$pdata$??0?$PlainObjectBase@V?$Matrix@M$0?0$0?0$0A@$0?0$0?0@Eigen@@@Eigen@@IEAA@AEBV01@@Z DD imagerel $LN14@PlainObjec
	DD	imagerel $LN14@PlainObjec+92
	DD	imagerel $unwind$??0?$PlainObjectBase@V?$Matrix@M$0?0$0?0$0A@$0?0$0?0@Eigen@@@Eigen@@IEAA@AEBV01@@Z
pdata	ENDS
;	COMDAT pdata
pdata	SEGMENT
$pdata$?_Reallocate_exactly@?$vector@V?$Matrix@M$0?0$0?0$0A@$0?0$0?0@Eigen@@V?$allocator@V?$Matrix@M$0?0$0?0$0A@$0?0$0?0@Eigen@@@std@@@std@@AEAAX_K@Z DD imagerel $LN72@Reallocate
	DD	imagerel $LN72@Reallocate+172
	DD	imagerel $unwind$?_Reallocate_exactly@?$vector@V?$Matrix@M$0?0$0?0$0A@$0?0$0?0@Eigen@@V?$allocator@V?$Matrix@M$0?0$0?0$0A@$0?0$0?0@Eigen@@@std@@@std@@AEAAX_K@Z
pdata	ENDS
;	COMDAT pdata
pdata	SEGMENT
$pdata$?_Tidy@?$vector@V?$Matrix@M$0?0$0?0$0A@$0?0$0?0@Eigen@@V?$allocator@V?$Matrix@M$0?0$0?0$0A@$0?0$0?0@Eigen@@@std@@@std@@AEAAXXZ DD imagerel $LN56@Tidy
	DD	imagerel $LN56@Tidy+25
	DD	imagerel $unwind$?_Tidy@?$vector@V?$Matrix@M$0?0$0?0$0A@$0?0$0?0@Eigen@@V?$allocator@V?$Matrix@M$0?0$0?0$0A@$0?0$0?0@Eigen@@@std@@@std@@AEAAXXZ
pdata	ENDS
;	COMDAT pdata
pdata	SEGMENT
$pdata$0$?_Tidy@?$vector@V?$Matrix@M$0?0$0?0$0A@$0?0$0?0@Eigen@@V?$allocator@V?$Matrix@M$0?0$0?0$0A@$0?0$0?0@Eigen@@@std@@@std@@AEAAXXZ DD imagerel $LN56@Tidy+25
	DD	imagerel $LN56@Tidy+116
	DD	imagerel $chain$0$?_Tidy@?$vector@V?$Matrix@M$0?0$0?0$0A@$0?0$0?0@Eigen@@V?$allocator@V?$Matrix@M$0?0$0?0$0A@$0?0$0?0@Eigen@@@std@@@std@@AEAAXXZ
pdata	ENDS
;	COMDAT pdata
pdata	SEGMENT
$pdata$1$?_Tidy@?$vector@V?$Matrix@M$0?0$0?0$0A@$0?0$0?0@Eigen@@V?$allocator@V?$Matrix@M$0?0$0?0$0A@$0?0$0?0@Eigen@@@std@@@std@@AEAAXXZ DD imagerel $LN56@Tidy+116
	DD	imagerel $LN56@Tidy+179
	DD	imagerel $chain$1$?_Tidy@?$vector@V?$Matrix@M$0?0$0?0$0A@$0?0$0?0@Eigen@@V?$allocator@V?$Matrix@M$0?0$0?0$0A@$0?0$0?0@Eigen@@@std@@@std@@AEAAXXZ
pdata	ENDS
;	COMDAT pdata
pdata	SEGMENT
$pdata$?_Xlength@?$vector@V?$Matrix@M$0?0$0?0$0A@$0?0$0?0@Eigen@@V?$allocator@V?$Matrix@M$0?0$0?0$0A@$0?0$0?0@Eigen@@@std@@@std@@CAXXZ DD imagerel $LN4@Xlength
	DD	imagerel $LN4@Xlength+18
	DD	imagerel $unwind$?_Xlength@?$vector@V?$Matrix@M$0?0$0?0$0A@$0?0$0?0@Eigen@@V?$allocator@V?$Matrix@M$0?0$0?0$0A@$0?0$0?0@Eigen@@@std@@@std@@CAXXZ
pdata	ENDS
;	COMDAT pdata
pdata	SEGMENT
$pdata$?_Tidy@?$vector@V?$unique_ptr@VLayer@@U?$default_delete@VLayer@@@std@@@std@@V?$allocator@V?$unique_ptr@VLayer@@U?$default_delete@VLayer@@@std@@@std@@@2@@std@@AEAAXXZ DD imagerel $LN48@Tidy
	DD	imagerel $LN48@Tidy+21
	DD	imagerel $unwind$?_Tidy@?$vector@V?$unique_ptr@VLayer@@U?$default_delete@VLayer@@@std@@@std@@V?$allocator@V?$unique_ptr@VLayer@@U?$default_delete@VLayer@@@std@@@std@@@2@@std@@AEAAXXZ
pdata	ENDS
;	COMDAT pdata
pdata	SEGMENT
$pdata$0$?_Tidy@?$vector@V?$unique_ptr@VLayer@@U?$default_delete@VLayer@@@std@@@std@@V?$allocator@V?$unique_ptr@VLayer@@U?$default_delete@VLayer@@@std@@@std@@@2@@std@@AEAAXXZ DD imagerel $LN48@Tidy+21
	DD	imagerel $LN48@Tidy+90
	DD	imagerel $chain$0$?_Tidy@?$vector@V?$unique_ptr@VLayer@@U?$default_delete@VLayer@@@std@@@std@@V?$allocator@V?$unique_ptr@VLayer@@U?$default_delete@VLayer@@@std@@@std@@@2@@std@@AEAAXXZ
pdata	ENDS
;	COMDAT pdata
pdata	SEGMENT
$pdata$1$?_Tidy@?$vector@V?$unique_ptr@VLayer@@U?$default_delete@VLayer@@@std@@@std@@V?$allocator@V?$unique_ptr@VLayer@@U?$default_delete@VLayer@@@std@@@std@@@2@@std@@AEAAXXZ DD imagerel $LN48@Tidy+90
	DD	imagerel $LN48@Tidy+153
	DD	imagerel $chain$1$?_Tidy@?$vector@V?$unique_ptr@VLayer@@U?$default_delete@VLayer@@@std@@@std@@V?$allocator@V?$unique_ptr@VLayer@@U?$default_delete@VLayer@@@std@@@std@@@2@@std@@AEAAXXZ
pdata	ENDS
;	COMDAT pdata
pdata	SEGMENT
$pdata$??0?$_Tree@V?$_Tmap_traits@_KUgameInfo@@U?$less@_K@std@@V?$allocator@U?$pair@$$CB_KUgameInfo@@@std@@@3@$0A@@std@@@std@@QEAA@AEBU?$less@_K@1@@Z DD imagerel $LN45@Tree
	DD	imagerel $LN45@Tree+61
	DD	imagerel $unwind$??0?$_Tree@V?$_Tmap_traits@_KUgameInfo@@U?$less@_K@std@@V?$allocator@U?$pair@$$CB_KUgameInfo@@@std@@@3@$0A@@std@@@std@@QEAA@AEBU?$less@_K@1@@Z
pdata	ENDS
;	COMDAT pdata
pdata	SEGMENT
$pdata$??0?$basic_filebuf@DU?$char_traits@D@std@@@std@@QEAA@XZ DD imagerel $LN17@basic_file
	DD	imagerel $LN17@basic_file+81
	DD	imagerel $unwind$??0?$basic_filebuf@DU?$char_traits@D@std@@@std@@QEAA@XZ
pdata	ENDS
;	COMDAT pdata
pdata	SEGMENT
$pdata$?open@?$basic_filebuf@DU?$char_traits@D@std@@@std@@QEAAPEAV12@PEBDHH@Z DD imagerel $LN24@open
	DD	imagerel $LN24@open+201
	DD	imagerel $unwind$?open@?$basic_filebuf@DU?$char_traits@D@std@@@std@@QEAAPEAV12@PEBDHH@Z
pdata	ENDS
;	COMDAT pdata
pdata	SEGMENT
$pdata$?close@?$basic_filebuf@DU?$char_traits@D@std@@@std@@QEAAPEAV12@XZ DD imagerel $LN20@close
	DD	imagerel $LN20@close+126
	DD	imagerel $unwind$?close@?$basic_filebuf@DU?$char_traits@D@std@@@std@@QEAAPEAV12@XZ
pdata	ENDS
;	COMDAT pdata
pdata	SEGMENT
$pdata$?_Init@?$basic_filebuf@DU?$char_traits@D@std@@@std@@IEAAXPEAU_iobuf@@W4_Initfl@12@@Z DD imagerel $LN13@Init
	DD	imagerel $LN13@Init+192
	DD	imagerel $unwind$?_Init@?$basic_filebuf@DU?$char_traits@D@std@@@std@@IEAAXPEAU_iobuf@@W4_Initfl@12@@Z
pdata	ENDS
;	COMDAT pdata
pdata	SEGMENT
$pdata$?_Endwrite@?$basic_filebuf@DU?$char_traits@D@std@@@std@@IEAA_NXZ DD imagerel $LN19@Endwrite
	DD	imagerel $LN19@Endwrite+53
	DD	imagerel $unwind$?_Endwrite@?$basic_filebuf@DU?$char_traits@D@std@@@std@@IEAA_NXZ
pdata	ENDS
;	COMDAT pdata
pdata	SEGMENT
$pdata$0$?_Endwrite@?$basic_filebuf@DU?$char_traits@D@std@@@std@@IEAA_NXZ DD imagerel $LN19@Endwrite+53
	DD	imagerel $LN19@Endwrite+148
	DD	imagerel $chain$0$?_Endwrite@?$basic_filebuf@DU?$char_traits@D@std@@@std@@IEAA_NXZ
pdata	ENDS
;	COMDAT pdata
pdata	SEGMENT
$pdata$2$?_Endwrite@?$basic_filebuf@DU?$char_traits@D@std@@@std@@IEAA_NXZ DD imagerel $LN19@Endwrite+148
	DD	imagerel $LN19@Endwrite+211
	DD	imagerel $chain$2$?_Endwrite@?$basic_filebuf@DU?$char_traits@D@std@@@std@@IEAA_NXZ
pdata	ENDS
;	COMDAT pdata
pdata	SEGMENT
$pdata$3$?_Endwrite@?$basic_filebuf@DU?$char_traits@D@std@@@std@@IEAA_NXZ DD imagerel $LN19@Endwrite+211
	DD	imagerel $LN19@Endwrite+232
	DD	imagerel $chain$3$?_Endwrite@?$basic_filebuf@DU?$char_traits@D@std@@@std@@IEAA_NXZ
pdata	ENDS
;	COMDAT pdata
pdata	SEGMENT
$pdata$?_Initcvt@?$basic_filebuf@DU?$char_traits@D@std@@@std@@IEAAXAEBV?$codecvt@DDU_Mbstatet@@@2@@Z DD imagerel $LN12@Initcvt
	DD	imagerel $LN12@Initcvt+72
	DD	imagerel $unwind$?_Initcvt@?$basic_filebuf@DU?$char_traits@D@std@@@std@@IEAAXAEBV?$codecvt@DDU_Mbstatet@@@2@@Z
pdata	ENDS
;	COMDAT pdata
pdata	SEGMENT
$pdata$?_Move_assign@?$vector@HV?$allocator@H@std@@@std@@AEAAXAEAV12@U_Equal_allocators@2@@Z DD imagerel $LN30@Move_assig
	DD	imagerel $LN30@Move_assig+147
	DD	imagerel $unwind$?_Move_assign@?$vector@HV?$allocator@H@std@@@std@@AEAAXAEAV12@U_Equal_allocators@2@@Z
pdata	ENDS
;	COMDAT pdata
pdata	SEGMENT
$pdata$?_Tidy@?$vector@HV?$allocator@H@std@@@std@@AEAAXXZ DD imagerel $LN25@Tidy
	DD	imagerel $LN25@Tidy+92
	DD	imagerel $unwind$?_Tidy@?$vector@HV?$allocator@H@std@@@std@@AEAAXXZ
pdata	ENDS
;	COMDAT pdata
pdata	SEGMENT
$pdata$?_Tidy@?$vector@UGame@uci@@V?$allocator@UGame@uci@@@std@@@std@@AEAAXXZ DD imagerel $LN27@Tidy
	DD	imagerel $LN27@Tidy+131
	DD	imagerel $unwind$?_Tidy@?$vector@UGame@uci@@V?$allocator@UGame@uci@@@std@@@std@@AEAAXXZ
pdata	ENDS
;	COMDAT pdata
pdata	SEGMENT
$pdata$??1_Sentry_base@?$basic_istream@DU?$char_traits@D@std@@@std@@QEAA@XZ DD imagerel $LN8@Sentry_bas
	DD	imagerel $LN8@Sentry_bas+36
	DD	imagerel $unwind$??1_Sentry_base@?$basic_istream@DU?$char_traits@D@std@@@std@@QEAA@XZ
pdata	ENDS
;	COMDAT pdata
pdata	SEGMENT
$pdata$??0sentry@?$basic_istream@DU?$char_traits@D@std@@@std@@QEAA@AEAV12@_N@Z DD imagerel $LN11@sentry
	DD	imagerel $LN11@sentry+79
	DD	imagerel $unwind$??0sentry@?$basic_istream@DU?$char_traits@D@std@@@std@@QEAA@AEAV12@_N@Z
pdata	ENDS
;	COMDAT pdata
pdata	SEGMENT
$pdata$??1sentry@?$basic_istream@DU?$char_traits@D@std@@@std@@QEAA@XZ DD imagerel $LN12@sentry
	DD	imagerel $LN12@sentry+36
	DD	imagerel $unwind$??1sentry@?$basic_istream@DU?$char_traits@D@std@@@std@@QEAA@XZ
pdata	ENDS
;	COMDAT pdata
pdata	SEGMENT
$pdata$??_G?$basic_stringstream@DU?$char_traits@D@std@@V?$allocator@D@2@@std@@UEAAPEAXI@Z DD imagerel $LN12@scalar
	DD	imagerel $LN12@scalar+146
	DD	imagerel $unwind$??_G?$basic_stringstream@DU?$char_traits@D@std@@V?$allocator@D@2@@std@@UEAAPEAXI@Z
pdata	ENDS
;	COMDAT pdata
pdata	SEGMENT
$pdata$??_G?$basic_stringbuf@DU?$char_traits@D@std@@V?$allocator@D@2@@std@@UEAAPEAXI@Z DD imagerel $LN7@scalar
	DD	imagerel $LN7@scalar+52
	DD	imagerel $unwind$??_G?$basic_stringbuf@DU?$char_traits@D@std@@V?$allocator@D@2@@std@@UEAAPEAXI@Z
pdata	ENDS
;	COMDAT pdata
pdata	SEGMENT
$pdata$??_G?$basic_ofstream@DU?$char_traits@D@std@@@std@@UEAAPEAXI@Z DD imagerel $LN7@scalar
	DD	imagerel $LN7@scalar+59
	DD	imagerel $unwind$??_G?$basic_ofstream@DU?$char_traits@D@std@@@std@@UEAAPEAXI@Z
pdata	ENDS
;	COMDAT pdata
pdata	SEGMENT
$pdata$??_G?$basic_filebuf@DU?$char_traits@D@std@@@std@@UEAAPEAXI@Z DD imagerel $LN19@scalar
	DD	imagerel $LN19@scalar+137
	DD	imagerel $unwind$??_G?$basic_filebuf@DU?$char_traits@D@std@@@std@@UEAAPEAXI@Z
pdata	ENDS
;	COMDAT pdata
pdata	SEGMENT
$pdata$??_G?$basic_ifstream@DU?$char_traits@D@std@@@std@@UEAAPEAXI@Z DD imagerel $LN7@scalar
	DD	imagerel $LN7@scalar+59
	DD	imagerel $unwind$??_G?$basic_ifstream@DU?$char_traits@D@std@@@std@@UEAAPEAXI@Z
pdata	ENDS
;	COMDAT pdata
pdata	SEGMENT
$pdata$??0?$basic_string@DU?$char_traits@D@std@@V?$allocator@D@2@@std@@QEAA@AEBV01@@Z DD imagerel $LN50@basic_stri
	DD	imagerel $LN50@basic_stri+218
	DD	imagerel $unwind$??0?$basic_string@DU?$char_traits@D@std@@V?$allocator@D@2@@std@@QEAA@AEBV01@@Z
pdata	ENDS
;	COMDAT pdata
pdata	SEGMENT
$pdata$??0?$basic_string@DU?$char_traits@D@std@@V?$allocator@D@2@@std@@QEAA@QEBD@Z DD imagerel $LN16@basic_stri
	DD	imagerel $LN16@basic_stri+59
	DD	imagerel $unwind$??0?$basic_string@DU?$char_traits@D@std@@V?$allocator@D@2@@std@@QEAA@QEBD@Z
pdata	ENDS
;	COMDAT pdata
pdata	SEGMENT
$pdata$??1?$basic_string@DU?$char_traits@D@std@@V?$allocator@D@2@@std@@QEAA@XZ DD imagerel $LN30@basic_stri
	DD	imagerel $LN30@basic_stri+95
	DD	imagerel $unwind$??1?$basic_string@DU?$char_traits@D@std@@V?$allocator@D@2@@std@@QEAA@XZ
pdata	ENDS
;	COMDAT pdata
pdata	SEGMENT
$pdata$??Y?$basic_string@DU?$char_traits@D@std@@V?$allocator@D@2@@std@@QEAAAEAV01@D@Z DD imagerel $LN14@operator
	DD	imagerel $LN14@operator+79
	DD	imagerel $unwind$??Y?$basic_string@DU?$char_traits@D@std@@V?$allocator@D@2@@std@@QEAAAEAV01@D@Z
pdata	ENDS
;	COMDAT pdata
pdata	SEGMENT
$pdata$?find@?$basic_string@DU?$char_traits@D@std@@V?$allocator@D@2@@std@@QEBA_KQEBD_K@Z DD imagerel $LN36@find
	DD	imagerel $LN36@find+70
	DD	imagerel $unwind$?find@?$basic_string@DU?$char_traits@D@std@@V?$allocator@D@2@@std@@QEBA_KQEBD_K@Z
pdata	ENDS
;	COMDAT pdata
pdata	SEGMENT
$pdata$2$?find@?$basic_string@DU?$char_traits@D@std@@V?$allocator@D@2@@std@@QEBA_KQEBD_K@Z DD imagerel $LN36@find+70
	DD	imagerel $LN36@find+206
	DD	imagerel $chain$2$?find@?$basic_string@DU?$char_traits@D@std@@V?$allocator@D@2@@std@@QEBA_KQEBD_K@Z
pdata	ENDS
;	COMDAT pdata
pdata	SEGMENT
$pdata$4$?find@?$basic_string@DU?$char_traits@D@std@@V?$allocator@D@2@@std@@QEBA_KQEBD_K@Z DD imagerel $LN36@find+206
	DD	imagerel $LN36@find+214
	DD	imagerel $chain$4$?find@?$basic_string@DU?$char_traits@D@std@@V?$allocator@D@2@@std@@QEBA_KQEBD_K@Z
pdata	ENDS
;	COMDAT pdata
pdata	SEGMENT
$pdata$5$?find@?$basic_string@DU?$char_traits@D@std@@V?$allocator@D@2@@std@@QEBA_KQEBD_K@Z DD imagerel $LN36@find+214
	DD	imagerel $LN36@find+230
	DD	imagerel $chain$5$?find@?$basic_string@DU?$char_traits@D@std@@V?$allocator@D@2@@std@@QEBA_KQEBD_K@Z
pdata	ENDS
;	COMDAT pdata
pdata	SEGMENT
$pdata$?find@?$basic_string@DU?$char_traits@D@std@@V?$allocator@D@2@@std@@QEBA_KD_K@Z DD imagerel $LN16@find
	DD	imagerel $LN16@find+68
	DD	imagerel $unwind$?find@?$basic_string@DU?$char_traits@D@std@@V?$allocator@D@2@@std@@QEBA_KD_K@Z
pdata	ENDS
;	COMDAT pdata
pdata	SEGMENT
$pdata$?substr@?$basic_string@DU?$char_traits@D@std@@V?$allocator@D@2@@std@@QEBA?AV12@_K0@Z DD imagerel $LN34@substr
	DD	imagerel $LN34@substr+92
	DD	imagerel $unwind$?substr@?$basic_string@DU?$char_traits@D@std@@V?$allocator@D@2@@std@@QEBA?AV12@_K0@Z
pdata	ENDS
;	COMDAT pdata
pdata	SEGMENT
$pdata$??0?$basic_stringstream@DU?$char_traits@D@std@@V?$allocator@D@2@@std@@QEAA@AEBV?$basic_string@DU?$char_traits@D@std@@V?$allocator@D@2@@1@H@Z DD imagerel $LN67@basic_stri
	DD	imagerel $LN67@basic_stri+365
	DD	imagerel $unwind$??0?$basic_stringstream@DU?$char_traits@D@std@@V?$allocator@D@2@@std@@QEAA@AEBV?$basic_string@DU?$char_traits@D@std@@V?$allocator@D@2@@1@H@Z
pdata	ENDS
;	COMDAT pdata
pdata	SEGMENT
$pdata$?dtor$0@?0???0?$basic_stringstream@DU?$char_traits@D@std@@V?$allocator@D@2@@std@@QEAA@AEBV?$basic_string@DU?$char_traits@D@std@@V?$allocator@D@2@@1@H@Z@4HA DD imagerel ?dtor$0@?0???0?$basic_stringstream@DU?$char_traits@D@std@@V?$allocator@D@2@@std@@QEAA@AEBV?$basic_string@DU?$char_traits@D@std@@V?$allocator@D@2@@1@H@Z@4HA
	DD	imagerel ?dtor$0@?0???0?$basic_stringstream@DU?$char_traits@D@std@@V?$allocator@D@2@@std@@QEAA@AEBV?$basic_string@DU?$char_traits@D@std@@V?$allocator@D@2@@1@H@Z@4HA+46
	DD	imagerel $unwind$?dtor$0@?0???0?$basic_stringstream@DU?$char_traits@D@std@@V?$allocator@D@2@@std@@QEAA@AEBV?$basic_string@DU?$char_traits@D@std@@V?$allocator@D@2@@1@H@Z@4HA
pdata	ENDS
;	COMDAT pdata
pdata	SEGMENT
$pdata$??1?$basic_stringstream@DU?$char_traits@D@std@@V?$allocator@D@2@@std@@UEAA@XZ DD imagerel $LN5@basic_stri
	DD	imagerel $LN5@basic_stri+86
	DD	imagerel $unwind$??1?$basic_stringstream@DU?$char_traits@D@std@@V?$allocator@D@2@@std@@UEAA@XZ
pdata	ENDS
;	COMDAT pdata
pdata	SEGMENT
$pdata$??1?$basic_stringbuf@DU?$char_traits@D@std@@V?$allocator@D@2@@std@@UEAA@XZ DD imagerel $LN45@basic_stri
	DD	imagerel $LN45@basic_stri+183
	DD	imagerel $unwind$??1?$basic_stringbuf@DU?$char_traits@D@std@@V?$allocator@D@2@@std@@UEAA@XZ
pdata	ENDS
;	COMDAT pdata
pdata	SEGMENT
$pdata$?overflow@?$basic_stringbuf@DU?$char_traits@D@std@@V?$allocator@D@2@@std@@MEAAHH@Z DD imagerel $LN91@overflow
	DD	imagerel $LN91@overflow+487
	DD	imagerel $unwind$?overflow@?$basic_stringbuf@DU?$char_traits@D@std@@V?$allocator@D@2@@std@@MEAAHH@Z
pdata	ENDS
;	COMDAT pdata
pdata	SEGMENT
$pdata$?seekoff@?$basic_stringbuf@DU?$char_traits@D@std@@V?$allocator@D@2@@std@@MEAA?AV?$fpos@U_Mbstatet@@@2@_JHH@Z DD imagerel $LN45@seekoff
	DD	imagerel $LN45@seekoff+340
	DD	imagerel $unwind$?seekoff@?$basic_stringbuf@DU?$char_traits@D@std@@V?$allocator@D@2@@std@@MEAA?AV?$fpos@U_Mbstatet@@@2@_JHH@Z
pdata	ENDS
;	COMDAT pdata
pdata	SEGMENT
$pdata$?seekpos@?$basic_stringbuf@DU?$char_traits@D@std@@V?$allocator@D@2@@std@@MEAA?AV?$fpos@U_Mbstatet@@@2@V32@H@Z DD imagerel $LN32@seekpos
	DD	imagerel $LN32@seekpos+233
	DD	imagerel $unwind$?seekpos@?$basic_stringbuf@DU?$char_traits@D@std@@V?$allocator@D@2@@std@@MEAA?AV?$fpos@U_Mbstatet@@@2@V32@H@Z
pdata	ENDS
;	COMDAT pdata
pdata	SEGMENT
$pdata$?resize@?$PlainObjectBase@V?$Matrix@M$0?0$0?0$0A@$0?0$0?0@Eigen@@@Eigen@@QEAAX_J0@Z DD imagerel $LN24@resize
	DD	imagerel $LN24@resize+63
	DD	imagerel $unwind$?resize@?$PlainObjectBase@V?$Matrix@M$0?0$0?0$0A@$0?0$0?0@Eigen@@@Eigen@@QEAAX_J0@Z
pdata	ENDS
;	COMDAT pdata
pdata	SEGMENT
$pdata$0$?resize@?$PlainObjectBase@V?$Matrix@M$0?0$0?0$0A@$0?0$0?0@Eigen@@@Eigen@@QEAAX_J0@Z DD imagerel $LN24@resize+63
	DD	imagerel $LN24@resize+143
	DD	imagerel $chain$0$?resize@?$PlainObjectBase@V?$Matrix@M$0?0$0?0$0A@$0?0$0?0@Eigen@@@Eigen@@QEAAX_J0@Z
pdata	ENDS
;	COMDAT pdata
pdata	SEGMENT
$pdata$1$?resize@?$PlainObjectBase@V?$Matrix@M$0?0$0?0$0A@$0?0$0?0@Eigen@@@Eigen@@QEAAX_J0@Z DD imagerel $LN24@resize+143
	DD	imagerel $LN24@resize+149
	DD	imagerel $chain$1$?resize@?$PlainObjectBase@V?$Matrix@M$0?0$0?0$0A@$0?0$0?0@Eigen@@@Eigen@@QEAAX_J0@Z
pdata	ENDS
;	COMDAT pdata
pdata	SEGMENT
$pdata$??0?$Matrix@M$0?0$0?0$0A@$0?0$0?0@Eigen@@QEAA@AEBV01@@Z DD imagerel $LN17@Matrix
	DD	imagerel $LN17@Matrix+92
	DD	imagerel $unwind$??0?$Matrix@M$0?0$0?0$0A@$0?0$0?0@Eigen@@QEAA@AEBV01@@Z
pdata	ENDS
;	COMDAT pdata
pdata	SEGMENT
$pdata$?reserve@?$vector@V?$Matrix@M$0?0$0?0$0A@$0?0$0?0@Eigen@@V?$allocator@V?$Matrix@M$0?0$0?0$0A@$0?0$0?0@Eigen@@@std@@@std@@QEAAX_K@Z DD imagerel $LN11@reserve
	DD	imagerel $LN11@reserve+84
	DD	imagerel $unwind$?reserve@?$vector@V?$Matrix@M$0?0$0?0$0A@$0?0$0?0@Eigen@@V?$allocator@V?$Matrix@M$0?0$0?0$0A@$0?0$0?0@Eigen@@@std@@@std@@QEAAX_K@Z
pdata	ENDS
;	COMDAT pdata
pdata	SEGMENT
$pdata$??1?$vector@V?$unique_ptr@VLayer@@U?$default_delete@VLayer@@@std@@@std@@V?$allocator@V?$unique_ptr@VLayer@@U?$default_delete@VLayer@@@std@@@std@@@2@@std@@QEAA@XZ DD imagerel $LN51@vector
	DD	imagerel $LN51@vector+21
	DD	imagerel $unwind$??1?$vector@V?$unique_ptr@VLayer@@U?$default_delete@VLayer@@@std@@@std@@V?$allocator@V?$unique_ptr@VLayer@@U?$default_delete@VLayer@@@std@@@std@@@2@@std@@QEAA@XZ
pdata	ENDS
;	COMDAT pdata
pdata	SEGMENT
$pdata$0$??1?$vector@V?$unique_ptr@VLayer@@U?$default_delete@VLayer@@@std@@@std@@V?$allocator@V?$unique_ptr@VLayer@@U?$default_delete@VLayer@@@std@@@std@@@2@@std@@QEAA@XZ DD imagerel $LN51@vector+21
	DD	imagerel $LN51@vector+90
	DD	imagerel $chain$0$??1?$vector@V?$unique_ptr@VLayer@@U?$default_delete@VLayer@@@std@@@std@@V?$allocator@V?$unique_ptr@VLayer@@U?$default_delete@VLayer@@@std@@@std@@@2@@std@@QEAA@XZ
pdata	ENDS
;	COMDAT pdata
pdata	SEGMENT
$pdata$1$??1?$vector@V?$unique_ptr@VLayer@@U?$default_delete@VLayer@@@std@@@std@@V?$allocator@V?$unique_ptr@VLayer@@U?$default_delete@VLayer@@@std@@@std@@@2@@std@@QEAA@XZ DD imagerel $LN51@vector+90
	DD	imagerel $LN51@vector+153
	DD	imagerel $chain$1$??1?$vector@V?$unique_ptr@VLayer@@U?$default_delete@VLayer@@@std@@@std@@V?$allocator@V?$unique_ptr@VLayer@@U?$default_delete@VLayer@@@std@@@std@@@2@@std@@QEAA@XZ
pdata	ENDS
;	COMDAT pdata
pdata	SEGMENT
$pdata$??1?$_Tree@V?$_Tmap_traits@_KUgameInfo@@U?$less@_K@std@@V?$allocator@U?$pair@$$CB_KUgameInfo@@@std@@@3@$0A@@std@@@std@@QEAA@XZ DD imagerel $LN63@Tree
	DD	imagerel $LN63@Tree+92
	DD	imagerel $unwind$??1?$_Tree@V?$_Tmap_traits@_KUgameInfo@@U?$less@_K@std@@V?$allocator@U?$pair@$$CB_KUgameInfo@@@std@@@3@$0A@@std@@@std@@QEAA@XZ
pdata	ENDS
;	COMDAT pdata
pdata	SEGMENT
$pdata$?clear@?$_Tree@V?$_Tmap_traits@_KUgameInfo@@U?$less@_K@std@@V?$allocator@U?$pair@$$CB_KUgameInfo@@@std@@@3@$0A@@std@@@std@@QEAAXXZ DD imagerel $LN40@clear
	DD	imagerel $LN40@clear+110
	DD	imagerel $unwind$?clear@?$_Tree@V?$_Tmap_traits@_KUgameInfo@@U?$less@_K@std@@V?$allocator@U?$pair@$$CB_KUgameInfo@@@std@@@3@$0A@@std@@@std@@QEAAXXZ
pdata	ENDS
;	COMDAT pdata
pdata	SEGMENT
$pdata$??0?$map@_KUgameInfo@@U?$less@_K@std@@V?$allocator@U?$pair@$$CB_KUgameInfo@@@std@@@3@@std@@QEAA@XZ DD imagerel $LN49@map
	DD	imagerel $LN49@map+70
	DD	imagerel $unwind$??0?$map@_KUgameInfo@@U?$less@_K@std@@V?$allocator@U?$pair@$$CB_KUgameInfo@@@std@@@3@@std@@QEAA@XZ
pdata	ENDS
;	COMDAT pdata
pdata	SEGMENT
$pdata$??0?$basic_ofstream@DU?$char_traits@D@std@@@std@@QEAA@PEBDHH@Z DD imagerel $LN26@basic_ofst
	DD	imagerel $LN26@basic_ofst+260
	DD	imagerel $unwind$??0?$basic_ofstream@DU?$char_traits@D@std@@@std@@QEAA@PEBDHH@Z
pdata	ENDS
;	COMDAT pdata
pdata	SEGMENT
$pdata$?dtor$0@?0???0?$basic_ofstream@DU?$char_traits@D@std@@@std@@QEAA@PEBDHH@Z@4HA DD imagerel ?dtor$0@?0???0?$basic_ofstream@DU?$char_traits@D@std@@@std@@QEAA@PEBDHH@Z@4HA
	DD	imagerel ?dtor$0@?0???0?$basic_ofstream@DU?$char_traits@D@std@@@std@@QEAA@PEBDHH@Z@4HA+46
	DD	imagerel $unwind$?dtor$0@?0???0?$basic_ofstream@DU?$char_traits@D@std@@@std@@QEAA@PEBDHH@Z@4HA
pdata	ENDS
;	COMDAT pdata
pdata	SEGMENT
$pdata$??1?$basic_ofstream@DU?$char_traits@D@std@@@std@@UEAA@XZ DD imagerel $LN17@basic_ofst
	DD	imagerel $LN17@basic_ofst+187
	DD	imagerel $unwind$??1?$basic_ofstream@DU?$char_traits@D@std@@@std@@UEAA@XZ
pdata	ENDS
;	COMDAT pdata
pdata	SEGMENT
$pdata$?close@?$basic_ofstream@DU?$char_traits@D@std@@@std@@QEAAXXZ DD imagerel $LN5@close
	DD	imagerel $LN5@close+58
	DD	imagerel $unwind$?close@?$basic_ofstream@DU?$char_traits@D@std@@@std@@QEAAXXZ
pdata	ENDS
;	COMDAT pdata
pdata	SEGMENT
$pdata$??1?$basic_filebuf@DU?$char_traits@D@std@@@std@@UEAA@XZ DD imagerel $LN14@basic_file
	DD	imagerel $LN14@basic_file+105
