; Listing generated by Microsoft (R) Optimizing Compiler Version 19.26.28806.0 

include listing.inc

INCLUDELIB OLDNAMES

PUBLIC	??_C@_0BB@GCADKGJO@map?1set?5too?5long@		; `string'
PUBLIC	?piecewise_construct@std@@3Upiecewise_construct_t@1@B ; std::piecewise_construct
;	COMDAT ?piecewise_construct@std@@3Upiecewise_construct_t@1@B
CONST	SEGMENT
?piecewise_construct@std@@3Upiecewise_construct_t@1@B	ORG $+1 ; std::piecewise_construct
CONST	ENDS
;	COMDAT ??_C@_0BB@GCADKGJO@map?1set?5too?5long@
CONST	SEGMENT
??_C@_0BB@GCADKGJO@map?1set?5too?5long@ DB 'map/set too long', 00H ; `string'
PUBLIC	??$get@$0A@AEB_K@std@@YAAEB_K$$QEAV?$tuple@AEB_K@0@@Z ; std::get<0,unsigned __int64 const &>
PUBLIC	??$move@AEAV?$tuple@AEB_K@std@@@std@@YA$$QEAV?$tuple@AEB_K@0@AEAV10@@Z ; std::move<std::tuple<unsigned __int64 const &> &>
PUBLIC	??0gameInfo@@QEAA@XZ				; gameInfo::gameInfo
PUBLIC	??$?0V?$tuple@AEB_K@std@@V?$tuple@$$V@1@$0A@$$Z$S@?$pair@$$CB_KUgameInfo@@@std@@QEAA@AEAV?$tuple@AEB_K@1@AEAV?$tuple@$$V@1@U?$integer_sequence@_K$0A@@1@U?$integer_sequence@_K$S@1@@Z ; std::pair<unsigned __int64 const ,gameInfo>::pair<unsigned __int64 const ,gameInfo><std::tuple<unsigned __int64 const &>,std::tuple<>,0>
PUBLIC	??$?0AEB_K@?$_Tuple_val@AEB_K@std@@QEAA@AEB_K@Z	; std::_Tuple_val<unsigned __int64 const &>::_Tuple_val<unsigned __int64 const &><unsigned __int64 const &>
PUBLIC	??$?0U_Exact_args_t@std@@$0A@@?$tuple@$$V@std@@QEAA@U_Exact_args_t@1@@Z ; std::tuple<>::tuple<><std::_Exact_args_t,0>
PUBLIC	??$forward@AEAPEAU?$_Tree_node@U?$pair@$$CB_KUgameInfo@@@std@@PEAX@std@@@std@@YAAEAPEAU?$_Tree_node@U?$pair@$$CB_KUgameInfo@@@std@@PEAX@0@AEAPEAU10@@Z ; std::forward<std::_Tree_node<std::pair<unsigned __int64 const ,gameInfo>,void *> * &>
PUBLIC	??$?0AEB_K$$Z$$V@?$pair@$$CB_KUgameInfo@@@std@@QEAA@Upiecewise_construct_t@1@V?$tuple@AEB_K@1@V?$tuple@$$V@1@@Z ; std::pair<unsigned __int64 const ,gameInfo>::pair<unsigned __int64 const ,gameInfo><unsigned __int64 const &>
PUBLIC	??$?0U_Exact_args_t@std@@AEB_K$$V$0A@@?$tuple@AEB_K@std@@QEAA@U_Exact_args_t@1@AEB_K@Z ; std::tuple<unsigned __int64 const &>::tuple<unsigned __int64 const &><std::_Exact_args_t,unsigned __int64 const &,0>
PUBLIC	??0?$tuple@AEB_K@std@@QEAA@$$QEAV01@@Z		; std::tuple<unsigned __int64 const &>::tuple<unsigned __int64 const &>
PUBLIC	??$forward@PEAU?$_Tree_node@U?$pair@$$CB_KUgameInfo@@@std@@PEAX@std@@@std@@YA$$QEAPEAU?$_Tree_node@U?$pair@$$CB_KUgameInfo@@@std@@PEAX@0@AEAPEAU10@@Z ; std::forward<std::_Tree_node<std::pair<unsigned __int64 const ,gameInfo>,void *> *>
PUBLIC	??$_Construct_in_place@PEAU?$_Tree_node@U?$pair@$$CB_KUgameInfo@@@std@@PEAX@std@@AEAPEAU12@@std@@YAXAEAPEAU?$_Tree_node@U?$pair@$$CB_KUgameInfo@@@std@@PEAX@0@0@Z ; std::_Construct_in_place<std::_Tree_node<std::pair<unsigned __int64 const ,gameInfo>,void *> *,std::_Tree_node<std::pair<unsigned __int64 const ,gameInfo>,void *> * &>
PUBLIC	??$construct@U?$pair@$$CB_KUgameInfo@@@std@@AEBUpiecewise_construct_t@2@V?$tuple@AEB_K@2@V?$tuple@$$V@2@@?$_Default_allocator_traits@V?$allocator@U?$_Tree_node@U?$pair@$$CB_KUgameInfo@@@std@@PEAX@std@@@std@@@std@@SAXAEAV?$allocator@U?$_Tree_node@U?$pair@$$CB_KUgameInfo@@@std@@PEAX@std@@@1@QEAU?$pair@$$CB_KUgameInfo@@@1@AEBUpiecewise_construct_t@1@$$QEAV?$tuple@AEB_K@1@$$QEAV?$tuple@$$V@1@@Z ; std::_Default_allocator_traits<std::allocator<std::_Tree_node<std::pair<unsigned __int64 const ,gameInfo>,void *> > >::construct<std::pair<unsigned __int64 const ,gameInfo>,std::piecewise_construct_t const &,std::tuple<unsigned __int64 const &>,std::tuple<> >
PUBLIC	??$forward@V?$tuple@$$V@std@@@std@@YA$$QEAV?$tuple@$$V@0@AEAV10@@Z ; std::forward<std::tuple<> >
PUBLIC	??$forward@V?$tuple@AEB_K@std@@@std@@YA$$QEAV?$tuple@AEB_K@0@AEAV10@@Z ; std::forward<std::tuple<unsigned __int64 const &> >
PUBLIC	??$forward@AEBUpiecewise_construct_t@std@@@std@@YAAEBUpiecewise_construct_t@0@AEBU10@@Z ; std::forward<std::piecewise_construct_t const &>
PUBLIC	??$?0AEB_K$0A@@?$tuple@AEB_K@std@@QEAA@AEB_K@Z	; std::tuple<unsigned __int64 const &>::tuple<unsigned __int64 const &><unsigned __int64 const &,0>
PUBLIC	??$forward@_N@std@@YA$$QEA_NAEA_N@Z		; std::forward<bool>
PUBLIC	??$_Kfn@$$CB_KUgameInfo@@@?$_Tmap_traits@_KUgameInfo@@U?$less@_K@std@@V?$allocator@U?$pair@$$CB_KUgameInfo@@@std@@@3@$0A@@std@@SAAEB_KAEBU?$pair@$$CB_KUgameInfo@@@1@@Z ; std::_Tmap_traits<unsigned __int64,gameInfo,std::less<unsigned __int64>,std::allocator<std::pair<unsigned __int64 const ,gameInfo> >,0>::_Kfn<unsigned __int64 const ,gameInfo>
PUBLIC	?_Get_first@?$_Compressed_pair@U?$less@_K@std@@V?$_Compressed_pair@V?$allocator@U?$_Tree_node@U?$pair@$$CB_KUgameInfo@@@std@@PEAX@std@@@std@@V?$_Tree_val@U?$_Tree_simple_types@U?$pair@$$CB_KUgameInfo@@@std@@@std@@@2@$00@2@$00@std@@QEBAAEBU?$less@_K@2@XZ ; std::_Compressed_pair<std::less<unsigned __int64>,std::_Compressed_pair<std::allocator<std::_Tree_node<std::pair<unsigned __int64 const ,gameInfo>,void *> >,std::_Tree_val<std::_Tree_simple_types<std::pair<unsigned __int64 const ,gameInfo> > >,1>,1>::_Get_first
PUBLIC	??0?$_Alloc_construct_ptr@V?$allocator@U?$_Tree_node@U?$pair@$$CB_KUgameInfo@@@std@@PEAX@std@@@std@@@std@@QEAA@AEAV?$allocator@U?$_Tree_node@U?$pair@$$CB_KUgameInfo@@@std@@PEAX@std@@@1@@Z ; std::_Alloc_construct_ptr<std::allocator<std::_Tree_node<std::pair<unsigned __int64 const ,gameInfo>,void *> > >::_Alloc_construct_ptr<std::allocator<std::_Tree_node<std::pair<unsigned __int64 const ,gameInfo>,void *> > >
PUBLIC	?_Allocate@?$_Alloc_construct_ptr@V?$allocator@U?$_Tree_node@U?$pair@$$CB_KUgameInfo@@@std@@PEAX@std@@@std@@@std@@QEAAXXZ ; std::_Alloc_construct_ptr<std::allocator<std::_Tree_node<std::pair<unsigned __int64 const ,gameInfo>,void *> > >::_Allocate
PUBLIC	?_Getcomp@?$_Tree@V?$_Tmap_traits@_KUgameInfo@@U?$less@_K@std@@V?$allocator@U?$pair@$$CB_KUgameInfo@@@std@@@3@$0A@@std@@@std@@IEBAAEBU?$less@_K@2@XZ ; std::_Tree<std::_Tmap_traits<unsigned __int64,gameInfo,std::less<unsigned __int64>,std::allocator<std::pair<unsigned __int64 const ,gameInfo> >,0> >::_Getcomp
PUBLIC	??R?$less@_K@std@@QEBA_NAEB_K0@Z		; std::less<unsigned __int64>::operator()
PUBLIC	??0?$_Tree_temp_node_alloc@V?$allocator@U?$_Tree_node@U?$pair@$$CB_KUgameInfo@@@std@@PEAX@std@@@std@@@std@@QEAA@AEAV?$allocator@U?$_Tree_node@U?$pair@$$CB_KUgameInfo@@@std@@PEAX@std@@@1@@Z ; std::_Tree_temp_node_alloc<std::allocator<std::_Tree_node<std::pair<unsigned __int64 const ,gameInfo>,void *> > >::_Tree_temp_node_alloc<std::allocator<std::_Tree_node<std::pair<unsigned __int64 const ,gameInfo>,void *> > >
PUBLIC	??$addressof@$$CBV?$_Tree_val@U?$_Tree_simple_types@U?$pair@$$CB_KUgameInfo@@@std@@@std@@@std@@@std@@YAPEBV?$_Tree_val@U?$_Tree_simple_types@U?$pair@$$CB_KUgameInfo@@@std@@@std@@@0@AEBV10@@Z ; std::addressof<std::_Tree_val<std::_Tree_simple_types<std::pair<unsigned __int64 const ,gameInfo> > > const >
PUBLIC	??$exchange@PEAU?$_Tree_node@U?$pair@$$CB_KUgameInfo@@@std@@PEAX@std@@$$T@std@@YAPEAU?$_Tree_node@U?$pair@$$CB_KUgameInfo@@@std@@PEAX@0@AEAPEAU10@$$QEA$$T@Z ; std::exchange<std::_Tree_node<std::pair<unsigned __int64 const ,gameInfo>,void *> *,std::nullptr_t>
PUBLIC	??$?0PEAU?$_Tree_node@U?$pair@$$CB_KUgameInfo@@@std@@PEAX@std@@_N$0A@@?$pair@PEAU?$_Tree_node@U?$pair@$$CB_KUgameInfo@@@std@@PEAX@std@@_N@std@@QEAA@$$QEAPEAU?$_Tree_node@U?$pair@$$CB_KUgameInfo@@@std@@PEAX@1@$$QEA_N@Z ; std::pair<std::_Tree_node<std::pair<unsigned __int64 const ,gameInfo>,void *> *,bool>::pair<std::_Tree_node<std::pair<unsigned __int64 const ,gameInfo>,void *> *,bool><std::_Tree_node<std::pair<unsigned __int64 const ,gameInfo>,void *> *,bool,0>
PUBLIC	??$?0AEBUpiecewise_construct_t@std@@V?$tuple@AEB_K@1@V?$tuple@$$V@1@@?$_Tree_temp_node@V?$allocator@U?$_Tree_node@U?$pair@$$CB_KUgameInfo@@@std@@PEAX@std@@@std@@@std@@QEAA@AEAV?$allocator@U?$_Tree_node@U?$pair@$$CB_KUgameInfo@@@std@@PEAX@std@@@1@PEAU?$_Tree_node@U?$pair@$$CB_KUgameInfo@@@std@@PEAX@1@AEBUpiecewise_construct_t@1@$$QEAV?$tuple@AEB_K@1@$$QEAV?$tuple@$$V@1@@Z ; std::_Tree_temp_node<std::allocator<std::_Tree_node<std::pair<unsigned __int64 const ,gameInfo>,void *> > >::_Tree_temp_node<std::allocator<std::_Tree_node<std::pair<unsigned __int64 const ,gameInfo>,void *> > ><std::piecewise_construct_t const &,std::tuple<unsigned __int64 const &>,std::tuple<> >
PUBLIC	??$forward_as_tuple@$$V@std@@YA?AV?$tuple@$$V@0@XZ ; std::forward_as_tuple<>
PUBLIC	??$forward_as_tuple@AEB_K@std@@YA?AV?$tuple@AEB_K@0@AEB_K@Z ; std::forward_as_tuple<unsigned __int64 const &>
PUBLIC	??$forward@AEB_K@std@@YAAEB_KAEB_K@Z		; std::forward<unsigned __int64 const &>
PUBLIC	??$?0AEBQEAU?$_Tree_node@U?$pair@$$CB_KUgameInfo@@@std@@PEAX@std@@_N$0A@@?$pair@PEAU?$_Tree_node@U?$pair@$$CB_KUgameInfo@@@std@@PEAX@std@@_N@std@@QEAA@AEBQEAU?$_Tree_node@U?$pair@$$CB_KUgameInfo@@@std@@PEAX@1@$$QEA_N@Z ; std::pair<std::_Tree_node<std::pair<unsigned __int64 const ,gameInfo>,void *> *,bool>::pair<std::_Tree_node<std::pair<unsigned __int64 const ,gameInfo>,void *> *,bool><std::_Tree_node<std::pair<unsigned __int64 const ,gameInfo>,void *> * const &,bool,0>
PUBLIC	??$_Lower_bound_duplicate@_K@?$_Tree@V?$_Tmap_traits@_KUgameInfo@@U?$less@_K@std@@V?$allocator@U?$pair@$$CB_KUgameInfo@@@std@@@3@$0A@@std@@@std@@IEBA_NQEAU?$_Tree_node@U?$pair@$$CB_KUgameInfo@@@std@@PEAX@1@AEB_K@Z ; std::_Tree<std::_Tmap_traits<unsigned __int64,gameInfo,std::less<unsigned __int64>,std::allocator<std::pair<unsigned __int64 const ,gameInfo> >,0> >::_Lower_bound_duplicate<unsigned __int64>
PUBLIC	??$_Find_lower_bound@_K@?$_Tree@V?$_Tmap_traits@_KUgameInfo@@U?$less@_K@std@@V?$allocator@U?$pair@$$CB_KUgameInfo@@@std@@@3@$0A@@std@@@std@@IEBA?AU?$_Tree_find_result@PEAU?$_Tree_node@U?$pair@$$CB_KUgameInfo@@@std@@PEAX@std@@@1@AEB_K@Z ; std::_Tree<std::_Tmap_traits<unsigned __int64,gameInfo,std::less<unsigned __int64>,std::allocator<std::pair<unsigned __int64 const ,gameInfo> >,0> >::_Find_lower_bound<unsigned __int64>
PUBLIC	??$forward@H@std@@YA$$QEAHAEAH@Z		; std::forward<int>
PUBLIC	??$forward@W4Score@@@std@@YA$$QEAW4Score@@AEAW41@@Z ; std::forward<enum Score>
PUBLIC	?_Get_first@?$_Compressed_pair@V?$allocator@U?$_Tree_node@U?$pair@$$CB_KUgameInfo@@@std@@PEAX@std@@@std@@V?$_Tree_val@U?$_Tree_simple_types@U?$pair@$$CB_KUgameInfo@@@std@@@std@@@2@$00@std@@QEBAAEBV?$allocator@U?$_Tree_node@U?$pair@$$CB_KUgameInfo@@@std@@PEAX@std@@@2@XZ ; std::_Compressed_pair<std::allocator<std::_Tree_node<std::pair<unsigned __int64 const ,gameInfo>,void *> >,std::_Tree_val<std::_Tree_simple_types<std::pair<unsigned __int64 const ,gameInfo> > >,1>::_Get_first
PUBLIC	?deallocate@?$allocator@U?$_Tree_node@U?$pair@$$CB_KUgameInfo@@@std@@PEAX@std@@@std@@QEAAXQEAU?$_Tree_node@U?$pair@$$CB_KUgameInfo@@@std@@PEAX@2@_K@Z ; std::allocator<std::_Tree_node<std::pair<unsigned __int64 const ,gameInfo>,void *> >::deallocate
PUBLIC	?max_size@?$_Default_allocator_traits@V?$allocator@U?$_Tree_node@U?$pair@$$CB_KUgameInfo@@@std@@PEAX@std@@@std@@@std@@SA_KAEBV?$allocator@U?$_Tree_node@U?$pair@$$CB_KUgameInfo@@@std@@PEAX@std@@@2@@Z ; std::_Default_allocator_traits<std::allocator<std::_Tree_node<std::pair<unsigned __int64 const ,gameInfo>,void *> > >::max_size
PUBLIC	?_Getal@?$_Tree@V?$_Tmap_traits@_KUgameInfo@@U?$less@_K@std@@V?$allocator@U?$pair@$$CB_KUgameInfo@@@std@@@3@$0A@@std@@@std@@IEBAAEBV?$allocator@U?$_Tree_node@U?$pair@$$CB_KUgameInfo@@@std@@PEAX@std@@@2@XZ ; std::_Tree<std::_Tmap_traits<unsigned __int64,gameInfo,std::less<unsigned __int64>,std::allocator<std::pair<unsigned __int64 const ,gameInfo> >,0> >::_Getal
PUBLIC	?max_size@?$_Tree@V?$_Tmap_traits@_KUgameInfo@@U?$less@_K@std@@V?$allocator@U?$pair@$$CB_KUgameInfo@@@std@@@3@$0A@@std@@@std@@QEBA_KXZ ; std::_Tree<std::_Tmap_traits<unsigned __int64,gameInfo,std::less<unsigned __int64>,std::allocator<std::pair<unsigned __int64 const ,gameInfo> >,0> >::max_size
PUBLIC	?_Lrotate@?$_Tree_val@U?$_Tree_simple_types@U?$pair@$$CB_KUgameInfo@@@std@@@std@@@std@@QEAAXPEAU?$_Tree_node@U?$pair@$$CB_KUgameInfo@@@std@@PEAX@2@@Z ; std::_Tree_val<std::_Tree_simple_types<std::pair<unsigned __int64 const ,gameInfo> > >::_Lrotate
PUBLIC	?_Rrotate@?$_Tree_val@U?$_Tree_simple_types@U?$pair@$$CB_KUgameInfo@@@std@@@std@@@std@@QEAAXPEAU?$_Tree_node@U?$pair@$$CB_KUgameInfo@@@std@@PEAX@2@@Z ; std::_Tree_val<std::_Tree_simple_types<std::pair<unsigned __int64 const ,gameInfo> > >::_Rrotate
PUBLIC	??1?$_Alloc_construct_ptr@V?$allocator@U?$_Tree_node@U?$pair@$$CB_KUgameInfo@@@std@@PEAX@std@@@std@@@std@@QEAA@XZ ; std::_Alloc_construct_ptr<std::allocator<std::_Tree_node<std::pair<unsigned __int64 const ,gameInfo>,void *> > >::~_Alloc_construct_ptr<std::allocator<std::_Tree_node<std::pair<unsigned __int64 const ,gameInfo>,void *> > >
PUBLIC	??1?$_Tree_temp_node_alloc@V?$allocator@U?$_Tree_node@U?$pair@$$CB_KUgameInfo@@@std@@PEAX@std@@@std@@@std@@QEAA@XZ ; std::_Tree_temp_node_alloc<std::allocator<std::_Tree_node<std::pair<unsigned __int64 const ,gameInfo>,void *> > >::~_Tree_temp_node_alloc<std::allocator<std::_Tree_node<std::pair<unsigned __int64 const ,gameInfo>,void *> > >
PUBLIC	?_Check_grow_by_1@?$_Tree@V?$_Tmap_traits@_KUgameInfo@@U?$less@_K@std@@V?$allocator@U?$pair@$$CB_KUgameInfo@@@std@@@3@$0A@@std@@@std@@IEAAXXZ ; std::_Tree<std::_Tmap_traits<unsigned __int64,gameInfo,std::less<unsigned __int64>,std::allocator<std::pair<unsigned __int64 const ,gameInfo> >,0> >::_Check_grow_by_1
PUBLIC	?_Get_scary@?$_Tree@V?$_Tmap_traits@_KUgameInfo@@U?$less@_K@std@@V?$allocator@U?$pair@$$CB_KUgameInfo@@@std@@@3@$0A@@std@@@std@@IEBAPEBV?$_Tree_val@U?$_Tree_simple_types@U?$pair@$$CB_KUgameInfo@@@std@@@std@@@2@XZ ; std::_Tree<std::_Tmap_traits<unsigned __int64,gameInfo,std::less<unsigned __int64>,std::allocator<std::pair<unsigned __int64 const ,gameInfo> >,0> >::_Get_scary
PUBLIC	?_Insert_node@?$_Tree_val@U?$_Tree_simple_types@U?$pair@$$CB_KUgameInfo@@@std@@@std@@@std@@QEAAPEAU?$_Tree_node@U?$pair@$$CB_KUgameInfo@@@std@@PEAX@2@U?$_Tree_id@PEAU?$_Tree_node@U?$pair@$$CB_KUgameInfo@@@std@@PEAX@std@@@2@QEAU32@@Z ; std::_Tree_val<std::_Tree_simple_types<std::pair<unsigned __int64 const ,gameInfo> > >::_Insert_node
PUBLIC	?_Release@?$_Alloc_construct_ptr@V?$allocator@U?$_Tree_node@U?$pair@$$CB_KUgameInfo@@@std@@PEAX@std@@@std@@@std@@QEAAPEAU?$_Tree_node@U?$pair@$$CB_KUgameInfo@@@std@@PEAX@2@XZ ; std::_Alloc_construct_ptr<std::allocator<std::_Tree_node<std::pair<unsigned __int64 const ,gameInfo>,void *> > >::_Release
PUBLIC	??1?$_Tree_temp_node@V?$allocator@U?$_Tree_node@U?$pair@$$CB_KUgameInfo@@@std@@PEAX@std@@@std@@@std@@QEAA@XZ ; std::_Tree_temp_node<std::allocator<std::_Tree_node<std::pair<unsigned __int64 const ,gameInfo>,void *> > >::~_Tree_temp_node<std::allocator<std::_Tree_node<std::pair<unsigned __int64 const ,gameInfo>,void *> > >
PUBLIC	??$_Find@_K@?$_Tree@V?$_Tmap_traits@_KUgameInfo@@U?$less@_K@std@@V?$allocator@U?$pair@$$CB_KUgameInfo@@@std@@@3@$0A@@std@@@std@@AEBAPEAU?$_Tree_node@U?$pair@$$CB_KUgameInfo@@@std@@PEAX@1@AEB_K@Z ; std::_Tree<std::_Tmap_traits<unsigned __int64,gameInfo,std::less<unsigned __int64>,std::allocator<std::pair<unsigned __int64 const ,gameInfo> >,0> >::_Find<unsigned __int64>
PUBLIC	??$_Try_emplace@AEB_K$$V@?$map@_KUgameInfo@@U?$less@_K@std@@V?$allocator@U?$pair@$$CB_KUgameInfo@@@std@@@3@@std@@AEAA?AU?$pair@PEAU?$_Tree_node@U?$pair@$$CB_KUgameInfo@@@std@@PEAX@std@@_N@1@AEB_K@Z ; std::map<unsigned __int64,gameInfo,std::less<unsigned __int64>,std::allocator<std::pair<unsigned __int64 const ,gameInfo> > >::_Try_emplace<unsigned __int64 const &>
PUBLIC	??$?0W4Score@@H$0A@@?$pair@W4Score@@H@std@@QEAA@$$QEAW4Score@@$$QEAH@Z ; std::pair<enum Score,int>::pair<enum Score,int><enum Score,int,0>
PUBLIC	??$?0W4Score@@H$0A@@?$pair@W4Score@@H@std@@QEAA@XZ ; std::pair<enum Score,int>::pair<enum Score,int><enum Score,int,0>
PUBLIC	??0?$_Tree_unchecked_const_iterator@V?$_Tree_val@U?$_Tree_simple_types@U?$pair@$$CB_KUgameInfo@@@std@@@std@@@std@@U_Iterator_base0@2@@std@@QEAA@PEAU?$_Tree_node@U?$pair@$$CB_KUgameInfo@@@std@@PEAX@1@PEBV?$_Tree_val@U?$_Tree_simple_types@U?$pair@$$CB_KUgameInfo@@@std@@@std@@@1@@Z ; std::_Tree_unchecked_const_iterator<std::_Tree_val<std::_Tree_simple_types<std::pair<unsigned __int64 const ,gameInfo> > >,std::_Iterator_base0>::_Tree_unchecked_const_iterator<std::_Tree_val<std::_Tree_simple_types<std::pair<unsigned __int64 const ,gameInfo> > >,std::_Iterator_base0>
PUBLIC	??8?$_Tree_const_iterator@V?$_Tree_val@U?$_Tree_simple_types@U?$pair@$$CB_KUgameInfo@@@std@@@std@@@std@@@std@@QEBA_NAEBV01@@Z ; std::_Tree_const_iterator<std::_Tree_val<std::_Tree_simple_types<std::pair<unsigned __int64 const ,gameInfo> > > >::operator==
PUBLIC	??0?$_Tree_const_iterator@V?$_Tree_val@U?$_Tree_simple_types@U?$pair@$$CB_KUgameInfo@@@std@@@std@@@std@@@std@@QEAA@PEAU?$_Tree_node@U?$pair@$$CB_KUgameInfo@@@std@@PEAX@1@PEBV?$_Tree_val@U?$_Tree_simple_types@U?$pair@$$CB_KUgameInfo@@@std@@@std@@@1@@Z ; std::_Tree_const_iterator<std::_Tree_val<std::_Tree_simple_types<std::pair<unsigned __int64 const ,gameInfo> > > >::_Tree_const_iterator<std::_Tree_val<std::_Tree_simple_types<std::pair<unsigned __int64 const ,gameInfo> > > >
PUBLIC	??0?$_Tree_iterator@V?$_Tree_val@U?$_Tree_simple_types@U?$pair@$$CB_KUgameInfo@@@std@@@std@@@std@@@std@@QEAA@PEAU?$_Tree_node@U?$pair@$$CB_KUgameInfo@@@std@@PEAX@1@PEBV?$_Tree_val@U?$_Tree_simple_types@U?$pair@$$CB_KUgameInfo@@@std@@@std@@@1@@Z ; std::_Tree_iterator<std::_Tree_val<std::_Tree_simple_types<std::pair<unsigned __int64 const ,gameInfo> > > >::_Tree_iterator<std::_Tree_val<std::_Tree_simple_types<std::pair<unsigned __int64 const ,gameInfo> > > >
PUBLIC	?end@?$_Tree@V?$_Tmap_traits@_KUgameInfo@@U?$less@_K@std@@V?$allocator@U?$pair@$$CB_KUgameInfo@@@std@@@3@$0A@@std@@@std@@QEAA?AV?$_Tree_iterator@V?$_Tree_val@U?$_Tree_simple_types@U?$pair@$$CB_KUgameInfo@@@std@@@std@@@std@@@2@XZ ; std::_Tree<std::_Tmap_traits<unsigned __int64,gameInfo,std::less<unsigned __int64>,std::allocator<std::pair<unsigned __int64 const ,gameInfo> >,0> >::end
PUBLIC	?find@?$_Tree@V?$_Tmap_traits@_KUgameInfo@@U?$less@_K@std@@V?$allocator@U?$pair@$$CB_KUgameInfo@@@std@@@3@$0A@@std@@@std@@QEAA?AV?$_Tree_iterator@V?$_Tree_val@U?$_Tree_simple_types@U?$pair@$$CB_KUgameInfo@@@std@@@std@@@std@@@2@AEB_K@Z ; std::_Tree<std::_Tmap_traits<unsigned __int64,gameInfo,std::less<unsigned __int64>,std::allocator<std::pair<unsigned __int64 const ,gameInfo> >,0> >::find
PUBLIC	??A?$map@_KUgameInfo@@U?$less@_K@std@@V?$allocator@U?$pair@$$CB_KUgameInfo@@@std@@@3@@std@@QEAAAEAUgameInfo@@AEB_K@Z ; std::map<unsigned __int64,gameInfo,std::less<unsigned __int64>,std::allocator<std::pair<unsigned __int64 const ,gameInfo> > >::operator[]
PUBLIC	??9?$_Tree_const_iterator@V?$_Tree_val@U?$_Tree_simple_types@U?$pair@$$CB_KUgameInfo@@@std@@@std@@@std@@@std@@QEBA_NAEBV01@@Z ; std::_Tree_const_iterator<std::_Tree_val<std::_Tree_simple_types<std::pair<unsigned __int64 const ,gameInfo> > > >::operator!=
PUBLIC	?_Unchecked_begin@?$array@U?$pair@W4Score@@H@std@@$06@std@@QEAAPEAU?$pair@W4Score@@H@2@XZ ; std::array<std::pair<enum Score,int>,7>::_Unchecked_begin
PUBLIC	?_Unchecked_end@?$array@U?$pair@W4Score@@H@std@@$06@std@@QEAAPEAU?$pair@W4Score@@H@2@XZ ; std::array<std::pair<enum Score,int>,7>::_Unchecked_end
PUBLIC	??A?$array@U?$pair@W4Score@@H@std@@$06@std@@QEAAAEAU?$pair@W4Score@@H@1@_K@Z ; std::array<std::pair<enum Score,int>,7>::operator[]
PUBLIC	??_H@YAXPEAX_K1P6APEAX0@Z@Z			; `vector constructor iterator'
PUBLIC	??0?$array@U?$pair@W4Score@@H@std@@$06@std@@QEAA@XZ ; std::array<std::pair<enum Score,int>,7>::array<std::pair<enum Score,int>,7>
PUBLIC	?orderMoves@search@@YA?AV?$array@U?$pair@W4Score@@H@std@@$06@std@@AEAVBoard@@_K@Z ; search::orderMoves
PUBLIC	?hash@search@@YA_KAEBVBoard@@@Z			; search::hash
PUBLIC	?probeEntry@search@@YA_N_KAEAW4Score@@W42@2H@Z	; search::probeEntry
PUBLIC	?_Throw_tree_length_error@std@@YAXXZ		; std::_Throw_tree_length_error
PUBLIC	?ply@Board@@QEBAHXZ				; Board::ply
PUBLIC	?_Adopt@_Iterator_base0@std@@QEAAXPEBX@Z	; std::_Iterator_base0::_Adopt
PUBLIC	??0?$tuple@$$V@std@@QEAA@AEBV01@@Z		; std::tuple<>::tuple<>
PUBLIC	??0?$tuple@$$V@std@@QEAA@XZ			; std::tuple<>::tuple<>
PUBLIC	?search@0@YA?AW4Score@@AEAVBoard@@HW41@1N@Z	; search::search
PUBLIC	?init@search@@YAXXZ				; search::init
PUBLIC	?evaluate@search@@YA?AW4Score@@AEAVBoard@@N@Z	; search::evaluate
PUBLIC	?hashRandom@@3PAY156_KA				; hashRandom
PUBLIC	?generator@@3V?$mersenne_twister_engine@_K$0EA@$0BDI@$0JM@$0BP@$0?EKPNJAKFFGJJOGBH@$0BN@$0FFFFFFFFFFFFFFFF@$0BB@$0HBNGHPPPONKGAAAA@$0CF@$0?IBBCAAAAAAAAA@$0CL@$0FIFBPECNEMJFHPCN@@std@@A ; generator
;	COMDAT ?hashRandom@@3PAY156_KA
_BSS	SEGMENT
?hashRandom@@3PAY156_KA DQ 054H DUP (?)			; hashRandom
	ALIGN	4

?lastp1@Eigen@@3V?$AddExpr@V?$SymbolExpr@Usymbolic_last_tag@internal@Eigen@@@symbolic@Eigen@@V?$ValueExpr@V?$FixedInt@$00@internal@Eigen@@@23@@symbolic@1@B DW 01H DUP (?) ; Eigen::lastp1
	ALIGN	4

?end@placeholders@Eigen@@3V?$AddExpr@V?$SymbolExpr@Usymbolic_last_tag@internal@Eigen@@@symbolic@Eigen@@V?$ValueExpr@V?$FixedInt@$00@internal@Eigen@@@23@@symbolic@2@B DW 01H DUP (?) ; Eigen::placeholders::end
	ALIGN	4

?generator@@3V?$mersenne_twister_engine@_K$0EA@$0BDI@$0JM@$0BP@$0?EKPNJAKFFGJJOGBH@$0BN@$0FFFFFFFFFFFFFFFF@$0BB@$0HBNGHPPPONKGAAAA@$0CF@$0?IBBCAAAAAAAAA@$0CL@$0FIFBPECNEMJFHPCN@@std@@A DB 01390H DUP (?) ; generator
_BSS	ENDS
;	COMDAT pdata
pdata	SEGMENT
$pdata$?_Allocate@?$_Alloc_construct_ptr@V?$allocator@U?$_Tree_node@U?$pair@$$CB_KUgameInfo@@@std@@PEAX@std@@@std@@@std@@QEAAXXZ DD imagerel $LN32@Allocate
	DD	imagerel $LN32@Allocate+37
	DD	imagerel $unwind$?_Allocate@?$_Alloc_construct_ptr@V?$allocator@U?$_Tree_node@U?$pair@$$CB_KUgameInfo@@@std@@PEAX@std@@@std@@@std@@QEAAXXZ
pdata	ENDS
;	COMDAT pdata
pdata	SEGMENT
$pdata$??0?$_Tree_temp_node_alloc@V?$allocator@U?$_Tree_node@U?$pair@$$CB_KUgameInfo@@@std@@PEAX@std@@@std@@@std@@QEAA@AEAV?$allocator@U?$_Tree_node@U?$pair@$$CB_KUgameInfo@@@std@@PEAX@std@@@1@@Z DD imagerel $LN39@Tree_temp_
	DD	imagerel $LN39@Tree_temp_+47
	DD	imagerel $unwind$??0?$_Tree_temp_node_alloc@V?$allocator@U?$_Tree_node@U?$pair@$$CB_KUgameInfo@@@std@@PEAX@std@@@std@@@std@@QEAA@AEAV?$allocator@U?$_Tree_node@U?$pair@$$CB_KUgameInfo@@@std@@PEAX@std@@@1@@Z
pdata	ENDS
;	COMDAT pdata
pdata	SEGMENT
$pdata$??$?0AEBUpiecewise_construct_t@std@@V?$tuple@AEB_K@1@V?$tuple@$$V@1@@?$_Tree_temp_node@V?$allocator@U?$_Tree_node@U?$pair@$$CB_KUgameInfo@@@std@@PEAX@std@@@std@@@std@@QEAA@AEAV?$allocator@U?$_Tree_node@U?$pair@$$CB_KUgameInfo@@@std@@PEAX@std@@@1@PEAU?$_Tree_node@U?$pair@$$CB_KUgameInfo@@@std@@PEAX@1@AEBUpiecewise_construct_t@1@$$QEAV?$tuple@AEB_K@1@$$QEAV?$tuple@$$V@1@@Z DD imagerel $LN59@pair
	DD	imagerel $LN59@pair+131
	DD	imagerel $unwind$??$?0AEBUpiecewise_construct_t@std@@V?$tuple@AEB_K@1@V?$tuple@$$V@1@@?$_Tree_temp_node@V?$allocator@U?$_Tree_node@U?$pair@$$CB_KUgameInfo@@@std@@PEAX@std@@@std@@@std@@QEAA@AEAV?$allocator@U?$_Tree_node@U?$pair@$$CB_KUgameInfo@@@std@@PEAX@std@@@1@PEAU?$_Tree_node@U?$pair@$$CB_KUgameInfo@@@std@@PEAX@1@AEBUpiecewise_construct_t@1@$$QEAV?$tuple@AEB_K@1@$$QEAV?$tuple@$$V@1@@Z
pdata	ENDS
;	COMDAT pdata
pdata	SEGMENT
$pdata$?_Check_grow_by_1@?$_Tree@V?$_Tmap_traits@_KUgameInfo@@U?$less@_K@std@@V?$allocator@U?$pair@$$CB_KUgameInfo@@@std@@@3@$0A@@std@@@std@@IEAAXXZ DD imagerel $LN7@Check_grow
	DD	imagerel $LN7@Check_grow+34
	DD	imagerel $unwind$?_Check_grow_by_1@?$_Tree@V?$_Tmap_traits@_KUgameInfo@@U?$less@_K@std@@V?$allocator@U?$pair@$$CB_KUgameInfo@@@std@@@3@$0A@@std@@@std@@IEAAXXZ
pdata	ENDS
;	COMDAT pdata
pdata	SEGMENT
$pdata$?_Insert_node@?$_Tree_val@U?$_Tree_simple_types@U?$pair@$$CB_KUgameInfo@@@std@@@std@@@std@@QEAAPEAU?$_Tree_node@U?$pair@$$CB_KUgameInfo@@@std@@PEAX@2@U?$_Tree_id@PEAU?$_Tree_node@U?$pair@$$CB_KUgameInfo@@@std@@PEAX@std@@@2@QEAU32@@Z DD imagerel $LN57@Insert_nod
	DD	imagerel $LN57@Insert_nod+637
	DD	imagerel $unwind$?_Insert_node@?$_Tree_val@U?$_Tree_simple_types@U?$pair@$$CB_KUgameInfo@@@std@@@std@@@std@@QEAAPEAU?$_Tree_node@U?$pair@$$CB_KUgameInfo@@@std@@PEAX@2@U?$_Tree_id@PEAU?$_Tree_node@U?$pair@$$CB_KUgameInfo@@@std@@PEAX@std@@@2@QEAU32@@Z
pdata	ENDS
;	COMDAT pdata
pdata	SEGMENT
$pdata$??$_Try_emplace@AEB_K$$V@?$map@_KUgameInfo@@U?$less@_K@std@@V?$allocator@U?$pair@$$CB_KUgameInfo@@@std@@@3@@std@@AEAA?AU?$pair@PEAU?$_Tree_node@U?$pair@$$CB_KUgameInfo@@@std@@PEAX@std@@_N@1@AEB_K@Z DD imagerel $LN129@Try_emplac
	DD	imagerel $LN129@Try_emplac+278
	DD	imagerel $unwind$??$_Try_emplace@AEB_K$$V@?$map@_KUgameInfo@@U?$less@_K@std@@V?$allocator@U?$pair@$$CB_KUgameInfo@@@std@@@3@@std@@AEAA?AU?$pair@PEAU?$_Tree_node@U?$pair@$$CB_KUgameInfo@@@std@@PEAX@std@@_N@1@AEB_K@Z
pdata	ENDS
;	COMDAT pdata
pdata	SEGMENT
$pdata$??A?$map@_KUgameInfo@@U?$less@_K@std@@V?$allocator@U?$pair@$$CB_KUgameInfo@@@std@@@3@@std@@QEAAAEAUgameInfo@@AEB_K@Z DD imagerel $LN131@operator
	DD	imagerel $LN131@operator+247
	DD	imagerel $unwind$??A?$map@_KUgameInfo@@U?$less@_K@std@@V?$allocator@U?$pair@$$CB_KUgameInfo@@@std@@@3@@std@@QEAAAEAUgameInfo@@AEB_K@Z
pdata	ENDS
;	COMDAT pdata
pdata	SEGMENT
$pdata$??_H@YAXPEAX_K1P6APEAX0@Z@Z DD imagerel $LN11@vector
	DD	imagerel $LN11@vector+47
	DD	imagerel $unwind$??_H@YAXPEAX_K1P6APEAX0@Z@Z
pdata	ENDS
;	COMDAT pdata
pdata	SEGMENT
$pdata$??0?$array@U?$pair@W4Score@@H@std@@$06@std@@QEAA@XZ DD imagerel $LN14@array
	DD	imagerel $LN14@array+69
	DD	imagerel $unwind$??0?$array@U?$pair@W4Score@@H@std@@$06@std@@QEAA@XZ
pdata	ENDS
;	COMDAT pdata
pdata	SEGMENT
$pdata$?orderMoves@search@@YA?AV?$array@U?$pair@W4Score@@H@std@@$06@std@@AEAVBoard@@_K@Z DD imagerel $LN73@orderMoves
	DD	imagerel $LN73@orderMoves+236
	DD	imagerel $unwind$?orderMoves@search@@YA?AV?$array@U?$pair@W4Score@@H@std@@$06@std@@AEAVBoard@@_K@Z
pdata	ENDS
;	COMDAT pdata
pdata	SEGMENT
$pdata$?hash@search@@YA_KAEBVBoard@@@Z DD imagerel $LN45@hash
	DD	imagerel $LN45@hash+390
	DD	imagerel $unwind$?hash@search@@YA_KAEBVBoard@@@Z
pdata	ENDS
;	COMDAT pdata
pdata	SEGMENT
$pdata$?probeEntry@search@@YA_N_KAEAW4Score@@W42@2H@Z DD imagerel $LN53@probeEntry
	DD	imagerel $LN53@probeEntry+287
	DD	imagerel $unwind$?probeEntry@search@@YA_N_KAEAW4Score@@W42@2H@Z
pdata	ENDS
;	COMDAT pdata
pdata	SEGMENT
$pdata$??__Egenerator@@YAXXZ DD imagerel ??__Egenerator@@YAXXZ
	DD	imagerel ??__Egenerator@@YAXXZ+113
	DD	imagerel $unwind$??__Egenerator@@YAXXZ
pdata	ENDS
;	COMDAT pdata
pdata	SEGMENT
$pdata$?_Throw_tree_length_error@std@@YAXXZ DD imagerel $LN4@Throw_tree
	DD	imagerel $LN4@Throw_tree+18
	DD	imagerel $unwind$?_Throw_tree_length_error@std@@YAXXZ
pdata	ENDS
;	COMDAT pdata
pdata	SEGMENT
$pdata$?search@0@YA?AW4Score@@AEAVBoard@@HW41@1N@Z DD imagerel $LN175@search
	DD	imagerel $LN175@search+881
	DD	imagerel $unwind$?search@0@YA?AW4Score@@AEAVBoard@@HW41@1N@Z
pdata	ENDS
;	COMDAT pdata
pdata	SEGMENT
$pdata$?init@search@@YAXXZ DD imagerel $LN40@init
	DD	imagerel $LN40@init+289
	DD	imagerel $unwind$?init@search@@YAXXZ
pdata	ENDS
;	COMDAT pdata
pdata	SEGMENT
$pdata$?evaluate@search@@YA?AW4Score@@AEAVBoard@@N@Z DD imagerel $LN95@evaluate
	DD	imagerel $LN95@evaluate+68
	DD	imagerel $unwind$?evaluate@search@@YA?AW4Score@@AEAVBoard@@N@Z
pdata	ENDS
;	COMDAT pdata
pdata	SEGMENT
$pdata$1$?evaluate@search@@YA?AW4Score@@AEAVBoard@@N@Z DD imagerel $LN95@evaluate+68
	DD	imagerel $LN95@evaluate+169
	DD	imagerel $chain$1$?evaluate@search@@YA?AW4Score@@AEAVBoard@@N@Z
pdata	ENDS
;	COMDAT pdata
pdata	SEGMENT
$pdata$3$?evaluate@search@@YA?AW4Score@@AEAVBoard@@N@Z DD imagerel $LN95@evaluate+169
	DD	imagerel $LN95@evaluate+272
	DD	imagerel $chain$3$?evaluate@search@@YA?AW4Score@@AEAVBoard@@N@Z
pdata	ENDS
;	COMDAT pdata
pdata	SEGMENT
$pdata$4$?evaluate@search@@YA?AW4Score@@AEAVBoard@@N@Z DD imagerel $LN95@evaluate+272
	DD	imagerel $LN95@evaluate+301
	DD	imagerel $chain$4$?evaluate@search@@YA?AW4Score@@AEAVBoard@@N@Z
pdata	ENDS
;	COMDAT pdata
pdata	SEGMENT
$pdata$5$?evaluate@search@@YA?AW4Score@@AEAVBoard@@N@Z DD imagerel $LN95@evaluate+301
	DD	imagerel $LN95@evaluate+322
	DD	imagerel $chain$5$?evaluate@search@@YA?AW4Score@@AEAVBoard@@N@Z
pdata	ENDS
;	COMDAT xdata
xdata	SEGMENT
$chain$5$?evaluate@search@@YA?AW4Score@@AEAVBoard@@N@Z DD 021H
	DD	imagerel $LN95@evaluate
	DD	imagerel $LN95@evaluate+68
	DD	imagerel $unwind$?evaluate@search@@YA?AW4Score@@AEAVBoard@@N@Z
xdata	ENDS
;	COMDAT xdata
xdata	SEGMENT
$chain$4$?evaluate@search@@YA?AW4Score@@AEAVBoard@@N@Z DD 021H
	DD	imagerel $LN95@evaluate+68
	DD	imagerel $LN95@evaluate+169
	DD	imagerel $chain$1$?evaluate@search@@YA?AW4Score@@AEAVBoard@@N@Z
xdata	ENDS
;	COMDAT xdata
xdata	SEGMENT
$chain$3$?evaluate@search@@YA?AW4Score@@AEAVBoard@@N@Z DQ 00009740d00040d21r ; 1.31465e-308
	DD	086405H
	DD	imagerel $LN95@evaluate+68
	DD	imagerel $LN95@evaluate+169
	DD	imagerel $chain$1$?evaluate@search@@YA?AW4Score@@AEAVBoard@@N@Z
xdata	ENDS
;	COMDAT xdata
xdata	SEGMENT
$chain$1$?evaluate@search@@YA?AW4Score@@AEAVBoard@@N@Z DQ 00004f41500041521r ; 6.88861e-309
	DD	0ae405H
	DD	imagerel $LN95@evaluate
	DD	imagerel $LN95@evaluate+68
	DD	imagerel $unwind$?evaluate@search@@YA?AW4Score@@AEAVBoard@@N@Z
xdata	ENDS
;	COMDAT xdata
xdata	SEGMENT
$unwind$?evaluate@search@@YA?AW4Score@@AEAVBoard@@N@Z DQ 05003420700030701r ; 2.78739e+77
	DD	03002H
xdata	ENDS
;	COMDAT xdata
xdata	SEGMENT
$unwind$?init@search@@YAXXZ DQ 0027e6421000b3319r ; 1.16175e-296
	DQ	0027c3421027d5421r		; 1.07813e-296
	DQ	0e012f01402780121r		; -6.34786e+154
	DD	07010H
	DD	imagerel __GSHandlerCheck
	DD	013b0H
xdata	ENDS
;	COMDAT xdata
xdata	SEGMENT
$ip2state$?search@0@YA?AW4Score@@AEAVBoard@@HW41@1N@Z DQ 0024d02033100b206r ; 1.38609e-297
	DB	00H
xdata	ENDS
;	COMDAT xdata
xdata	SEGMENT
$stateUnwindMap$?search@0@YA?AW4Score@@AEAVBoard@@HW41@1N@Z DW 0e02H
	DD	imagerel __std_terminate
xdata	ENDS
;	COMDAT xdata
xdata	SEGMENT
$cppxdata$?search@0@YA?AW4Score@@AEAVBoard@@HW41@1N@Z DB 028H
	DD	imagerel $stateUnwindMap$?search@0@YA?AW4Score@@AEAVBoard@@HW41@1N@Z
	DD	imagerel $ip2state$?search@0@YA?AW4Score@@AEAVBoard@@HW41@1N@Z
xdata	ENDS
;	COMDAT xdata
xdata	SEGMENT
$unwind$?search@0@YA?AW4Score@@AEAVBoard@@HW41@1N@Z DQ 0000a6821000c2f19r ; 1.44724e-308
	DQ	0e00bf00d00170119r		; -4.68229e+154
	DQ	060047005c007d009r		; 3.42529e+154
	DD	050023003H
	DD	imagerel __GSHandlerCheck_EH4
	DD	imagerel $cppxdata$?search@0@YA?AW4Score@@AEAVBoard@@HW41@1N@Z
	DD	092H
xdata	ENDS
;	COMDAT xdata
xdata	SEGMENT
$unwind$?_Throw_tree_length_error@std@@YAXXZ DQ 00000420400010401r ; 3.58617e-310
xdata	ENDS
;	COMDAT xdata
xdata	SEGMENT
$unwind$??__Egenerator@@YAXXZ DQ 00000420400010401r ; 3.58617e-310
xdata	ENDS
;	COMDAT xdata
xdata	SEGMENT
$unwind$?probeEntry@search@@YA_N_KAEAW4Score@@W42@2H@Z DQ 00009641400061401r ; 1.30597e-308
	DQ	07010321400083414r		; 6.286e+231
xdata	ENDS
;	COMDAT xdata
xdata	SEGMENT
$unwind$?hash@search@@YA_KAEBVBoard@@@Z DQ 00004741400081401r ; 6.19326e-309
	DQ	00002540a0003640fr		; 3.23787e-309
	DD	013405H
xdata	ENDS
;	COMDAT xdata
xdata	SEGMENT
$ip2state$?orderMoves@search@@YA?AV?$array@U?$pair@W4Score@@H@std@@$06@std@@AEAVBoard@@_K@Z DD 034502H
xdata	ENDS
;	COMDAT xdata
xdata	SEGMENT
$stateUnwindMap$?orderMoves@search@@YA?AV?$array@U?$pair@W4Score@@H@std@@$06@std@@AEAVBoard@@_K@Z DW 0e02H
	DD	imagerel __std_terminate
xdata	ENDS
;	COMDAT xdata
xdata	SEGMENT
$cppxdata$?orderMoves@search@@YA?AV?$array@U?$pair@W4Score@@H@std@@$06@std@@AEAVBoard@@_K@Z DB 028H
	DD	imagerel $stateUnwindMap$?orderMoves@search@@YA?AV?$array@U?$pair@W4Score@@H@std@@$06@std@@AEAVBoard@@_K@Z
	DD	imagerel $ip2state$?orderMoves@search@@YA?AV?$array@U?$pair@W4Score@@H@std@@$06@std@@AEAVBoard@@_K@Z
xdata	ENDS
;	COMDAT xdata
xdata	SEGMENT
$unwind$?orderMoves@search@@YA?AV?$array@U?$pair@W4Score@@H@std@@$06@std@@AEAVBoard@@_K@Z DQ 00011641400082319r ; 2.41851e-308
	DQ	0000f341400105414r		; 2.1143e-308
	DD	07010b214H
	DD	imagerel __GSHandlerCheck_EH4
	DD	imagerel $cppxdata$?orderMoves@search@@YA?AV?$array@U?$pair@W4Score@@H@std@@$06@std@@AEAVBoard@@_K@Z
	DD	05aH
xdata	ENDS
;	COMDAT xdata
xdata	SEGMENT
$ip2state$??0?$array@U?$pair@W4Score@@H@std@@$06@std@@QEAA@XZ DB 00H
xdata	ENDS
;	COMDAT xdata
xdata	SEGMENT
$cppxdata$??0?$array@U?$pair@W4Score@@H@std@@$06@std@@QEAA@XZ DB 060H
	DD	imagerel $ip2state$??0?$array@U?$pair@W4Score@@H@std@@$06@std@@QEAA@XZ
xdata	ENDS
;	COMDAT xdata
xdata	SEGMENT
$unwind$??0?$array@U?$pair@W4Score@@H@std@@$06@std@@QEAA@XZ DQ 00007640f00060f19r ; 1.02782e-308
	DQ	0700b320f0006340fr		; 5.2777e+231
	DD	imagerel __CxxFrameHandler4
	DD	imagerel $cppxdata$??0?$array@U?$pair@W4Score@@H@std@@$06@std@@QEAA@XZ
xdata	ENDS
;	COMDAT xdata
xdata	SEGMENT
$unwind$??_H@YAXPEAX_K1P6APEAX0@Z@Z DQ 00006340a00040a01r ; 8.62672e-309
	DD	07006320aH
xdata	ENDS
;	COMDAT xdata
xdata	SEGMENT
$ip2state$??A?$map@_KUgameInfo@@U?$less@_K@std@@V?$allocator@U?$pair@$$CB_KUgameInfo@@@std@@@3@@std@@QEAAAEAUgameInfo@@AEB_K@Z DD 02024904H
	DW	0beH
xdata	ENDS
;	COMDAT xdata
xdata	SEGMENT
$stateUnwindMap$??A?$map@_KUgameInfo@@U?$less@_K@std@@V?$allocator@U?$pair@$$CB_KUgameInfo@@@std@@@3@@std@@QEAAAEAUgameInfo@@AEB_K@Z DW 0a02H
	DD	imagerel ??1?$_Alloc_construct_ptr@V?$allocator@U?$_Tree_node@U?$pair@$$CB_KUgameInfo@@@std@@PEAX@std@@@std@@@std@@QEAA@XZ
	DB	040H
xdata	ENDS
;	COMDAT xdata
xdata	SEGMENT
$cppxdata$??A?$map@_KUgameInfo@@U?$less@_K@std@@V?$allocator@U?$pair@$$CB_KUgameInfo@@@std@@@3@@std@@QEAAAEAUgameInfo@@AEB_K@Z DB 028H
	DD	imagerel $stateUnwindMap$??A?$map@_KUgameInfo@@U?$less@_K@std@@V?$allocator@U?$pair@$$CB_KUgameInfo@@@std@@@3@@std@@QEAAAEAUgameInfo@@AEB_K@Z
	DD	imagerel $ip2state$??A?$map@_KUgameInfo@@U?$less@_K@std@@V?$allocator@U?$pair@$$CB_KUgameInfo@@@std@@@3@@std@@QEAAAEAUgameInfo@@AEB_K@Z
xdata	ENDS
;	COMDAT xdata
xdata	SEGMENT
$unwind$??A?$map@_KUgameInfo@@U?$less@_K@std@@V?$allocator@U?$pair@$$CB_KUgameInfo@@@std@@@3@@std@@QEAAAEAUgameInfo@@AEB_K@Z DQ 0000d640f00060f11r ; 1.86223e-308
	DQ	0700b920f000c340fr		; 5.35047e+231
	DD	imagerel __CxxFrameHandler4
	DD	imagerel $cppxdata$??A?$map@_KUgameInfo@@U?$less@_K@std@@V?$allocator@U?$pair@$$CB_KUgameInfo@@@std@@@3@@std@@QEAAAEAUgameInfo@@AEB_K@Z
xdata	ENDS
;	COMDAT xdata
xdata	SEGMENT
$ip2state$??$_Try_emplace@AEB_K$$V@?$map@_KUgameInfo@@U?$less@_K@std@@V?$allocator@U?$pair@$$CB_KUgameInfo@@@std@@@3@@std@@AEAA?AU?$pair@PEAU?$_Tree_node@U?$pair@$$CB_KUgameInfo@@@std@@PEAX@std@@_N@1@AEB_K@Z DD 0202ad04H
	DW	0caH
xdata	ENDS
;	COMDAT xdata
xdata	SEGMENT
$stateUnwindMap$??$_Try_emplace@AEB_K$$V@?$map@_KUgameInfo@@U?$less@_K@std@@V?$allocator@U?$pair@$$CB_KUgameInfo@@@std@@@3@@std@@AEAA?AU?$pair@PEAU?$_Tree_node@U?$pair@$$CB_KUgameInfo@@@std@@PEAX@std@@_N@1@AEB_K@Z DW 0a02H
	DD	imagerel ??1?$_Alloc_construct_ptr@V?$allocator@U?$_Tree_node@U?$pair@$$CB_KUgameInfo@@@std@@PEAX@std@@@std@@@std@@QEAA@XZ
	DB	040H
xdata	ENDS
;	COMDAT xdata
xdata	SEGMENT
$cppxdata$??$_Try_emplace@AEB_K$$V@?$map@_KUgameInfo@@U?$less@_K@std@@V?$allocator@U?$pair@$$CB_KUgameInfo@@@std@@@3@@std@@AEAA?AU?$pair@PEAU?$_Tree_node@U?$pair@$$CB_KUgameInfo@@@std@@PEAX@std@@_N@1@AEB_K@Z DB 028H
	DD	imagerel $stateUnwindMap$??$_Try_emplace@AEB_K$$V@?$map@_KUgameInfo@@U?$less@_K@std@@V?$allocator@U?$pair@$$CB_KUgameInfo@@@std@@@3@@std@@AEAA?AU?$pair@PEAU?$_Tree_node@U?$pair@$$CB_KUgameInfo@@@std@@PEAX@std@@_N@1@AEB_K@Z
	DD	imagerel $ip2state$??$_Try_emplace@AEB_K$$V@?$map@_KUgameInfo@@U?$less@_K@std@@V?$allocator@U?$pair@$$CB_KUgameInfo@@@std@@@3@@std@@AEAA?AU?$pair@PEAU?$_Tree_node@U?$pair@$$CB_KUgameInfo@@@std@@PEAX@std@@_N@1@AEB_K@Z
xdata	ENDS
;	COMDAT xdata
xdata	SEGMENT
$unwind$??$_Try_emplace@AEB_K$$V@?$map@_KUgameInfo@@U?$less@_K@std@@V?$allocator@U?$pair@$$CB_KUgameInfo@@@std@@@3@@std@@AEAA?AU?$pair@PEAU?$_Tree_node@U?$pair@$$CB_KUgameInfo@@@std@@PEAX@std@@_N@1@AEB_K@Z DQ 0000f641400081411r ; 2.14037e-308
	DQ	0000c3414000e5414r		; 1.6971e-308
	DD	070109214H
	DD	imagerel __CxxFrameHandler4
	DD	imagerel $cppxdata$??$_Try_emplace@AEB_K$$V@?$map@_KUgameInfo@@U?$less@_K@std@@V?$allocator@U?$pair@$$CB_KUgameInfo@@@std@@@3@@std@@AEAA?AU?$pair@PEAU?$_Tree_node@U?$pair@$$CB_KUgameInfo@@@std@@PEAX@std@@_N@1@AEB_K@Z
xdata	ENDS
;	COMDAT xdata
xdata	SEGMENT
$unwind$?_Insert_node@?$_Tree_val@U?$_Tree_simple_types@U?$pair@$$CB_KUgameInfo@@@std@@@std@@@std@@QEAAPEAU?$_Tree_node@U?$pair@$$CB_KUgameInfo@@@std@@PEAX@2@U?$_Tree_id@PEAU?$_Tree_node@U?$pair@$$CB_KUgameInfo@@@std@@PEAX@std@@@2@QEAU32@@Z DQ 00002740a00040a01r ; 3.4117e-309
	DD	013405H
xdata	ENDS
;	COMDAT xdata
xdata	SEGMENT
$unwind$?_Check_grow_by_1@?$_Tree@V?$_Tmap_traits@_KUgameInfo@@U?$less@_K@std@@V?$allocator@U?$pair@$$CB_KUgameInfo@@@std@@@3@$0A@@std@@@std@@IEAAXXZ DQ 00000420400010401r ; 3.58617e-310
xdata	ENDS
;	COMDAT xdata
xdata	SEGMENT
$ip2state$??$?0AEBUpiecewise_construct_t@std@@V?$tuple@AEB_K@1@V?$tuple@$$V@1@@?$_Tree_temp_node@V?$allocator@U?$_Tree_node@U?$pair@$$CB_KUgameInfo@@@std@@PEAX@std@@@std@@@std@@QEAA@AEAV?$allocator@U?$_Tree_node@U?$pair@$$CB_KUgameInfo@@@std@@PEAX@std@@@1@PEAU?$_Tree_node@U?$pair@$$CB_KUgameInfo@@@std@@PEAX@1@AEBUpiecewise_construct_t@1@$$QEAV?$tuple@AEB_K@1@$$QEAV?$tuple@$$V@1@@Z DW 04a02H
	DB	02H
xdata	ENDS
;	COMDAT xdata
xdata	SEGMENT
$stateUnwindMap$??$?0AEBUpiecewise_construct_t@std@@V?$tuple@AEB_K@1@V?$tuple@$$V@1@@?$_Tree_temp_node@V?$allocator@U?$_Tree_node@U?$pair@$$CB_KUgameInfo@@@std@@PEAX@std@@@std@@@std@@QEAA@AEAV?$allocator@U?$_Tree_node@U?$pair@$$CB_KUgameInfo@@@std@@PEAX@std@@@1@PEAU?$_Tree_node@U?$pair@$$CB_KUgameInfo@@@std@@PEAX@1@AEBUpiecewise_construct_t@1@$$QEAV?$tuple@AEB_K@1@$$QEAV?$tuple@$$V@1@@Z DW 0c02H
	DD	imagerel ??1?$_Alloc_construct_ptr@V?$allocator@U?$_Tree_node@U?$pair@$$CB_KUgameInfo@@@std@@PEAX@std@@@std@@@std@@QEAA@XZ
	DB	040H
xdata	ENDS
;	COMDAT xdata
xdata	SEGMENT
$cppxdata$??$?0AEBUpiecewise_construct_t@std@@V?$tuple@AEB_K@1@V?$tuple@$$V@1@@?$_Tree_temp_node@V?$allocator@U?$_Tree_node@U?$pair@$$CB_KUgameInfo@@@std@@PEAX@std@@@std@@@std@@QEAA@AEAV?$allocator@U?$_Tree_node@U?$pair@$$CB_KUgameInfo@@@std@@PEAX@std@@@1@PEAU?$_Tree_node@U?$pair@$$CB_KUgameInfo@@@std@@PEAX@1@AEBUpiecewise_construct_t@1@$$QEAV?$tuple@AEB_K@1@$$QEAV?$tuple@$$V@1@@Z DB 028H
	DD	imagerel $stateUnwindMap$??$?0AEBUpiecewise_construct_t@std@@V?$tuple@AEB_K@1@V?$tuple@$$V@1@@?$_Tree_temp_node@V?$allocator@U?$_Tree_node@U?$pair@$$CB_KUgameInfo@@@std@@PEAX@std@@@std@@@std@@QEAA@AEAV?$allocator@U?$_Tree_node@U?$pair@$$CB_KUgameInfo@@@std@@PEAX@std@@@1@PEAU?$_Tree_node@U?$pair@$$CB_KUgameInfo@@@std@@PEAX@1@AEBUpiecewise_construct_t@1@$$QEAV?$tuple@AEB_K@1@$$QEAV?$tuple@$$V@1@@Z
	DD	imagerel $ip2state$??$?0AEBUpiecewise_construct_t@std@@V?$tuple@AEB_K@1@V?$tuple@$$V@1@@?$_Tree_temp_node@V?$allocator@U?$_Tree_node@U?$pair@$$CB_KUgameInfo@@@std@@PEAX@std@@@std@@@std@@QEAA@AEAV?$allocator@U?$_Tree_node@U?$pair@$$CB_KUgameInfo@@@std@@PEAX@std@@@1@PEAU?$_Tree_node@U?$pair@$$CB_KUgameInfo@@@std@@PEAX@1@AEBUpiecewise_construct_t@1@$$QEAV?$tuple@AEB_K@1@$$QEAV?$tuple@$$V@1@@Z
xdata	ENDS
;	COMDAT xdata
xdata	SEGMENT
$unwind$??$?0AEBUpiecewise_construct_t@std@@V?$tuple@AEB_K@1@V?$tuple@$$V@1@@?$_Tree_temp_node@V?$allocator@U?$_Tree_node@U?$pair@$$CB_KUgameInfo@@@std@@PEAX@std@@@std@@@std@@QEAA@AEAV?$allocator@U?$_Tree_node@U?$pair@$$CB_KUgameInfo@@@std@@PEAX@std@@@1@PEAU?$_Tree_node@U?$pair@$$CB_KUgameInfo@@@std@@PEAX@1@AEBUpiecewise_construct_t@1@$$QEAV?$tuple@AEB_K@1@$$QEAV?$tuple@$$V@1@@Z DQ 00009340a00040a11r ; 1.27987e-308
	DD	07006520aH
	DD	imagerel __CxxFrameHandler4
	DD	imagerel $cppxdata$??$?0AEBUpiecewise_construct_t@std@@V?$tuple@AEB_K@1@V?$tuple@$$V@1@@?$_Tree_temp_node@V?$allocator@U?$_Tree_node@U?$pair@$$CB_KUgameInfo@@@std@@PEAX@std@@@std@@@std@@QEAA@AEAV?$allocator@U?$_Tree_node@U?$pair@$$CB_KUgameInfo@@@std@@PEAX@std@@@1@PEAU?$_Tree_node@U?$pair@$$CB_KUgameInfo@@@std@@PEAX@1@AEBUpiecewise_construct_t@1@$$QEAV?$tuple@AEB_K@1@$$QEAV?$tuple@$$V@1@@Z
xdata	ENDS
;	COMDAT xdata
xdata	SEGMENT
$ip2state$??0?$_Tree_temp_node_alloc@V?$allocator@U?$_Tree_node@U?$pair@$$CB_KUgameInfo@@@std@@PEAX@std@@@std@@@std@@QEAA@AEAV?$allocator@U?$_Tree_node@U?$pair@$$CB_KUgameInfo@@@std@@PEAX@std@@@1@@Z DW 03a02H
	DB	02H
xdata	ENDS
;	COMDAT xdata
xdata	SEGMENT
$stateUnwindMap$??0?$_Tree_temp_node_alloc@V?$allocator@U?$_Tree_node@U?$pair@$$CB_KUgameInfo@@@std@@PEAX@std@@@std@@@std@@QEAA@AEAV?$allocator@U?$_Tree_node@U?$pair@$$CB_KUgameInfo@@@std@@PEAX@std@@@1@@Z DW 0c02H
	DD	imagerel ??1?$_Alloc_construct_ptr@V?$allocator@U?$_Tree_node@U?$pair@$$CB_KUgameInfo@@@std@@PEAX@std@@@std@@@std@@QEAA@XZ
	DB	060H
xdata	ENDS
;	COMDAT xdata
xdata	SEGMENT
$cppxdata$??0?$_Tree_temp_node_alloc@V?$allocator@U?$_Tree_node@U?$pair@$$CB_KUgameInfo@@@std@@PEAX@std@@@std@@@std@@QEAA@AEAV?$allocator@U?$_Tree_node@U?$pair@$$CB_KUgameInfo@@@std@@PEAX@std@@@1@@Z DB 028H
	DD	imagerel $stateUnwindMap$??0?$_Tree_temp_node_alloc@V?$allocator@U?$_Tree_node@U?$pair@$$CB_KUgameInfo@@@std@@PEAX@std@@@std@@@std@@QEAA@AEAV?$allocator@U?$_Tree_node@U?$pair@$$CB_KUgameInfo@@@std@@PEAX@std@@@1@@Z
	DD	imagerel $ip2state$??0?$_Tree_temp_node_alloc@V?$allocator@U?$_Tree_node@U?$pair@$$CB_KUgameInfo@@@std@@PEAX@std@@@std@@@std@@QEAA@AEAV?$allocator@U?$_Tree_node@U?$pair@$$CB_KUgameInfo@@@std@@PEAX@std@@@1@@Z
xdata	ENDS
;	COMDAT xdata
xdata	SEGMENT
$unwind$??0?$_Tree_temp_node_alloc@V?$allocator@U?$_Tree_node@U?$pair@$$CB_KUgameInfo@@@std@@PEAX@std@@@std@@@std@@QEAA@AEAV?$allocator@U?$_Tree_node@U?$pair@$$CB_KUgameInfo@@@std@@PEAX@std@@@1@@Z DQ 03006320a00020a11r ; 2.39605e-77
	DD	imagerel __CxxFrameHandler4
	DD	imagerel $cppxdata$??0?$_Tree_temp_node_alloc@V?$allocator@U?$_Tree_node@U?$pair@$$CB_KUgameInfo@@@std@@PEAX@std@@@std@@@std@@QEAA@AEAV?$allocator@U?$_Tree_node@U?$pair@$$CB_KUgameInfo@@@std@@PEAX@std@@@1@@Z
xdata	ENDS
;	COMDAT xdata
xdata	SEGMENT
$unwind$?_Allocate@?$_Alloc_construct_ptr@V?$allocator@U?$_Tree_node@U?$pair@$$CB_KUgameInfo@@@std@@PEAX@std@@@std@@@std@@QEAAXXZ DQ 03002320600020601r ; 1.96423e-77
?end$initializer$@placeholders@Eigen@@3P6AXXZEA DQ FLAT:??__Eend@placeholders@Eigen@@YAXXZ ; Eigen::placeholders::end$initializer$
?generator$initializer$@@3P6AXXZEA DQ FLAT:??__Egenerator@@YAXXZ ; generator$initializer$
END
