; Listing generated by Microsoft (R) Optimizing Compiler Version 19.27.29112.0 

include listing.inc

INCLUDELIB OLDNAMES

PUBLIC	??_R3?$basic_istream@DU?$char_traits@D@std@@@std@@8 ; std::basic_istream<char,std::char_traits<char> >::`RTTI Class Hierarchy Descriptor'
PUBLIC	??_R3?$basic_iostream@DU?$char_traits@D@std@@@std@@8 ; std::basic_iostream<char,std::char_traits<char> >::`RTTI Class Hierarchy Descriptor'
PUBLIC	??_R0?AV?$basic_stringstream@DU?$char_traits@D@std@@V?$allocator@D@2@@std@@@8 ; std::basic_stringstream<char,std::char_traits<char>,std::allocator<char> > `RTTI Type Descriptor'
PUBLIC	??_R0?AV?$basic_filebuf@DU?$char_traits@D@std@@@std@@@8 ; std::basic_filebuf<char,std::char_traits<char> > `RTTI Type Descriptor'
PUBLIC	??_R4?$basic_ofstream@DU?$char_traits@D@std@@@std@@6B@ ; std::basic_ofstream<char,std::char_traits<char> >::`RTTI Complete Object Locator'
PUBLIC	??_R3?$basic_ofstream@DU?$char_traits@D@std@@@std@@8 ; std::basic_ofstream<char,std::char_traits<char> >::`RTTI Class Hierarchy Descriptor'
PUBLIC	??_R1A@?0A@EA@?$basic_istream@DU?$char_traits@D@std@@@std@@8 ; std::basic_istream<char,std::char_traits<char> >::`RTTI Base Class Descriptor at (0,-1,0,64)'
PUBLIC	??_R0?AV?$basic_ifstream@DU?$char_traits@D@std@@@std@@@8 ; std::basic_ifstream<char,std::char_traits<char> > `RTTI Type Descriptor'
PUBLIC	??_R1A@?0A@EA@bad_cast@std@@8			; std::bad_cast::`RTTI Base Class Descriptor at (0,-1,0,64)'
PUBLIC	?evalCacheHits@uci@@3HA				; uci::evalCacheHits
PUBLIC	?evalCacheMisses@uci@@3HA			; uci::evalCacheMisses
PUBLIC	??_R3?$basic_ifstream@DU?$char_traits@D@std@@@std@@8 ; std::basic_ifstream<char,std::char_traits<char> >::`RTTI Class Hierarchy Descriptor'
PUBLIC	??_R0?AV?$basic_stringbuf@DU?$char_traits@D@std@@V?$allocator@D@2@@std@@@8 ; std::basic_stringbuf<char,std::char_traits<char>,std::allocator<char> > `RTTI Type Descriptor'
PUBLIC	??_R0?AVios_base@std@@@8			; std::ios_base `RTTI Type Descriptor'
PUBLIC	??_R2?$basic_stringbuf@DU?$char_traits@D@std@@V?$allocator@D@2@@std@@8 ; std::basic_stringbuf<char,std::char_traits<char>,std::allocator<char> >::`RTTI Base Class Array'
PUBLIC	??_R1A@?0A@EA@?$basic_ifstream@DU?$char_traits@D@std@@@std@@8 ; std::basic_ifstream<char,std::char_traits<char> >::`RTTI Base Class Descriptor at (0,-1,0,64)'
PUBLIC	??_R0?AV?$basic_iostream@DU?$char_traits@D@std@@@std@@@8 ; std::basic_iostream<char,std::char_traits<char> > `RTTI Type Descriptor'
PUBLIC	??_R17A@3EA@?$_Iosb@H@std@@8			; std::_Iosb<int>::`RTTI Base Class Descriptor at (8,0,4,64)'
PUBLIC	??_R1A@?0A@EA@?$basic_stringstream@DU?$char_traits@D@std@@V?$allocator@D@2@@std@@8 ; std::basic_stringstream<char,std::char_traits<char>,std::allocator<char> >::`RTTI Base Class Descriptor at (0,-1,0,64)'
PUBLIC	??_R2?$basic_ofstream@DU?$char_traits@D@std@@@std@@8 ; std::basic_ofstream<char,std::char_traits<char> >::`RTTI Base Class Array'
PUBLIC	??_R1A@?0A@EA@?$basic_streambuf@DU?$char_traits@D@std@@@std@@8 ; std::basic_streambuf<char,std::char_traits<char> >::`RTTI Base Class Descriptor at (0,-1,0,64)'
PUBLIC	??_7?$basic_filebuf@DU?$char_traits@D@std@@@std@@6B@ ; std::basic_filebuf<char,std::char_traits<char> >::`vftable'
PUBLIC	??_8?$basic_stringstream@DU?$char_traits@D@std@@V?$allocator@D@2@@std@@7B?$basic_ostream@DU?$char_traits@D@std@@@1@@ ; std::basic_stringstream<char,std::char_traits<char>,std::allocator<char> >::`vbtable'
PUBLIC	??_R2?$basic_istream@DU?$char_traits@D@std@@@std@@8 ; std::basic_istream<char,std::char_traits<char> >::`RTTI Base Class Array'
PUBLIC	??_R0?AV?$_Iosb@H@std@@@8			; std::_Iosb<int> `RTTI Type Descriptor'
PUBLIC	??_7?$basic_ofstream@DU?$char_traits@D@std@@@std@@6B@ ; std::basic_ofstream<char,std::char_traits<char> >::`vftable'
PUBLIC	_CTA2?AVbad_cast@std@@
PUBLIC	??_R0?AV?$basic_ofstream@DU?$char_traits@D@std@@@std@@@8 ; std::basic_ofstream<char,std::char_traits<char> > `RTTI Type Descriptor'
PUBLIC	??_R0?AV?$basic_streambuf@DU?$char_traits@D@std@@@std@@@8 ; std::basic_streambuf<char,std::char_traits<char> > `RTTI Type Descriptor'
PUBLIC	??_R3?$basic_stringbuf@DU?$char_traits@D@std@@V?$allocator@D@2@@std@@8 ; std::basic_stringbuf<char,std::char_traits<char>,std::allocator<char> >::`RTTI Class Hierarchy Descriptor'
PUBLIC	??_R2bad_cast@std@@8				; std::bad_cast::`RTTI Base Class Array'
PUBLIC	??_R2?$basic_ostream@DU?$char_traits@D@std@@@std@@8 ; std::basic_ostream<char,std::char_traits<char> >::`RTTI Base Class Array'
PUBLIC	??_7bad_cast@std@@6B@				; std::bad_cast::`vftable'
PUBLIC	??_R3?$basic_ios@DU?$char_traits@D@std@@@std@@8	; std::basic_ios<char,std::char_traits<char> >::`RTTI Class Hierarchy Descriptor'
PUBLIC	?_Stinit@?1??_Init@?$basic_filebuf@DU?$char_traits@D@std@@@std@@IEAAXPEAU_iobuf@@W4_Initfl@23@@Z@4U_Mbstatet@@A ; `std::basic_filebuf<char,std::char_traits<char> >::_Init'::`2'::_Stinit
PUBLIC	?is_paused@@3_NA				; is_paused
PUBLIC	??_8?$basic_ofstream@DU?$char_traits@D@std@@@std@@7B@ ; std::basic_ofstream<char,std::char_traits<char> >::`vbtable'
PUBLIC	??_R0?AVbad_cast@std@@@8			; std::bad_cast `RTTI Type Descriptor'
PUBLIC	_TI2?AVbad_cast@std@@
PUBLIC	??_7?$basic_stringbuf@DU?$char_traits@D@std@@V?$allocator@D@2@@std@@6B@ ; std::basic_stringbuf<char,std::char_traits<char>,std::allocator<char> >::`vftable'
PUBLIC	??_R1BA@?0A@EA@?$basic_ostream@DU?$char_traits@D@std@@@std@@8 ; std::basic_ostream<char,std::char_traits<char> >::`RTTI Base Class Descriptor at (16,-1,0,64)'
PUBLIC	??_R0?AV?$basic_istream@DU?$char_traits@D@std@@@std@@@8 ; std::basic_istream<char,std::char_traits<char> > `RTTI Type Descriptor'
PUBLIC	??_R4?$basic_ifstream@DU?$char_traits@D@std@@@std@@6B@ ; std::basic_ifstream<char,std::char_traits<char> >::`RTTI Complete Object Locator'
PUBLIC	??_R1A@?0A@EA@ios_base@std@@8			; std::ios_base::`RTTI Base Class Descriptor at (0,-1,0,64)'
PUBLIC	??_R1A@?0A@EA@?$basic_ostream@DU?$char_traits@D@std@@@std@@8 ; std::basic_ostream<char,std::char_traits<char> >::`RTTI Base Class Descriptor at (0,-1,0,64)'
PUBLIC	??_R4?$basic_filebuf@DU?$char_traits@D@std@@@std@@6B@ ; std::basic_filebuf<char,std::char_traits<char> >::`RTTI Complete Object Locator'
PUBLIC	??_R0?AV?$basic_ios@DU?$char_traits@D@std@@@std@@@8 ; std::basic_ios<char,std::char_traits<char> > `RTTI Type Descriptor'
PUBLIC	??_7?$basic_stringstream@DU?$char_traits@D@std@@V?$allocator@D@2@@std@@6B@ ; std::basic_stringstream<char,std::char_traits<char>,std::allocator<char> >::`vftable'
PUBLIC	??_R2?$basic_streambuf@DU?$char_traits@D@std@@@std@@8 ; std::basic_streambuf<char,std::char_traits<char> >::`RTTI Base Class Array'
PUBLIC	??_R1A@?0A@EA@?$_Iosb@H@std@@8			; std::_Iosb<int>::`RTTI Base Class Descriptor at (0,-1,0,64)'
PUBLIC	??_8?$basic_ifstream@DU?$char_traits@D@std@@@std@@7B@ ; std::basic_ifstream<char,std::char_traits<char> >::`vbtable'
PUBLIC	??_R1A@?0A@EA@?$basic_stringbuf@DU?$char_traits@D@std@@V?$allocator@D@2@@std@@8 ; std::basic_stringbuf<char,std::char_traits<char>,std::allocator<char> >::`RTTI Base Class Descriptor at (0,-1,0,64)'
PUBLIC	?_Psave@?$_Facetptr@V?$codecvt@DDU_Mbstatet@@@std@@@std@@2PEBVfacet@locale@2@EB ; std::_Facetptr<std::codecvt<char,char,_Mbstatet> >::_Psave
PUBLIC	?piecewise_construct@std@@3Upiecewise_construct_t@1@B ; std::piecewise_construct
PUBLIC	?_Psave@?$_Facetptr@V?$ctype@D@std@@@std@@2PEBVfacet@locale@2@EB ; std::_Facetptr<std::ctype<char> >::_Psave
PUBLIC	??_R2?$basic_iostream@DU?$char_traits@D@std@@@std@@8 ; std::basic_iostream<char,std::char_traits<char> >::`RTTI Base Class Array'
PUBLIC	??_R3bad_cast@std@@8				; std::bad_cast::`RTTI Class Hierarchy Descriptor'
PUBLIC	??_R2?$basic_stringstream@DU?$char_traits@D@std@@V?$allocator@D@2@@std@@8 ; std::basic_stringstream<char,std::char_traits<char>,std::allocator<char> >::`RTTI Base Class Array'
PUBLIC	??_R4bad_cast@std@@6B@				; std::bad_cast::`RTTI Complete Object Locator'
PUBLIC	_CT??_R0?AVbad_cast@std@@@8??0bad_cast@std@@QEAA@AEBV01@@Z24
PUBLIC	??_R4?$basic_stringbuf@DU?$char_traits@D@std@@V?$allocator@D@2@@std@@6B@ ; std::basic_stringbuf<char,std::char_traits<char>,std::allocator<char> >::`RTTI Complete Object Locator'
PUBLIC	??_R4?$basic_stringstream@DU?$char_traits@D@std@@V?$allocator@D@2@@std@@6B@ ; std::basic_stringstream<char,std::char_traits<char>,std::allocator<char> >::`RTTI Complete Object Locator'
PUBLIC	??_R1A@?0A@EA@?$basic_ofstream@DU?$char_traits@D@std@@@std@@8 ; std::basic_ofstream<char,std::char_traits<char> >::`RTTI Base Class Descriptor at (0,-1,0,64)'
PUBLIC	??_R1A@?0A@EA@?$basic_filebuf@DU?$char_traits@D@std@@@std@@8 ; std::basic_filebuf<char,std::char_traits<char> >::`RTTI Base Class Descriptor at (0,-1,0,64)'
PUBLIC	??_R1A@A@3FA@?$basic_ios@DU?$char_traits@D@std@@@std@@8 ; std::basic_ios<char,std::char_traits<char> >::`RTTI Base Class Descriptor at (0,0,4,80)'
PUBLIC	??_R3?$basic_filebuf@DU?$char_traits@D@std@@@std@@8 ; std::basic_filebuf<char,std::char_traits<char> >::`RTTI Class Hierarchy Descriptor'
PUBLIC	??_R0?AV?$basic_ostream@DU?$char_traits@D@std@@@std@@@8 ; std::basic_ostream<char,std::char_traits<char> > `RTTI Type Descriptor'
PUBLIC	??_R2ios_base@std@@8				; std::ios_base::`RTTI Base Class Array'
PUBLIC	??_R3?$basic_ostream@DU?$char_traits@D@std@@@std@@8 ; std::basic_ostream<char,std::char_traits<char> >::`RTTI Class Hierarchy Descriptor'
PUBLIC	??_R1A@?0A@EA@?$basic_iostream@DU?$char_traits@D@std@@@std@@8 ; std::basic_iostream<char,std::char_traits<char> >::`RTTI Base Class Descriptor at (0,-1,0,64)'
PUBLIC	??_8?$basic_stringstream@DU?$char_traits@D@std@@V?$allocator@D@2@@std@@7B?$basic_istream@DU?$char_traits@D@std@@@1@@ ; std::basic_stringstream<char,std::char_traits<char>,std::allocator<char> >::`vbtable'
PUBLIC	??_R3ios_base@std@@8				; std::ios_base::`RTTI Class Hierarchy Descriptor'
PUBLIC	??_R2?$basic_filebuf@DU?$char_traits@D@std@@@std@@8 ; std::basic_filebuf<char,std::char_traits<char> >::`RTTI Base Class Array'
PUBLIC	??_R3?$basic_streambuf@DU?$char_traits@D@std@@@std@@8 ; std::basic_streambuf<char,std::char_traits<char> >::`RTTI Class Hierarchy Descriptor'
PUBLIC	??_R3?$basic_stringstream@DU?$char_traits@D@std@@V?$allocator@D@2@@std@@8 ; std::basic_stringstream<char,std::char_traits<char>,std::allocator<char> >::`RTTI Class Hierarchy Descriptor'
PUBLIC	??_7?$basic_ifstream@DU?$char_traits@D@std@@@std@@6B@ ; std::basic_ifstream<char,std::char_traits<char> >::`vftable'
PUBLIC	??_R2?$_Iosb@H@std@@8				; std::_Iosb<int>::`RTTI Base Class Array'
PUBLIC	??_R1A@A@3EA@ios_base@std@@8			; std::ios_base::`RTTI Base Class Descriptor at (0,0,4,64)'
PUBLIC	??_R1A@?0A@EA@?$basic_ios@DU?$char_traits@D@std@@@std@@8 ; std::basic_ios<char,std::char_traits<char> >::`RTTI Base Class Descriptor at (0,-1,0,64)'
PUBLIC	??_R2?$basic_ifstream@DU?$char_traits@D@std@@@std@@8 ; std::basic_ifstream<char,std::char_traits<char> >::`RTTI Base Class Array'
PUBLIC	??_R3?$_Iosb@H@std@@8				; std::_Iosb<int>::`RTTI Class Hierarchy Descriptor'
PUBLIC	??_R17?0A@EA@?$_Iosb@H@std@@8			; std::_Iosb<int>::`RTTI Base Class Descriptor at (8,-1,0,64)'
PUBLIC	??_R2?$basic_ios@DU?$char_traits@D@std@@@std@@8	; std::basic_ios<char,std::char_traits<char> >::`RTTI Base Class Array'
PUBLIC	??_C@_0BA@JFNIOLAK@string?5too?5long@		; `string'
PUBLIC	??_C@_00CNPNBAHC@@				; `string'
PUBLIC	??_C@_08EPJLHIJG@bad?5cast@			; `string'
PUBLIC	??_C@_0BB@GCADKGJO@map?1set?5too?5long@		; `string'
PUBLIC	??_C@_0BI@LIIEICBE@C?3?1Users?1Anastazja?1abcd@	; `string'
PUBLIC	??_C@_08LDBNCAAL@startpos@			; `string'
PUBLIC	??_C@_0L@JPOLAILE@bestmove?3?5@			; `string'
PUBLIC	??_C@_07MIGMKNGI@score?3?5@			; `string'
PUBLIC	??_C@_02KPEDIMCA@go@				; `string'
PUBLIC	??_C@_08OAGMDKAF@position@			; `string'
PUBLIC	??_C@_05IJDJACGD@print@				; `string'
PUBLIC	??_C@_08HBLFHMBF@generate@			; `string'
PUBLIC	??_C@_08OFKCLLJE@selfplay@			; `string'
PUBLIC	??_C@_04BMFHCNCO@scan@				; `string'
PUBLIC	??_C@_04KCCPLAND@tree@				; `string'
PUBLIC	??_C@_04KGAGIKCD@eval@				; `string'
PUBLIC	??_C@_04HCCHHEEF@rate@				; `string'
PUBLIC	??_C@_09JPGCJHKH@calculate@			; `string'
PUBLIC	??_C@_0FI@MPCCAGOK@?5is?5not?5recognized?5as?5an?5intern@ ; `string'
PUBLIC	??_C@_07CPBAGGBK@?5games?6@			; `string'
PUBLIC	??_C@_01KMDKNFGN@?1@				; `string'
PUBLIC	??_C@_09BJFFGMHC@finished?5@			; `string'
PUBLIC	??_C@_04EHKALCEN@abcd@				; `string'
PUBLIC	??_C@_08MHHFDANP@?5out?5of?5@			; `string'
PUBLIC	??_C@_06ELJDABGK@batch?5@			; `string'
PUBLIC	??_C@_0BE@KLAHLPMD@?5?5?5?5?5evalCacheHits?5@	; `string'
PUBLIC	??_C@_0BB@JOLKIMIG@evalCacheMisses?5@		; `string'
PUBLIC	??_C@_0BC@OEKGJMBN@?5selfplay?5games?$CB?6@	; `string'
PUBLIC	??_C@_04GKHLBAIJ@?4bin@				; `string'
PUBLIC	??_C@_06EBEDMIHD@games?5@			; `string'
PUBLIC	??_C@_07EGCJMAPC@W?1D?1L?3?5@			; `string'
PUBLIC	??_C@_09CICGKMEL@games?4bin@			; `string'
PUBLIC	??_C@_01JLIPDDHJ@?3@				; `string'
PUBLIC	??_C@_05PDJBBECF@pause@				; `string'
PUBLIC	??_C@_07EHBIHMHN@paused?6@			; `string'
PUBLIC	??_C@_08BKMMHKC@resumed?6@			; `string'
PUBLIC	??_C@_0BA@PFOILOH@engine?5started?6@		; `string'
PUBLIC	??_C@_0BI@CFPLBAOH@invalid?5string?5position@	; `string'
EXTRN	__imp_?_Getcat@?$codecvt@DDU_Mbstatet@@@std@@SA_KPEAPEBVfacet@locale@2@PEBV42@@Z:PROC
EXTRN	__imp_?fill@?$basic_ios@DU?$char_traits@D@std@@@std@@QEAADD@Z:PROC
EXTRN	__imp_?copyfmt@?$basic_ios@DU?$char_traits@D@std@@@std@@QEAAAEAV12@AEBV12@@Z:PROC
EXTRN	__imp_?pbase@?$basic_streambuf@DU?$char_traits@D@std@@@std@@IEBAPEADXZ:PROC
EXTRN	__imp__get_stream_buffer_pointers:PROC
EXTRN	__imp__Mtx_unlock:PROC
EXTRN	__imp__fseeki64:PROC
EXTRN	__imp__Thrd_join:PROC
EXTRN	__imp_fread:PROC
EXTRN	__imp__Xtime_get_ticks:PROC
EXTRN	__imp__Query_perf_counter:PROC
EXTRN	__imp_fsetpos:PROC
EXTRN	__imp_ungetc:PROC
EXTRN	__imp__Thrd_id:PROC
EXTRN	__imp_setvbuf:PROC
EXTRN	__imp_fgetpos:PROC
EXTRN	__imp__Thrd_sleep:PROC
EXTRN	__imp__Cnd_do_broadcast_at_thread_exit:PROC
EXTRN	__imp_fwrite:PROC
EXTRN	__imp__lock_file:PROC
EXTRN	__imp__Mtx_init_in_situ:PROC
EXTRN	__imp__unlock_file:PROC
EXTRN	__imp__Mtx_lock:PROC
EXTRN	__imp_terminate:PROC
EXTRN	__imp_system:PROC
EXTRN	__imp_fgetc:PROC
EXTRN	atexit:PROC
EXTRN	__imp__Mtx_destroy_in_situ:PROC
EXTRN	__imp__beginthreadex:PROC
EXTRN	__imp_?_Random_device@std@@YAIXZ:PROC
EXTRN	__imp_?id@?$ctype@D@std@@2V0locale@2@A:QWORD
EXTRN	__imp_?_Fiopen@std@@YAPEAU_iobuf@@PEBDHH@Z:PROC
EXTRN	?_Facet_Register@std@@YAXPEAV_Facet_base@1@@Z:PROC ; std::_Facet_Register
EXTRN	__imp_?id@?$codecvt@DDU_Mbstatet@@@std@@2V0locale@2@A:QWORD
EXTRN	__imp_?_Throw_C_error@std@@YAXH@Z:PROC
EXTRN	__imp_?_Xout_of_range@std@@YAXPEBD@Z:PROC
EXTRN	__imp_?_Xbad_alloc@std@@YAXXZ:PROC
EXTRN	__imp_?cin@std@@3V?$basic_istream@DU?$char_traits@D@std@@@1@A:BYTE
EXTRN	__imp_?_Getgloballocale@locale@std@@CAPEAV_Locimp@12@XZ:PROC
EXTRN	__imp_?_Throw_Cpp_error@std@@YAXH@Z:PROC
EXTRN	__imp_??0_Lockit@std@@QEAA@H@Z:PROC
EXTRN	__imp_??1_Lockit@std@@QEAA@XZ:PROC
EXTRN	__imp__Query_perf_frequency:PROC
EXTRN	__imp_fclose:PROC
EXTRN	__imp_fflush:PROC
EXTRN	__imp_fputc:PROC
EXTRN	__imp_exit:PROC
EXTRN	__imp_??Bid@locale@std@@QEAA_KXZ:PROC
EXTRN	__imp_?always_noconv@codecvt_base@std@@QEBA_NXZ:PROC
EXTRN	__imp_?is@?$ctype@D@std@@QEBA_NFD@Z:PROC
EXTRN	__imp_?_Getcat@?$ctype@D@std@@SA_KPEAPEBVfacet@locale@2@PEBV42@@Z:PROC
EXTRN	__imp_?precision@ios_base@std@@QEAA_J_J@Z:PROC
EXTRN	__imp_?getloc@ios_base@std@@QEBA?AVlocale@2@XZ:PROC
EXTRN	__imp_??1?$basic_iostream@DU?$char_traits@D@std@@@std@@UEAA@XZ:PROC
EXTRN	__imp_?read@?$basic_istream@DU?$char_traits@D@std@@@std@@QEAAAEAV12@PEAD_J@Z:PROC
EXTRN	__imp_??5?$basic_istream@DU?$char_traits@D@std@@@std@@QEAAAEAV01@AEAH@Z:PROC
EXTRN	__imp_??1?$basic_istream@DU?$char_traits@D@std@@@std@@UEAA@XZ:PROC
EXTRN	__imp_?write@?$basic_ostream@DU?$char_traits@D@std@@@std@@QEAAAEAV12@PEBD_J@Z:PROC
EXTRN	__imp_??6?$basic_ostream@DU?$char_traits@D@std@@@std@@QEAAAEAV01@N@Z:PROC
EXTRN	__imp_??6?$basic_ostream@DU?$char_traits@D@std@@@std@@QEAAAEAV01@M@Z:PROC
EXTRN	__imp_??6?$basic_ostream@DU?$char_traits@D@std@@@std@@QEAAAEAV01@H@Z:PROC
EXTRN	__imp_??1?$basic_ostream@DU?$char_traits@D@std@@@std@@UEAA@XZ:PROC
EXTRN	__imp_??1?$basic_ios@DU?$char_traits@D@std@@@std@@UEAA@XZ:PROC
EXTRN	?imbue@?$basic_streambuf@DU?$char_traits@D@std@@@std@@MEAAXAEBVlocale@2@@Z:PROC ; std::basic_streambuf<char,std::char_traits<char> >::imbue
EXTRN	__imp_?imbue@?$basic_streambuf@DU?$char_traits@D@std@@@std@@MEAAXAEBVlocale@2@@Z:PROC
EXTRN	?sync@?$basic_streambuf@DU?$char_traits@D@std@@@std@@MEAAHXZ:PROC ; std::basic_streambuf<char,std::char_traits<char> >::sync
EXTRN	__imp_?sync@?$basic_streambuf@DU?$char_traits@D@std@@@std@@MEAAHXZ:PROC
EXTRN	?setbuf@?$basic_streambuf@DU?$char_traits@D@std@@@std@@MEAAPEAV12@PEAD_J@Z:PROC ; std::basic_streambuf<char,std::char_traits<char> >::setbuf
EXTRN	__imp_?setbuf@?$basic_streambuf@DU?$char_traits@D@std@@@std@@MEAAPEAV12@PEAD_J@Z:PROC
EXTRN	?xsputn@?$basic_streambuf@DU?$char_traits@D@std@@@std@@MEAA_JPEBD_J@Z:PROC ; std::basic_streambuf<char,std::char_traits<char> >::xsputn
EXTRN	__imp_?xsputn@?$basic_streambuf@DU?$char_traits@D@std@@@std@@MEAA_JPEBD_J@Z:PROC
EXTRN	?xsgetn@?$basic_streambuf@DU?$char_traits@D@std@@@std@@MEAA_JPEAD_J@Z:PROC ; std::basic_streambuf<char,std::char_traits<char> >::xsgetn
EXTRN	__imp_?xsgetn@?$basic_streambuf@DU?$char_traits@D@std@@@std@@MEAA_JPEAD_J@Z:PROC
EXTRN	?uflow@?$basic_streambuf@DU?$char_traits@D@std@@@std@@MEAAHXZ:PROC ; std::basic_streambuf<char,std::char_traits<char> >::uflow
EXTRN	__imp_?uflow@?$basic_streambuf@DU?$char_traits@D@std@@@std@@MEAAHXZ:PROC
EXTRN	?showmanyc@?$basic_streambuf@DU?$char_traits@D@std@@@std@@MEAA_JXZ:PROC ; std::basic_streambuf<char,std::char_traits<char> >::showmanyc
EXTRN	__imp_?showmanyc@?$basic_streambuf@DU?$char_traits@D@std@@@std@@MEAA_JXZ:PROC
EXTRN	?_Unlock@?$basic_streambuf@DU?$char_traits@D@std@@@std@@UEAAXXZ:PROC ; std::basic_streambuf<char,std::char_traits<char> >::_Unlock
EXTRN	__imp_?_Unlock@?$basic_streambuf@DU?$char_traits@D@std@@@std@@UEAAXXZ:PROC
EXTRN	?_Lock@?$basic_streambuf@DU?$char_traits@D@std@@@std@@UEAAXXZ:PROC ; std::basic_streambuf<char,std::char_traits<char> >::_Lock
EXTRN	__imp_?_Lock@?$basic_streambuf@DU?$char_traits@D@std@@@std@@UEAAXXZ:PROC
EXTRN	__imp_??1?$basic_streambuf@DU?$char_traits@D@std@@@std@@UEAA@XZ:PROC
EXTRN	__imp_??0?$basic_iostream@DU?$char_traits@D@std@@@std@@QEAA@PEAV?$basic_streambuf@DU?$char_traits@D@std@@@1@@Z:PROC
EXTRN	__imp_??0?$basic_istream@DU?$char_traits@D@std@@@std@@QEAA@PEAV?$basic_streambuf@DU?$char_traits@D@std@@@1@_N@Z:PROC
EXTRN	__imp_??0?$basic_ios@DU?$char_traits@D@std@@@std@@IEAA@XZ:PROC
EXTRN	__imp_?_Pnavail@?$basic_streambuf@DU?$char_traits@D@std@@@std@@IEBA_JXZ:PROC
EXTRN	__imp_?_Pninc@?$basic_streambuf@DU?$char_traits@D@std@@@std@@IEAAPEADXZ:PROC
EXTRN	__imp_?setp@?$basic_streambuf@DU?$char_traits@D@std@@@std@@IEAAXPEAD00@Z:PROC
EXTRN	__imp_?pbump@?$basic_streambuf@DU?$char_traits@D@std@@@std@@IEAAXH@Z:PROC
EXTRN	__imp_?_Gnavail@?$basic_streambuf@DU?$char_traits@D@std@@@std@@IEBA_JXZ:PROC
EXTRN	__imp_?_Gninc@?$basic_streambuf@DU?$char_traits@D@std@@@std@@IEAAPEADXZ:PROC
EXTRN	__imp_?_Gndec@?$basic_streambuf@DU?$char_traits@D@std@@@std@@IEAAPEADXZ:PROC
EXTRN	__imp_?epptr@?$basic_streambuf@DU?$char_traits@D@std@@@std@@IEBAPEADXZ:PROC
EXTRN	__imp_?setg@?$basic_streambuf@DU?$char_traits@D@std@@@std@@IEAAXPEAD00@Z:PROC
EXTRN	__imp_?gbump@?$basic_streambuf@DU?$char_traits@D@std@@@std@@IEAAXH@Z:PROC
EXTRN	__imp_?egptr@?$basic_streambuf@DU?$char_traits@D@std@@@std@@IEBAPEADXZ:PROC
EXTRN	__imp_?pptr@?$basic_streambuf@DU?$char_traits@D@std@@@std@@IEBAPEADXZ:PROC
EXTRN	__imp_?gptr@?$basic_streambuf@DU?$char_traits@D@std@@@std@@IEBAPEADXZ:PROC
EXTRN	__imp_?eback@?$basic_streambuf@DU?$char_traits@D@std@@@std@@IEBAPEADXZ:PROC
EXTRN	__imp_?out@?$codecvt@DDU_Mbstatet@@@std@@QEBAHAEAU_Mbstatet@@PEBD1AEAPEBDPEAD3AEAPEAD@Z:PROC
EXTRN	__imp_?in@?$codecvt@DDU_Mbstatet@@@std@@QEBAHAEAU_Mbstatet@@PEBD1AEAPEBDPEAD3AEAPEAD@Z:PROC
EXTRN	__imp_?_Ipfx@?$basic_istream@DU?$char_traits@D@std@@@std@@QEAA_N_N@Z:PROC
EXTRN	__imp_??0?$basic_ostream@DU?$char_traits@D@std@@@std@@QEAA@PEAV?$basic_streambuf@DU?$char_traits@D@std@@@1@_N@Z:PROC
EXTRN	__imp_?_Init@?$basic_streambuf@DU?$char_traits@D@std@@@std@@IEAAXPEAPEAD0PEAH001@Z:PROC
EXTRN	__imp_?_Init@?$basic_streambuf@DU?$char_traits@D@std@@@std@@IEAAXXZ:PROC
EXTRN	__imp_?setp@?$basic_streambuf@DU?$char_traits@D@std@@@std@@IEAAXPEAD0@Z:PROC
EXTRN	__imp_?getloc@?$basic_streambuf@DU?$char_traits@D@std@@@std@@QEBA?AVlocale@2@XZ:PROC
EXTRN	__imp_??0?$basic_streambuf@DU?$char_traits@D@std@@@std@@IEAA@XZ:PROC
EXTRN	__imp_?unshift@?$codecvt@DDU_Mbstatet@@@std@@QEBAHAEAU_Mbstatet@@PEAD1AEAPEAD@Z:PROC
EXTRN	__imp_?widen@?$basic_ios@DU?$char_traits@D@std@@@std@@QEBADD@Z:PROC
EXTRN	__imp_?snextc@?$basic_streambuf@DU?$char_traits@D@std@@@std@@QEAAHXZ:PROC
EXTRN	__imp_?sgetc@?$basic_streambuf@DU?$char_traits@D@std@@@std@@QEAAHXZ:PROC
EXTRN	__imp_?sbumpc@?$basic_streambuf@DU?$char_traits@D@std@@@std@@QEAAHXZ:PROC
?evalCacheHits@uci@@3HA DD 01H DUP (?)			; uci::evalCacheHits
?evalCacheMisses@uci@@3HA DD 01H DUP (?)		; uci::evalCacheMisses
_BSS	ENDS
;	COMDAT ?_Stinit@?1??_Init@?$basic_filebuf@DU?$char_traits@D@std@@@std@@IEAAXPEAU_iobuf@@W4_Initfl@23@@Z@4U_Mbstatet@@A
_BSS	SEGMENT
?_Stinit@?1??_Init@?$basic_filebuf@DU?$char_traits@D@std@@@std@@IEAAXPEAU_iobuf@@W4_Initfl@23@@Z@4U_Mbstatet@@A DQ 01H DUP (?) ; `std::basic_filebuf<char,std::char_traits<char> >::_Init'::`2'::_Stinit
_BSS	ENDS
;	COMDAT ?is_paused@@3_NA
_BSS	SEGMENT
?is_paused@@3_NA DB 01H DUP (?)				; is_paused
_BSS	ENDS
;	COMDAT ?_Psave@?$_Facetptr@V?$codecvt@DDU_Mbstatet@@@std@@@std@@2PEBVfacet@locale@2@EB
_BSS	SEGMENT
?_Psave@?$_Facetptr@V?$codecvt@DDU_Mbstatet@@@std@@@std@@2PEBVfacet@locale@2@EB DQ 01H DUP (?) ; std::_Facetptr<std::codecvt<char,char,_Mbstatet> >::_Psave
_BSS	ENDS
;	COMDAT ?_Psave@?$_Facetptr@V?$ctype@D@std@@@std@@2PEBVfacet@locale@2@EB
_BSS	SEGMENT
?_Psave@?$_Facetptr@V?$ctype@D@std@@@std@@2PEBVfacet@locale@2@EB DQ 01H DUP (?) ; std::_Facetptr<std::ctype<char> >::_Psave
_BSS	ENDS
;	COMDAT ??_C@_0BI@CFPLBAOH@invalid?5string?5position@
CONST	SEGMENT
??_C@_0BI@CFPLBAOH@invalid?5string?5position@ DB 'invalid string position'
	DB	00H						; `string'
CONST	ENDS
;	COMDAT ??_C@_0BA@PFOILOH@engine?5started?6@
CONST	SEGMENT
??_C@_0BA@PFOILOH@engine?5started?6@ DB 'engine started', 0aH, 00H ; `string'
CONST	ENDS
;	COMDAT ??_C@_08BKMMHKC@resumed?6@
CONST	SEGMENT
??_C@_08BKMMHKC@resumed?6@ DB 'resumed', 0aH, 00H	; `string'
CONST	ENDS
;	COMDAT ??_C@_07EHBIHMHN@paused?6@
CONST	SEGMENT
??_C@_07EHBIHMHN@paused?6@ DB 'paused', 0aH, 00H	; `string'
CONST	ENDS
;	COMDAT ??_C@_05PDJBBECF@pause@
CONST	SEGMENT
??_C@_05PDJBBECF@pause@ DB 'pause', 00H			; `string'
CONST	ENDS
;	COMDAT ??_C@_01JLIPDDHJ@?3@
CONST	SEGMENT
??_C@_01JLIPDDHJ@?3@ DB ':', 00H			; `string'
CONST	ENDS
;	COMDAT ??_C@_09CICGKMEL@games?4bin@
CONST	SEGMENT
??_C@_09CICGKMEL@games?4bin@ DB 'games.bin', 00H	; `string'
CONST	ENDS
;	COMDAT ??_C@_07EGCJMAPC@W?1D?1L?3?5@
CONST	SEGMENT
??_C@_07EGCJMAPC@W?1D?1L?3?5@ DB 'W/D/L: ', 00H		; `string'
CONST	ENDS
;	COMDAT ??_C@_06EBEDMIHD@games?5@
CONST	SEGMENT
??_C@_06EBEDMIHD@games?5@ DB 'games ', 00H		; `string'
CONST	ENDS
;	COMDAT ??_C@_04GKHLBAIJ@?4bin@
CONST	SEGMENT
??_C@_04GKHLBAIJ@?4bin@ DB '.bin', 00H			; `string'
CONST	ENDS
;	COMDAT ??_C@_0BC@OEKGJMBN@?5selfplay?5games?$CB?6@
CONST	SEGMENT
??_C@_0BC@OEKGJMBN@?5selfplay?5games?$CB?6@ DB ' selfplay games!', 0aH, 00H ; `string'
CONST	ENDS
;	COMDAT ??_C@_0BB@JOLKIMIG@evalCacheMisses?5@
CONST	SEGMENT
??_C@_0BB@JOLKIMIG@evalCacheMisses?5@ DB 'evalCacheMisses ', 00H ; `string'
CONST	ENDS
;	COMDAT ??_C@_0BE@KLAHLPMD@?5?5?5?5?5evalCacheHits?5@
CONST	SEGMENT
??_C@_0BE@KLAHLPMD@?5?5?5?5?5evalCacheHits?5@ DB '     evalCacheHits ', 00H ; `string'
CONST	ENDS
;	COMDAT ??_C@_06ELJDABGK@batch?5@
CONST	SEGMENT
??_C@_06ELJDABGK@batch?5@ DB 'batch ', 00H		; `string'
CONST	ENDS
;	COMDAT ??_C@_08MHHFDANP@?5out?5of?5@
CONST	SEGMENT
??_C@_08MHHFDANP@?5out?5of?5@ DB ' out of ', 00H	; `string'
CONST	ENDS
;	COMDAT ??_C@_04EHKALCEN@abcd@
CONST	SEGMENT
??_C@_04EHKALCEN@abcd@ DB 'abcd', 00H			; `string'
CONST	ENDS
;	COMDAT ??_C@_09BJFFGMHC@finished?5@
CONST	SEGMENT
??_C@_09BJFFGMHC@finished?5@ DB 'finished ', 00H	; `string'
CONST	ENDS
;	COMDAT ??_C@_01KMDKNFGN@?1@
CONST	SEGMENT
??_C@_01KMDKNFGN@?1@ DB '/', 00H			; `string'
CONST	ENDS
;	COMDAT ??_C@_07CPBAGGBK@?5games?6@
CONST	SEGMENT
??_C@_07CPBAGGBK@?5games?6@ DB ' games', 0aH, 00H	; `string'
CONST	ENDS
;	COMDAT ??_C@_0FI@MPCCAGOK@?5is?5not?5recognized?5as?5an?5intern@
CONST	SEGMENT
??_C@_0FI@MPCCAGOK@?5is?5not?5recognized?5as?5an?5intern@ DB ' is not rec'
	DB	'ognized as an internal or external command,', 0aH, 'operable '
	DB	'program or batch file.', 0aH, 00H		; `string'
CONST	ENDS
;	COMDAT ??_C@_09JPGCJHKH@calculate@
CONST	SEGMENT
??_C@_09JPGCJHKH@calculate@ DB 'calculate', 00H		; `string'
CONST	ENDS
;	COMDAT ??_C@_04HCCHHEEF@rate@
CONST	SEGMENT
??_C@_04HCCHHEEF@rate@ DB 'rate', 00H			; `string'
CONST	ENDS
;	COMDAT ??_C@_04KGAGIKCD@eval@
CONST	SEGMENT
??_C@_04KGAGIKCD@eval@ DB 'eval', 00H			; `string'
CONST	ENDS
;	COMDAT ??_C@_04KCCPLAND@tree@
CONST	SEGMENT
??_C@_04KCCPLAND@tree@ DB 'tree', 00H			; `string'
CONST	ENDS
;	COMDAT ??_C@_04BMFHCNCO@scan@
CONST	SEGMENT
??_C@_04BMFHCNCO@scan@ DB 'scan', 00H			; `string'
CONST	ENDS
;	COMDAT ??_C@_08OFKCLLJE@selfplay@
CONST	SEGMENT
??_C@_08OFKCLLJE@selfplay@ DB 'selfplay', 00H		; `string'
CONST	ENDS
;	COMDAT ??_C@_08HBLFHMBF@generate@
CONST	SEGMENT
??_C@_08HBLFHMBF@generate@ DB 'generate', 00H		; `string'
CONST	ENDS
;	COMDAT ??_C@_05IJDJACGD@print@
CONST	SEGMENT
??_C@_05IJDJACGD@print@ DB 'print', 00H			; `string'
CONST	ENDS
;	COMDAT ??_C@_08OAGMDKAF@position@
CONST	SEGMENT
??_C@_08OAGMDKAF@position@ DB 'position', 00H		; `string'
CONST	ENDS
;	COMDAT ??_C@_02KPEDIMCA@go@
CONST	SEGMENT
??_C@_02KPEDIMCA@go@ DB 'go', 00H			; `string'
CONST	ENDS
;	COMDAT ??_C@_07MIGMKNGI@score?3?5@
CONST	SEGMENT
??_C@_07MIGMKNGI@score?3?5@ DB 'score: ', 00H		; `string'
CONST	ENDS
;	COMDAT ??_C@_0L@JPOLAILE@bestmove?3?5@
CONST	SEGMENT
??_C@_0L@JPOLAILE@bestmove?3?5@ DB 'bestmove: ', 00H	; `string'
CONST	ENDS
;	COMDAT ??_C@_08LDBNCAAL@startpos@
CONST	SEGMENT
??_C@_08LDBNCAAL@startpos@ DB 'startpos', 00H		; `string'
CONST	ENDS
;	COMDAT ??_C@_0BI@LIIEICBE@C?3?1Users?1Anastazja?1abcd@
CONST	SEGMENT
??_C@_0BI@LIIEICBE@C?3?1Users?1Anastazja?1abcd@ DB 'C:/Users/Anastazja/ab'
	DB	'cd', 00H					; `string'
CONST	ENDS
;	COMDAT ??_C@_0BB@GCADKGJO@map?1set?5too?5long@
CONST	SEGMENT
??_C@_0BB@GCADKGJO@map?1set?5too?5long@ DB 'map/set too long', 00H ; `string'
CONST	ENDS
;	COMDAT ??_C@_08EPJLHIJG@bad?5cast@
CONST	SEGMENT
??_C@_08EPJLHIJG@bad?5cast@ DB 'bad cast', 00H		; `string'
CONST	ENDS
;	COMDAT ??_C@_00CNPNBAHC@@
CONST	SEGMENT
??_C@_00CNPNBAHC@@ DB 00H				; `string'
CONST	ENDS
;	COMDAT ??_C@_0BA@JFNIOLAK@string?5too?5long@
CONST	SEGMENT
??_C@_0BA@JFNIOLAK@string?5too?5long@ DB 'string too long', 00H ; `string'
CONST	ENDS
;	COMDAT ??_R2?$basic_ios@DU?$char_traits@D@std@@@std@@8
rdata$r	SEGMENT
??_R2?$basic_ios@DU?$char_traits@D@std@@@std@@8 DD imagerel ??_R1A@?0A@EA@?$basic_ios@DU?$char_traits@D@std@@@std@@8 ; std::basic_ios<char,std::char_traits<char> >::`RTTI Base Class Array'
	DD	imagerel ??_R1A@?0A@EA@ios_base@std@@8
	DD	imagerel ??_R17?0A@EA@?$_Iosb@H@std@@8
	ORG $+3
rdata$r	ENDS
;	COMDAT ??_R17?0A@EA@?$_Iosb@H@std@@8
rdata$r	SEGMENT
??_R17?0A@EA@?$_Iosb@H@std@@8 DD imagerel ??_R0?AV?$_Iosb@H@std@@@8 ; std::_Iosb<int>::`RTTI Base Class Descriptor at (8,-1,0,64)'
	DD	00H
	DD	08H
	DD	0ffffffffH
	DD	00H
	DD	040H
	DD	imagerel ??_R3?$_Iosb@H@std@@8
rdata$r	ENDS
;	COMDAT ??_R3?$_Iosb@H@std@@8
rdata$r	SEGMENT
??_R3?$_Iosb@H@std@@8 DD 00H				; std::_Iosb<int>::`RTTI Class Hierarchy Descriptor'
	DD	00H
	DD	01H
	DD	imagerel ??_R2?$_Iosb@H@std@@8
rdata$r	ENDS
;	COMDAT ??_R2?$basic_ifstream@DU?$char_traits@D@std@@@std@@8
rdata$r	SEGMENT
??_R2?$basic_ifstream@DU?$char_traits@D@std@@@std@@8 DD imagerel ??_R1A@?0A@EA@?$basic_ifstream@DU?$char_traits@D@std@@@std@@8 ; std::basic_ifstream<char,std::char_traits<char> >::`RTTI Base Class Array'
	DD	imagerel ??_R1A@?0A@EA@?$basic_istream@DU?$char_traits@D@std@@@std@@8
	DD	imagerel ??_R1A@A@3FA@?$basic_ios@DU?$char_traits@D@std@@@std@@8
	DD	imagerel ??_R1A@A@3EA@ios_base@std@@8
	DD	imagerel ??_R17A@3EA@?$_Iosb@H@std@@8
	ORG $+3
rdata$r	ENDS
;	COMDAT ??_R1A@?0A@EA@?$basic_ios@DU?$char_traits@D@std@@@std@@8
rdata$r	SEGMENT
??_R1A@?0A@EA@?$basic_ios@DU?$char_traits@D@std@@@std@@8 DD imagerel ??_R0?AV?$basic_ios@DU?$char_traits@D@std@@@std@@@8 ; std::basic_ios<char,std::char_traits<char> >::`RTTI Base Class Descriptor at (0,-1,0,64)'
	DD	02H
	DD	00H
	DD	0ffffffffH
	DD	00H
	DD	040H
	DD	imagerel ??_R3?$basic_ios@DU?$char_traits@D@std@@@std@@8
rdata$r	ENDS
;	COMDAT ??_R1A@A@3EA@ios_base@std@@8
rdata$r	SEGMENT
??_R1A@A@3EA@ios_base@std@@8 DD imagerel ??_R0?AVios_base@std@@@8 ; std::ios_base::`RTTI Base Class Descriptor at (0,0,4,64)'
	DD	01H
	DD	00H
	DD	00H
	DD	04H
	DD	040H
	DD	imagerel ??_R3ios_base@std@@8
rdata$r	ENDS
;	COMDAT ??_R2?$_Iosb@H@std@@8
rdata$r	SEGMENT
??_R2?$_Iosb@H@std@@8 DD imagerel ??_R1A@?0A@EA@?$_Iosb@H@std@@8 ; std::_Iosb<int>::`RTTI Base Class Array'
	ORG $+3
rdata$r	ENDS
;	COMDAT ??_7?$basic_ifstream@DU?$char_traits@D@std@@@std@@6B@
CONST	SEGMENT
??_7?$basic_ifstream@DU?$char_traits@D@std@@@std@@6B@ DQ FLAT:??_R4?$basic_ifstream@DU?$char_traits@D@std@@@std@@6B@ ; std::basic_ifstream<char,std::char_traits<char> >::`vftable'
	DQ	FLAT:??_E?$basic_ifstream@DU?$char_traits@D@std@@@std@@$4PPPPPPPM@A@EAAPEAXI@Z
CONST	ENDS
;	COMDAT ??_R3?$basic_stringstream@DU?$char_traits@D@std@@V?$allocator@D@2@@std@@8
rdata$r	SEGMENT
??_R3?$basic_stringstream@DU?$char_traits@D@std@@V?$allocator@D@2@@std@@8 DD 00H ; std::basic_stringstream<char,std::char_traits<char>,std::allocator<char> >::`RTTI Class Hierarchy Descriptor'
	DD	03H
	DD	0aH
	DD	imagerel ??_R2?$basic_stringstream@DU?$char_traits@D@std@@V?$allocator@D@2@@std@@8
rdata$r	ENDS
;	COMDAT ??_R3?$basic_streambuf@DU?$char_traits@D@std@@@std@@8
rdata$r	SEGMENT
??_R3?$basic_streambuf@DU?$char_traits@D@std@@@std@@8 DD 00H ; std::basic_streambuf<char,std::char_traits<char> >::`RTTI Class Hierarchy Descriptor'
	DD	00H
	DD	01H
	DD	imagerel ??_R2?$basic_streambuf@DU?$char_traits@D@std@@@std@@8
rdata$r	ENDS
;	COMDAT ??_R2?$basic_filebuf@DU?$char_traits@D@std@@@std@@8
rdata$r	SEGMENT
??_R2?$basic_filebuf@DU?$char_traits@D@std@@@std@@8 DD imagerel ??_R1A@?0A@EA@?$basic_filebuf@DU?$char_traits@D@std@@@std@@8 ; std::basic_filebuf<char,std::char_traits<char> >::`RTTI Base Class Array'
	DD	imagerel ??_R1A@?0A@EA@?$basic_streambuf@DU?$char_traits@D@std@@@std@@8
	ORG $+3
rdata$r	ENDS
;	COMDAT ??_R3ios_base@std@@8
rdata$r	SEGMENT
??_R3ios_base@std@@8 DD 00H				; std::ios_base::`RTTI Class Hierarchy Descriptor'
	DD	00H
	DD	02H
	DD	imagerel ??_R2ios_base@std@@8
rdata$r	ENDS
;	COMDAT ??_8?$basic_stringstream@DU?$char_traits@D@std@@V?$allocator@D@2@@std@@7B?$basic_istream@DU?$char_traits@D@std@@@1@@
CONST	SEGMENT
??_8?$basic_stringstream@DU?$char_traits@D@std@@V?$allocator@D@2@@std@@7B?$basic_istream@DU?$char_traits@D@std@@@1@@ DD 00H ; std::basic_stringstream<char,std::char_traits<char>,std::allocator<char> >::`vbtable'
	DD	098H
CONST	ENDS
;	COMDAT ??_R1A@?0A@EA@?$basic_iostream@DU?$char_traits@D@std@@@std@@8
rdata$r	SEGMENT
??_R1A@?0A@EA@?$basic_iostream@DU?$char_traits@D@std@@@std@@8 DD imagerel ??_R0?AV?$basic_iostream@DU?$char_traits@D@std@@@std@@@8 ; std::basic_iostream<char,std::char_traits<char> >::`RTTI Base Class Descriptor at (0,-1,0,64)'
	DD	08H
	DD	00H
	DD	0ffffffffH
	DD	00H
	DD	040H
	DD	imagerel ??_R3?$basic_iostream@DU?$char_traits@D@std@@@std@@8
rdata$r	ENDS
;	COMDAT ??_R3?$basic_ostream@DU?$char_traits@D@std@@@std@@8
rdata$r	SEGMENT
??_R3?$basic_ostream@DU?$char_traits@D@std@@@std@@8 DD 00H ; std::basic_ostream<char,std::char_traits<char> >::`RTTI Class Hierarchy Descriptor'
	DD	00H
	DD	04H
	DD	imagerel ??_R2?$basic_ostream@DU?$char_traits@D@std@@@std@@8
rdata$r	ENDS
;	COMDAT ??_R2ios_base@std@@8
rdata$r	SEGMENT
??_R2ios_base@std@@8 DD imagerel ??_R1A@?0A@EA@ios_base@std@@8 ; std::ios_base::`RTTI Base Class Array'
	DD	imagerel ??_R17?0A@EA@?$_Iosb@H@std@@8
	ORG $+3
rdata$r	ENDS
;	COMDAT ??_R0?AV?$basic_ostream@DU?$char_traits@D@std@@@std@@@8
data$r	SEGMENT
??_R0?AV?$basic_ostream@DU?$char_traits@D@std@@@std@@@8 DQ FLAT:??_7type_info@@6B@ ; std::basic_ostream<char,std::char_traits<char> > `RTTI Type Descriptor'
	DQ	0000000000000000H
	DB	'.?AV?$basic_ostream@DU?$char_traits@D@std@@@std@@', 00H
data$r	ENDS
;	COMDAT ??_R3?$basic_filebuf@DU?$char_traits@D@std@@@std@@8
rdata$r	SEGMENT
??_R3?$basic_filebuf@DU?$char_traits@D@std@@@std@@8 DD 00H ; std::basic_filebuf<char,std::char_traits<char> >::`RTTI Class Hierarchy Descriptor'
	DD	00H
	DD	02H
	DD	imagerel ??_R2?$basic_filebuf@DU?$char_traits@D@std@@@std@@8
rdata$r	ENDS
;	COMDAT ??_R1A@A@3FA@?$basic_ios@DU?$char_traits@D@std@@@std@@8
rdata$r	SEGMENT
??_R1A@A@3FA@?$basic_ios@DU?$char_traits@D@std@@@std@@8 DD imagerel ??_R0?AV?$basic_ios@DU?$char_traits@D@std@@@std@@@8 ; std::basic_ios<char,std::char_traits<char> >::`RTTI Base Class Descriptor at (0,0,4,80)'
	DD	02H
	DD	00H
	DD	00H
	DD	04H
	DD	050H
	DD	imagerel ??_R3?$basic_ios@DU?$char_traits@D@std@@@std@@8
rdata$r	ENDS
;	COMDAT ??_R1A@?0A@EA@?$basic_filebuf@DU?$char_traits@D@std@@@std@@8
rdata$r	SEGMENT
??_R1A@?0A@EA@?$basic_filebuf@DU?$char_traits@D@std@@@std@@8 DD imagerel ??_R0?AV?$basic_filebuf@DU?$char_traits@D@std@@@std@@@8 ; std::basic_filebuf<char,std::char_traits<char> >::`RTTI Base Class Descriptor at (0,-1,0,64)'
	DD	01H
	DD	00H
	DD	0ffffffffH
	DD	00H
	DD	040H
	DD	imagerel ??_R3?$basic_filebuf@DU?$char_traits@D@std@@@std@@8
rdata$r	ENDS
;	COMDAT ??_R1A@?0A@EA@?$basic_ofstream@DU?$char_traits@D@std@@@std@@8
rdata$r	SEGMENT
??_R1A@?0A@EA@?$basic_ofstream@DU?$char_traits@D@std@@@std@@8 DD imagerel ??_R0?AV?$basic_ofstream@DU?$char_traits@D@std@@@std@@@8 ; std::basic_ofstream<char,std::char_traits<char> >::`RTTI Base Class Descriptor at (0,-1,0,64)'
	DD	04H
	DD	00H
	DD	0ffffffffH
	DD	00H
	DD	040H
	DD	imagerel ??_R3?$basic_ofstream@DU?$char_traits@D@std@@@std@@8
rdata$r	ENDS
;	COMDAT ??_R4?$basic_stringstream@DU?$char_traits@D@std@@V?$allocator@D@2@@std@@6B@
rdata$r	SEGMENT
??_R4?$basic_stringstream@DU?$char_traits@D@std@@V?$allocator@D@2@@std@@6B@ DD 01H ; std::basic_stringstream<char,std::char_traits<char>,std::allocator<char> >::`RTTI Complete Object Locator'
	DD	098H
	DD	04H
	DD	imagerel ??_R0?AV?$basic_stringstream@DU?$char_traits@D@std@@V?$allocator@D@2@@std@@@8
	DD	imagerel ??_R3?$basic_stringstream@DU?$char_traits@D@std@@V?$allocator@D@2@@std@@8
	DD	imagerel ??_R4?$basic_stringstream@DU?$char_traits@D@std@@V?$allocator@D@2@@std@@6B@
rdata$r	ENDS
;	COMDAT ??_R4?$basic_stringbuf@DU?$char_traits@D@std@@V?$allocator@D@2@@std@@6B@
rdata$r	SEGMENT
??_R4?$basic_stringbuf@DU?$char_traits@D@std@@V?$allocator@D@2@@std@@6B@ DD 01H ; std::basic_stringbuf<char,std::char_traits<char>,std::allocator<char> >::`RTTI Complete Object Locator'
	DD	00H
	DD	00H
	DD	imagerel ??_R0?AV?$basic_stringbuf@DU?$char_traits@D@std@@V?$allocator@D@2@@std@@@8
	DD	imagerel ??_R3?$basic_stringbuf@DU?$char_traits@D@std@@V?$allocator@D@2@@std@@8
	DD	imagerel ??_R4?$basic_stringbuf@DU?$char_traits@D@std@@V?$allocator@D@2@@std@@6B@
rdata$r	ENDS
;	COMDAT _CT??_R0?AVbad_cast@std@@@8??0bad_cast@std@@QEAA@AEBV01@@Z24
xdata$x	SEGMENT
_CT??_R0?AVbad_cast@std@@@8??0bad_cast@std@@QEAA@AEBV01@@Z24 DD 00H
	DD	imagerel ??_R0?AVbad_cast@std@@@8
	DD	00H
	DD	0ffffffffH
	ORG $+4
	DD	018H
	DD	imagerel ??0bad_cast@std@@QEAA@AEBV01@@Z
xdata$x	ENDS
;	COMDAT ??_R4bad_cast@std@@6B@
rdata$r	SEGMENT
??_R4bad_cast@std@@6B@ DD 01H				; std::bad_cast::`RTTI Complete Object Locator'
	DD	00H
	DD	00H
	DD	imagerel ??_R0?AVbad_cast@std@@@8
	DD	imagerel ??_R3bad_cast@std@@8
	DD	imagerel ??_R4bad_cast@std@@6B@
rdata$r	ENDS
;	COMDAT ??_R2?$basic_stringstream@DU?$char_traits@D@std@@V?$allocator@D@2@@std@@8
rdata$r	SEGMENT
??_R2?$basic_stringstream@DU?$char_traits@D@std@@V?$allocator@D@2@@std@@8 DD imagerel ??_R1A@?0A@EA@?$basic_stringstream@DU?$char_traits@D@std@@V?$allocator@D@2@@std@@8 ; std::basic_stringstream<char,std::char_traits<char>,std::allocator<char> >::`RTTI Base Class Array'
	DD	imagerel ??_R1A@?0A@EA@?$basic_iostream@DU?$char_traits@D@std@@@std@@8
	DD	imagerel ??_R1A@?0A@EA@?$basic_istream@DU?$char_traits@D@std@@@std@@8
	DD	imagerel ??_R1A@A@3FA@?$basic_ios@DU?$char_traits@D@std@@@std@@8
	DD	imagerel ??_R1A@A@3EA@ios_base@std@@8
	DD	imagerel ??_R17A@3EA@?$_Iosb@H@std@@8
	DD	imagerel ??_R1BA@?0A@EA@?$basic_ostream@DU?$char_traits@D@std@@@std@@8
	DD	imagerel ??_R1A@A@3FA@?$basic_ios@DU?$char_traits@D@std@@@std@@8
	DD	imagerel ??_R1A@A@3EA@ios_base@std@@8
	DD	imagerel ??_R17A@3EA@?$_Iosb@H@std@@8
	ORG $+3
rdata$r	ENDS
;	COMDAT ??_R3bad_cast@std@@8
rdata$r	SEGMENT
??_R3bad_cast@std@@8 DD 00H				; std::bad_cast::`RTTI Class Hierarchy Descriptor'
	DD	00H
	DD	02H
	DD	imagerel ??_R2bad_cast@std@@8
rdata$r	ENDS
;	COMDAT ??_R2?$basic_iostream@DU?$char_traits@D@std@@@std@@8
rdata$r	SEGMENT
??_R2?$basic_iostream@DU?$char_traits@D@std@@@std@@8 DD imagerel ??_R1A@?0A@EA@?$basic_iostream@DU?$char_traits@D@std@@@std@@8 ; std::basic_iostream<char,std::char_traits<char> >::`RTTI Base Class Array'
	DD	imagerel ??_R1A@?0A@EA@?$basic_istream@DU?$char_traits@D@std@@@std@@8
	DD	imagerel ??_R1A@A@3FA@?$basic_ios@DU?$char_traits@D@std@@@std@@8
	DD	imagerel ??_R1A@A@3EA@ios_base@std@@8
	DD	imagerel ??_R17A@3EA@?$_Iosb@H@std@@8
	DD	imagerel ??_R1BA@?0A@EA@?$basic_ostream@DU?$char_traits@D@std@@@std@@8
	DD	imagerel ??_R1A@A@3FA@?$basic_ios@DU?$char_traits@D@std@@@std@@8
	DD	imagerel ??_R1A@A@3EA@ios_base@std@@8
	DD	imagerel ??_R17A@3EA@?$_Iosb@H@std@@8
	ORG $+3
rdata$r	ENDS
;	COMDAT ?piecewise_construct@std@@3Upiecewise_construct_t@1@B
CONST	SEGMENT
?piecewise_construct@std@@3Upiecewise_construct_t@1@B	ORG $+1 ; std::piecewise_construct
CONST	ENDS
;	COMDAT ??_R1A@?0A@EA@?$basic_stringbuf@DU?$char_traits@D@std@@V?$allocator@D@2@@std@@8
rdata$r	SEGMENT
??_R1A@?0A@EA@?$basic_stringbuf@DU?$char_traits@D@std@@V?$allocator@D@2@@std@@8 DD imagerel ??_R0?AV?$basic_stringbuf@DU?$char_traits@D@std@@V?$allocator@D@2@@std@@@8 ; std::basic_stringbuf<char,std::char_traits<char>,std::allocator<char> >::`RTTI Base Class Descriptor at (0,-1,0,64)'
	DD	01H
	DD	00H
	DD	0ffffffffH
	DD	00H
	DD	040H
	DD	imagerel ??_R3?$basic_stringbuf@DU?$char_traits@D@std@@V?$allocator@D@2@@std@@8
rdata$r	ENDS
;	COMDAT ??_8?$basic_ifstream@DU?$char_traits@D@std@@@std@@7B@
CONST	SEGMENT
??_8?$basic_ifstream@DU?$char_traits@D@std@@@std@@7B@ DD 00H ; std::basic_ifstream<char,std::char_traits<char> >::`vbtable'
	DD	0b0H
CONST	ENDS
;	COMDAT ??_R1A@?0A@EA@?$_Iosb@H@std@@8
rdata$r	SEGMENT
??_R1A@?0A@EA@?$_Iosb@H@std@@8 DD imagerel ??_R0?AV?$_Iosb@H@std@@@8 ; std::_Iosb<int>::`RTTI Base Class Descriptor at (0,-1,0,64)'
	DD	00H
	DD	00H
	DD	0ffffffffH
	DD	00H
	DD	040H
	DD	imagerel ??_R3?$_Iosb@H@std@@8
rdata$r	ENDS
;	COMDAT ??_R2?$basic_streambuf@DU?$char_traits@D@std@@@std@@8
rdata$r	SEGMENT
??_R2?$basic_streambuf@DU?$char_traits@D@std@@@std@@8 DD imagerel ??_R1A@?0A@EA@?$basic_streambuf@DU?$char_traits@D@std@@@std@@8 ; std::basic_streambuf<char,std::char_traits<char> >::`RTTI Base Class Array'
	ORG $+3
rdata$r	ENDS
;	COMDAT ??_7?$basic_stringstream@DU?$char_traits@D@std@@V?$allocator@D@2@@std@@6B@
CONST	SEGMENT
??_7?$basic_stringstream@DU?$char_traits@D@std@@V?$allocator@D@2@@std@@6B@ DQ FLAT:??_R4?$basic_stringstream@DU?$char_traits@D@std@@V?$allocator@D@2@@std@@6B@ ; std::basic_stringstream<char,std::char_traits<char>,std::allocator<char> >::`vftable'
	DQ	FLAT:??_E?$basic_stringstream@DU?$char_traits@D@std@@V?$allocator@D@2@@std@@$4PPPPPPPM@A@EAAPEAXI@Z
CONST	ENDS
;	COMDAT ??_R0?AV?$basic_ios@DU?$char_traits@D@std@@@std@@@8
data$r	SEGMENT
??_R0?AV?$basic_ios@DU?$char_traits@D@std@@@std@@@8 DQ FLAT:??_7type_info@@6B@ ; std::basic_ios<char,std::char_traits<char> > `RTTI Type Descriptor'
	DQ	0000000000000000H
	DB	'.?AV?$basic_ios@DU?$char_traits@D@std@@@std@@', 00H
data$r	ENDS
;	COMDAT ??_R4?$basic_filebuf@DU?$char_traits@D@std@@@std@@6B@
rdata$r	SEGMENT
??_R4?$basic_filebuf@DU?$char_traits@D@std@@@std@@6B@ DD 01H ; std::basic_filebuf<char,std::char_traits<char> >::`RTTI Complete Object Locator'
	DD	00H
	DD	00H
	DD	imagerel ??_R0?AV?$basic_filebuf@DU?$char_traits@D@std@@@std@@@8
	DD	imagerel ??_R3?$basic_filebuf@DU?$char_traits@D@std@@@std@@8
	DD	imagerel ??_R4?$basic_filebuf@DU?$char_traits@D@std@@@std@@6B@
rdata$r	ENDS
;	COMDAT ??_R1A@?0A@EA@?$basic_ostream@DU?$char_traits@D@std@@@std@@8
rdata$r	SEGMENT
??_R1A@?0A@EA@?$basic_ostream@DU?$char_traits@D@std@@@std@@8 DD imagerel ??_R0?AV?$basic_ostream@DU?$char_traits@D@std@@@std@@@8 ; std::basic_ostream<char,std::char_traits<char> >::`RTTI Base Class Descriptor at (0,-1,0,64)'
	DD	03H
	DD	00H
	DD	0ffffffffH
	DD	00H
	DD	040H
	DD	imagerel ??_R3?$basic_ostream@DU?$char_traits@D@std@@@std@@8
rdata$r	ENDS
;	COMDAT ??_R1A@?0A@EA@ios_base@std@@8
rdata$r	SEGMENT
??_R1A@?0A@EA@ios_base@std@@8 DD imagerel ??_R0?AVios_base@std@@@8 ; std::ios_base::`RTTI Base Class Descriptor at (0,-1,0,64)'
	DD	01H
	DD	00H
	DD	0ffffffffH
	DD	00H
	DD	040H
	DD	imagerel ??_R3ios_base@std@@8
rdata$r	ENDS
;	COMDAT ??_R4?$basic_ifstream@DU?$char_traits@D@std@@@std@@6B@
rdata$r	SEGMENT
??_R4?$basic_ifstream@DU?$char_traits@D@std@@@std@@6B@ DD 01H ; std::basic_ifstream<char,std::char_traits<char> >::`RTTI Complete Object Locator'
	DD	0b0H
	DD	04H
	DD	imagerel ??_R0?AV?$basic_ifstream@DU?$char_traits@D@std@@@std@@@8
	DD	imagerel ??_R3?$basic_ifstream@DU?$char_traits@D@std@@@std@@8
	DD	imagerel ??_R4?$basic_ifstream@DU?$char_traits@D@std@@@std@@6B@
rdata$r	ENDS
;	COMDAT ??_R0?AV?$basic_istream@DU?$char_traits@D@std@@@std@@@8
data$r	SEGMENT
??_R0?AV?$basic_istream@DU?$char_traits@D@std@@@std@@@8 DQ FLAT:??_7type_info@@6B@ ; std::basic_istream<char,std::char_traits<char> > `RTTI Type Descriptor'
	DQ	0000000000000000H
	DB	'.?AV?$basic_istream@DU?$char_traits@D@std@@@std@@', 00H
data$r	ENDS
;	COMDAT ??_R1BA@?0A@EA@?$basic_ostream@DU?$char_traits@D@std@@@std@@8
rdata$r	SEGMENT
??_R1BA@?0A@EA@?$basic_ostream@DU?$char_traits@D@std@@@std@@8 DD imagerel ??_R0?AV?$basic_ostream@DU?$char_traits@D@std@@@std@@@8 ; std::basic_ostream<char,std::char_traits<char> >::`RTTI Base Class Descriptor at (16,-1,0,64)'
	DD	03H
	DD	010H
	DD	0ffffffffH
	DD	00H
	DD	040H
	DD	imagerel ??_R3?$basic_ostream@DU?$char_traits@D@std@@@std@@8
rdata$r	ENDS
;	COMDAT ??_7?$basic_stringbuf@DU?$char_traits@D@std@@V?$allocator@D@2@@std@@6B@
CONST	SEGMENT
??_7?$basic_stringbuf@DU?$char_traits@D@std@@V?$allocator@D@2@@std@@6B@ DQ FLAT:??_R4?$basic_stringbuf@DU?$char_traits@D@std@@V?$allocator@D@2@@std@@6B@ ; std::basic_stringbuf<char,std::char_traits<char>,std::allocator<char> >::`vftable'
	DQ	FLAT:??_E?$basic_stringbuf@DU?$char_traits@D@std@@V?$allocator@D@2@@std@@UEAAPEAXI@Z
	DQ	FLAT:?_Lock@?$basic_streambuf@DU?$char_traits@D@std@@@std@@UEAAXXZ
	DQ	FLAT:?_Unlock@?$basic_streambuf@DU?$char_traits@D@std@@@std@@UEAAXXZ
	DQ	FLAT:?overflow@?$basic_stringbuf@DU?$char_traits@D@std@@V?$allocator@D@2@@std@@MEAAHH@Z
	DQ	FLAT:?pbackfail@?$basic_stringbuf@DU?$char_traits@D@std@@V?$allocator@D@2@@std@@MEAAHH@Z
	DQ	FLAT:?showmanyc@?$basic_streambuf@DU?$char_traits@D@std@@@std@@MEAA_JXZ
	DQ	FLAT:?underflow@?$basic_stringbuf@DU?$char_traits@D@std@@V?$allocator@D@2@@std@@MEAAHXZ
	DQ	FLAT:?uflow@?$basic_streambuf@DU?$char_traits@D@std@@@std@@MEAAHXZ
	DQ	FLAT:?xsgetn@?$basic_streambuf@DU?$char_traits@D@std@@@std@@MEAA_JPEAD_J@Z
	DQ	FLAT:?xsputn@?$basic_streambuf@DU?$char_traits@D@std@@@std@@MEAA_JPEBD_J@Z
	DQ	FLAT:?seekoff@?$basic_stringbuf@DU?$char_traits@D@std@@V?$allocator@D@2@@std@@MEAA?AV?$fpos@U_Mbstatet@@@2@_JHH@Z
	DQ	FLAT:?seekpos@?$basic_stringbuf@DU?$char_traits@D@std@@V?$allocator@D@2@@std@@MEAA?AV?$fpos@U_Mbstatet@@@2@V32@H@Z
	DQ	FLAT:?setbuf@?$basic_streambuf@DU?$char_traits@D@std@@@std@@MEAAPEAV12@PEAD_J@Z
	DQ	FLAT:?sync@?$basic_streambuf@DU?$char_traits@D@std@@@std@@MEAAHXZ
	DQ	FLAT:?imbue@?$basic_streambuf@DU?$char_traits@D@std@@@std@@MEAAXAEBVlocale@2@@Z
CONST	ENDS
;	COMDAT _TI2?AVbad_cast@std@@
xdata$x	SEGMENT
_TI2?AVbad_cast@std@@ DD 00H
	DD	imagerel ??1bad_cast@std@@UEAA@XZ
	DD	00H
	DD	imagerel _CTA2?AVbad_cast@std@@
xdata$x	ENDS
;	COMDAT ??_R0?AVbad_cast@std@@@8
data$r	SEGMENT
??_R0?AVbad_cast@std@@@8 DQ FLAT:??_7type_info@@6B@	; std::bad_cast `RTTI Type Descriptor'
	DQ	0000000000000000H
	DB	'.?AVbad_cast@std@@', 00H
data$r	ENDS
;	COMDAT ??_8?$basic_ofstream@DU?$char_traits@D@std@@@std@@7B@
CONST	SEGMENT
??_8?$basic_ofstream@DU?$char_traits@D@std@@@std@@7B@ DD 00H ; std::basic_ofstream<char,std::char_traits<char> >::`vbtable'
	DD	0a8H
CONST	ENDS
;	COMDAT ??_R3?$basic_ios@DU?$char_traits@D@std@@@std@@8
rdata$r	SEGMENT
??_R3?$basic_ios@DU?$char_traits@D@std@@@std@@8 DD 00H	; std::basic_ios<char,std::char_traits<char> >::`RTTI Class Hierarchy Descriptor'
	DD	00H
	DD	03H
	DD	imagerel ??_R2?$basic_ios@DU?$char_traits@D@std@@@std@@8
rdata$r	ENDS
;	COMDAT ??_7bad_cast@std@@6B@
CONST	SEGMENT
??_7bad_cast@std@@6B@ DQ FLAT:??_R4bad_cast@std@@6B@	; std::bad_cast::`vftable'
	DQ	FLAT:??_Ebad_cast@std@@UEAAPEAXI@Z
	DQ	FLAT:?what@exception@std@@UEBAPEBDXZ
CONST	ENDS
;	COMDAT ??_R2?$basic_ostream@DU?$char_traits@D@std@@@std@@8
rdata$r	SEGMENT
??_R2?$basic_ostream@DU?$char_traits@D@std@@@std@@8 DD imagerel ??_R1A@?0A@EA@?$basic_ostream@DU?$char_traits@D@std@@@std@@8 ; std::basic_ostream<char,std::char_traits<char> >::`RTTI Base Class Array'
	DD	imagerel ??_R1A@A@3FA@?$basic_ios@DU?$char_traits@D@std@@@std@@8
	DD	imagerel ??_R1A@A@3EA@ios_base@std@@8
	DD	imagerel ??_R17A@3EA@?$_Iosb@H@std@@8
	ORG $+3
rdata$r	ENDS
;	COMDAT ??_R2bad_cast@std@@8
rdata$r	SEGMENT
??_R2bad_cast@std@@8 DD imagerel ??_R1A@?0A@EA@bad_cast@std@@8 ; std::bad_cast::`RTTI Base Class Array'
	DD	imagerel ??_R1A@?0A@EA@exception@std@@8
	ORG $+3
rdata$r	ENDS
;	COMDAT ??_R3?$basic_stringbuf@DU?$char_traits@D@std@@V?$allocator@D@2@@std@@8
rdata$r	SEGMENT
??_R3?$basic_stringbuf@DU?$char_traits@D@std@@V?$allocator@D@2@@std@@8 DD 00H ; std::basic_stringbuf<char,std::char_traits<char>,std::allocator<char> >::`RTTI Class Hierarchy Descriptor'
	DD	00H
	DD	02H
	DD	imagerel ??_R2?$basic_stringbuf@DU?$char_traits@D@std@@V?$allocator@D@2@@std@@8
rdata$r	ENDS
;	COMDAT ??_R0?AV?$basic_streambuf@DU?$char_traits@D@std@@@std@@@8
data$r	SEGMENT
??_R0?AV?$basic_streambuf@DU?$char_traits@D@std@@@std@@@8 DQ FLAT:??_7type_info@@6B@ ; std::basic_streambuf<char,std::char_traits<char> > `RTTI Type Descriptor'
	DQ	0000000000000000H
	DB	'.?AV?$basic_streambuf@DU?$char_traits@D@std@@@std@@', 00H
data$r	ENDS
;	COMDAT ??_R0?AV?$basic_ofstream@DU?$char_traits@D@std@@@std@@@8
data$r	SEGMENT
??_R0?AV?$basic_ofstream@DU?$char_traits@D@std@@@std@@@8 DQ FLAT:??_7type_info@@6B@ ; std::basic_ofstream<char,std::char_traits<char> > `RTTI Type Descriptor'
	DQ	0000000000000000H
	DB	'.?AV?$basic_ofstream@DU?$char_traits@D@std@@@std@@', 00H
data$r	ENDS
;	COMDAT _CTA2?AVbad_cast@std@@
xdata$x	SEGMENT
_CTA2?AVbad_cast@std@@ DD 02H
	DD	imagerel _CT??_R0?AVbad_cast@std@@@8??0bad_cast@std@@QEAA@AEBV01@@Z24
	DD	imagerel _CT??_R0?AVexception@std@@@8??0exception@std@@QEAA@AEBV01@@Z24
xdata$x	ENDS
;	COMDAT ??_7?$basic_ofstream@DU?$char_traits@D@std@@@std@@6B@
CONST	SEGMENT
??_7?$basic_ofstream@DU?$char_traits@D@std@@@std@@6B@ DQ FLAT:??_R4?$basic_ofstream@DU?$char_traits@D@std@@@std@@6B@ ; std::basic_ofstream<char,std::char_traits<char> >::`vftable'
	DQ	FLAT:??_E?$basic_ofstream@DU?$char_traits@D@std@@@std@@$4PPPPPPPM@A@EAAPEAXI@Z
CONST	ENDS
;	COMDAT ??_R0?AV?$_Iosb@H@std@@@8
data$r	SEGMENT
??_R0?AV?$_Iosb@H@std@@@8 DQ FLAT:??_7type_info@@6B@	; std::_Iosb<int> `RTTI Type Descriptor'
	DQ	0000000000000000H
	DB	'.?AV?$_Iosb@H@std@@', 00H
data$r	ENDS
;	COMDAT ??_R2?$basic_istream@DU?$char_traits@D@std@@@std@@8
rdata$r	SEGMENT
??_R2?$basic_istream@DU?$char_traits@D@std@@@std@@8 DD imagerel ??_R1A@?0A@EA@?$basic_istream@DU?$char_traits@D@std@@@std@@8 ; std::basic_istream<char,std::char_traits<char> >::`RTTI Base Class Array'
	DD	imagerel ??_R1A@A@3FA@?$basic_ios@DU?$char_traits@D@std@@@std@@8
	DD	imagerel ??_R1A@A@3EA@ios_base@std@@8
	DD	imagerel ??_R17A@3EA@?$_Iosb@H@std@@8
	ORG $+3
rdata$r	ENDS
;	COMDAT ??_8?$basic_stringstream@DU?$char_traits@D@std@@V?$allocator@D@2@@std@@7B?$basic_ostream@DU?$char_traits@D@std@@@1@@
CONST	SEGMENT
??_8?$basic_stringstream@DU?$char_traits@D@std@@V?$allocator@D@2@@std@@7B?$basic_ostream@DU?$char_traits@D@std@@@1@@ DD 00H ; std::basic_stringstream<char,std::char_traits<char>,std::allocator<char> >::`vbtable'
	DD	088H
CONST	ENDS
;	COMDAT ??_7?$basic_filebuf@DU?$char_traits@D@std@@@std@@6B@
CONST	SEGMENT
??_7?$basic_filebuf@DU?$char_traits@D@std@@@std@@6B@ DQ FLAT:??_R4?$basic_filebuf@DU?$char_traits@D@std@@@std@@6B@ ; std::basic_filebuf<char,std::char_traits<char> >::`vftable'
	DQ	FLAT:??_E?$basic_filebuf@DU?$char_traits@D@std@@@std@@UEAAPEAXI@Z
	DQ	FLAT:?_Lock@?$basic_filebuf@DU?$char_traits@D@std@@@std@@UEAAXXZ
	DQ	FLAT:?_Unlock@?$basic_filebuf@DU?$char_traits@D@std@@@std@@UEAAXXZ
	DQ	FLAT:?overflow@?$basic_filebuf@DU?$char_traits@D@std@@@std@@MEAAHH@Z
	DQ	FLAT:?pbackfail@?$basic_filebuf@DU?$char_traits@D@std@@@std@@MEAAHH@Z
	DQ	FLAT:?showmanyc@?$basic_streambuf@DU?$char_traits@D@std@@@std@@MEAA_JXZ
	DQ	FLAT:?underflow@?$basic_filebuf@DU?$char_traits@D@std@@@std@@MEAAHXZ
	DQ	FLAT:?uflow@?$basic_filebuf@DU?$char_traits@D@std@@@std@@MEAAHXZ
	DQ	FLAT:?xsgetn@?$basic_filebuf@DU?$char_traits@D@std@@@std@@MEAA_JPEAD_J@Z
	DQ	FLAT:?xsputn@?$basic_filebuf@DU?$char_traits@D@std@@@std@@MEAA_JPEBD_J@Z
	DQ	FLAT:?seekoff@?$basic_filebuf@DU?$char_traits@D@std@@@std@@MEAA?AV?$fpos@U_Mbstatet@@@2@_JHH@Z
	DQ	FLAT:?seekpos@?$basic_filebuf@DU?$char_traits@D@std@@@std@@MEAA?AV?$fpos@U_Mbstatet@@@2@V32@H@Z
	DQ	FLAT:?setbuf@?$basic_filebuf@DU?$char_traits@D@std@@@std@@MEAAPEAV?$basic_streambuf@DU?$char_traits@D@std@@@2@PEAD_J@Z
	DQ	FLAT:?sync@?$basic_filebuf@DU?$char_traits@D@std@@@std@@MEAAHXZ
	DQ	FLAT:?imbue@?$basic_filebuf@DU?$char_traits@D@std@@@std@@MEAAXAEBVlocale@2@@Z
CONST	ENDS
;	COMDAT ??_R1A@?0A@EA@?$basic_streambuf@DU?$char_traits@D@std@@@std@@8
rdata$r	SEGMENT
??_R1A@?0A@EA@?$basic_streambuf@DU?$char_traits@D@std@@@std@@8 DD imagerel ??_R0?AV?$basic_streambuf@DU?$char_traits@D@std@@@std@@@8 ; std::basic_streambuf<char,std::char_traits<char> >::`RTTI Base Class Descriptor at (0,-1,0,64)'
	DD	00H
	DD	00H
	DD	0ffffffffH
	DD	00H
	DD	040H
	DD	imagerel ??_R3?$basic_streambuf@DU?$char_traits@D@std@@@std@@8
rdata$r	ENDS
;	COMDAT ??_R2?$basic_ofstream@DU?$char_traits@D@std@@@std@@8
rdata$r	SEGMENT
??_R2?$basic_ofstream@DU?$char_traits@D@std@@@std@@8 DD imagerel ??_R1A@?0A@EA@?$basic_ofstream@DU?$char_traits@D@std@@@std@@8 ; std::basic_ofstream<char,std::char_traits<char> >::`RTTI Base Class Array'
	DD	imagerel ??_R1A@?0A@EA@?$basic_ostream@DU?$char_traits@D@std@@@std@@8
	DD	imagerel ??_R1A@A@3FA@?$basic_ios@DU?$char_traits@D@std@@@std@@8
	DD	imagerel ??_R1A@A@3EA@ios_base@std@@8
	DD	imagerel ??_R17A@3EA@?$_Iosb@H@std@@8
	ORG $+3
rdata$r	ENDS
;	COMDAT ??_R1A@?0A@EA@?$basic_stringstream@DU?$char_traits@D@std@@V?$allocator@D@2@@std@@8
rdata$r	SEGMENT
??_R1A@?0A@EA@?$basic_stringstream@DU?$char_traits@D@std@@V?$allocator@D@2@@std@@8 DD imagerel ??_R0?AV?$basic_stringstream@DU?$char_traits@D@std@@V?$allocator@D@2@@std@@@8 ; std::basic_stringstream<char,std::char_traits<char>,std::allocator<char> >::`RTTI Base Class Descriptor at (0,-1,0,64)'
	DD	09H
	DD	00H
	DD	0ffffffffH
	DD	00H
	DD	040H
	DD	imagerel ??_R3?$basic_stringstream@DU?$char_traits@D@std@@V?$allocator@D@2@@std@@8
rdata$r	ENDS
;	COMDAT ??_R17A@3EA@?$_Iosb@H@std@@8
rdata$r	SEGMENT
??_R17A@3EA@?$_Iosb@H@std@@8 DD imagerel ??_R0?AV?$_Iosb@H@std@@@8 ; std::_Iosb<int>::`RTTI Base Class Descriptor at (8,0,4,64)'
	DD	00H
	DD	08H
	DD	00H
	DD	04H
	DD	040H
	DD	imagerel ??_R3?$_Iosb@H@std@@8
rdata$r	ENDS
;	COMDAT ??_R0?AV?$basic_iostream@DU?$char_traits@D@std@@@std@@@8
data$r	SEGMENT
??_R0?AV?$basic_iostream@DU?$char_traits@D@std@@@std@@@8 DQ FLAT:??_7type_info@@6B@ ; std::basic_iostream<char,std::char_traits<char> > `RTTI Type Descriptor'
	DQ	0000000000000000H
	DB	'.?AV?$basic_iostream@DU?$char_traits@D@std@@@std@@', 00H
data$r	ENDS
;	COMDAT ??_R1A@?0A@EA@?$basic_ifstream@DU?$char_traits@D@std@@@std@@8
rdata$r	SEGMENT
??_R1A@?0A@EA@?$basic_ifstream@DU?$char_traits@D@std@@@std@@8 DD imagerel ??_R0?AV?$basic_ifstream@DU?$char_traits@D@std@@@std@@@8 ; std::basic_ifstream<char,std::char_traits<char> >::`RTTI Base Class Descriptor at (0,-1,0,64)'
	DD	04H
	DD	00H
	DD	0ffffffffH
	DD	00H
	DD	040H
	DD	imagerel ??_R3?$basic_ifstream@DU?$char_traits@D@std@@@std@@8
rdata$r	ENDS
;	COMDAT ??_R2?$basic_stringbuf@DU?$char_traits@D@std@@V?$allocator@D@2@@std@@8
rdata$r	SEGMENT
??_R2?$basic_stringbuf@DU?$char_traits@D@std@@V?$allocator@D@2@@std@@8 DD imagerel ??_R1A@?0A@EA@?$basic_stringbuf@DU?$char_traits@D@std@@V?$allocator@D@2@@std@@8 ; std::basic_stringbuf<char,std::char_traits<char>,std::allocator<char> >::`RTTI Base Class Array'
	DD	imagerel ??_R1A@?0A@EA@?$basic_streambuf@DU?$char_traits@D@std@@@std@@8
	ORG $+3
rdata$r	ENDS
;	COMDAT ??_R0?AVios_base@std@@@8
data$r	SEGMENT
??_R0?AVios_base@std@@@8 DQ FLAT:??_7type_info@@6B@	; std::ios_base `RTTI Type Descriptor'
	DQ	0000000000000000H
	DB	'.?AVios_base@std@@', 00H
data$r	ENDS
;	COMDAT ??_R0?AV?$basic_stringbuf@DU?$char_traits@D@std@@V?$allocator@D@2@@std@@@8
data$r	SEGMENT
??_R0?AV?$basic_stringbuf@DU?$char_traits@D@std@@V?$allocator@D@2@@std@@@8 DQ FLAT:??_7type_info@@6B@ ; std::basic_stringbuf<char,std::char_traits<char>,std::allocator<char> > `RTTI Type Descriptor'
	DQ	0000000000000000H
	DB	'.?AV?$basic_stringbuf@DU?$char_traits@D@std@@V?$allocato'
	DB	'r@D@2@@std@@', 00H
data$r	ENDS
;	COMDAT ??_R3?$basic_ifstream@DU?$char_traits@D@std@@@std@@8
rdata$r	SEGMENT
??_R3?$basic_ifstream@DU?$char_traits@D@std@@@std@@8 DD 00H ; std::basic_ifstream<char,std::char_traits<char> >::`RTTI Class Hierarchy Descriptor'
	DD	00H
	DD	05H
	DD	imagerel ??_R2?$basic_ifstream@DU?$char_traits@D@std@@@std@@8
rdata$r	ENDS
;	COMDAT ??_R1A@?0A@EA@bad_cast@std@@8
rdata$r	SEGMENT
??_R1A@?0A@EA@bad_cast@std@@8 DD imagerel ??_R0?AVbad_cast@std@@@8 ; std::bad_cast::`RTTI Base Class Descriptor at (0,-1,0,64)'
	DD	01H
	DD	00H
	DD	0ffffffffH
	DD	00H
	DD	040H
	DD	imagerel ??_R3bad_cast@std@@8
rdata$r	ENDS
;	COMDAT ??_R0?AV?$basic_ifstream@DU?$char_traits@D@std@@@std@@@8
data$r	SEGMENT
??_R0?AV?$basic_ifstream@DU?$char_traits@D@std@@@std@@@8 DQ FLAT:??_7type_info@@6B@ ; std::basic_ifstream<char,std::char_traits<char> > `RTTI Type Descriptor'
	DQ	0000000000000000H
	DB	'.?AV?$basic_ifstream@DU?$char_traits@D@std@@@std@@', 00H
data$r	ENDS
;	COMDAT ??_R1A@?0A@EA@?$basic_istream@DU?$char_traits@D@std@@@std@@8
rdata$r	SEGMENT
??_R1A@?0A@EA@?$basic_istream@DU?$char_traits@D@std@@@std@@8 DD imagerel ??_R0?AV?$basic_istream@DU?$char_traits@D@std@@@std@@@8 ; std::basic_istream<char,std::char_traits<char> >::`RTTI Base Class Descriptor at (0,-1,0,64)'
	DD	03H
	DD	00H
	DD	0ffffffffH
	DD	00H
	DD	040H
	DD	imagerel ??_R3?$basic_istream@DU?$char_traits@D@std@@@std@@8
rdata$r	ENDS
;	COMDAT ??_R3?$basic_ofstream@DU?$char_traits@D@std@@@std@@8
rdata$r	SEGMENT
??_R3?$basic_ofstream@DU?$char_traits@D@std@@@std@@8 DD 00H ; std::basic_ofstream<char,std::char_traits<char> >::`RTTI Class Hierarchy Descriptor'
	DD	00H
	DD	05H
	DD	imagerel ??_R2?$basic_ofstream@DU?$char_traits@D@std@@@std@@8
rdata$r	ENDS
;	COMDAT ??_R4?$basic_ofstream@DU?$char_traits@D@std@@@std@@6B@
rdata$r	SEGMENT
??_R4?$basic_ofstream@DU?$char_traits@D@std@@@std@@6B@ DD 01H ; std::basic_ofstream<char,std::char_traits<char> >::`RTTI Complete Object Locator'
	DD	0a8H
	DD	04H
	DD	imagerel ??_R0?AV?$basic_ofstream@DU?$char_traits@D@std@@@std@@@8
	DD	imagerel ??_R3?$basic_ofstream@DU?$char_traits@D@std@@@std@@8
	DD	imagerel ??_R4?$basic_ofstream@DU?$char_traits@D@std@@@std@@6B@
rdata$r	ENDS
;	COMDAT ??_R0?AV?$basic_filebuf@DU?$char_traits@D@std@@@std@@@8
data$r	SEGMENT
??_R0?AV?$basic_filebuf@DU?$char_traits@D@std@@@std@@@8 DQ FLAT:??_7type_info@@6B@ ; std::basic_filebuf<char,std::char_traits<char> > `RTTI Type Descriptor'
	DQ	0000000000000000H
	DB	'.?AV?$basic_filebuf@DU?$char_traits@D@std@@@std@@', 00H
data$r	ENDS
;	COMDAT ??_R0?AV?$basic_stringstream@DU?$char_traits@D@std@@V?$allocator@D@2@@std@@@8
data$r	SEGMENT
??_R0?AV?$basic_stringstream@DU?$char_traits@D@std@@V?$allocator@D@2@@std@@@8 DQ FLAT:??_7type_info@@6B@ ; std::basic_stringstream<char,std::char_traits<char>,std::allocator<char> > `RTTI Type Descriptor'
	DQ	0000000000000000H
	DB	'.?AV?$basic_stringstream@DU?$char_traits@D@std@@V?$alloc'
	DB	'ator@D@2@@std@@', 00H
data$r	ENDS
;	COMDAT ??_R3?$basic_iostream@DU?$char_traits@D@std@@@std@@8
rdata$r	SEGMENT
??_R3?$basic_iostream@DU?$char_traits@D@std@@@std@@8 DD 00H ; std::basic_iostream<char,std::char_traits<char> >::`RTTI Class Hierarchy Descriptor'
	DD	03H
	DD	09H
	DD	imagerel ??_R2?$basic_iostream@DU?$char_traits@D@std@@@std@@8
rdata$r	ENDS
;	COMDAT ??_R3?$basic_istream@DU?$char_traits@D@std@@@std@@8
rdata$r	SEGMENT
??_R3?$basic_istream@DU?$char_traits@D@std@@@std@@8 DD 00H ; std::basic_istream<char,std::char_traits<char> >::`RTTI Class Hierarchy Descriptor'
	DD	00H
	DD	04H
	DD	imagerel ??_R2?$basic_istream@DU?$char_traits@D@std@@@std@@8
PUBLIC	??_E?$basic_ofstream@DU?$char_traits@D@std@@@std@@$4PPPPPPPM@A@EAAPEAXI@Z ; std::basic_ofstream<char,std::char_traits<char> >::`vector deleting destructor'
PUBLIC	??_E?$basic_ifstream@DU?$char_traits@D@std@@@std@@$4PPPPPPPM@A@EAAPEAXI@Z ; std::basic_ifstream<char,std::char_traits<char> >::`vector deleting destructor'
PUBLIC	??_E?$basic_stringstream@DU?$char_traits@D@std@@V?$allocator@D@2@@std@@$4PPPPPPPM@A@EAAPEAXI@Z ; std::basic_stringstream<char,std::char_traits<char>,std::allocator<char> >::`vector deleting destructor'
PUBLIC	??$?0V?$reference_wrapper@VNN@@@std@@@?$_Tuple_val@V?$reference_wrapper@VNN@@@std@@@std@@QEAA@$$QEAV?$reference_wrapper@VNN@@@1@@Z ; std::_Tuple_val<std::reference_wrapper<NN> >::_Tuple_val<std::reference_wrapper<NN> ><std::reference_wrapper<NN> >
PUBLIC	??$?0V?$reference_wrapper@H@std@@@?$_Tuple_val@V?$reference_wrapper@H@std@@@std@@QEAA@$$QEAV?$reference_wrapper@H@1@@Z ; std::_Tuple_val<std::reference_wrapper<int> >::_Tuple_val<std::reference_wrapper<int> ><std::reference_wrapper<int> >
PUBLIC	??$?0U_Exact_args_t@std@@V?$reference_wrapper@VNN@@@1@$$V$0A@@?$tuple@V?$reference_wrapper@VNN@@@std@@@std@@QEAA@U_Exact_args_t@1@$$QEAV?$reference_wrapper@VNN@@@1@@Z ; std::tuple<std::reference_wrapper<NN> >::tuple<std::reference_wrapper<NN> ><std::_Exact_args_t,std::reference_wrapper<NN>,0>
PUBLIC	?outerStride@?$plainobjectbase_evaluator_data@M$0CFI@@internal@Eigen@@QEBA_JXZ ; Eigen::internal::plainobjectbase_evaluator_data<float,600>::outerStride
PUBLIC	?outerStride@?$plainobjectbase_evaluator_data@M$01@internal@Eigen@@QEBA_JXZ ; Eigen::internal::plainobjectbase_evaluator_data<float,2>::outerStride
PUBLIC	?outerStride@?$plainobjectbase_evaluator_data@M$03@internal@Eigen@@QEBA_JXZ ; Eigen::internal::plainobjectbase_evaluator_data<float,4>::outerStride
PUBLIC	??$writePacket@$0BA@T__m128@@@?$evaluator@V?$PlainObjectBase@V?$Matrix@M$01$01$0A@$01$01@Eigen@@@Eigen@@@internal@Eigen@@QEAAX_J0AEBT__m128@@@Z ; Eigen::internal::evaluator<Eigen::PlainObjectBase<Eigen::Matrix<float,2,2,0,2,2> > >::writePacket<16,__m128>
PUBLIC	??$packet@$0BA@T__m128@@@?$evaluator@V?$PlainObjectBase@V?$Matrix@M$01$01$0A@$01$01@Eigen@@@Eigen@@@internal@Eigen@@QEBA?AT__m128@@_J0@Z ; Eigen::internal::evaluator<Eigen::PlainObjectBase<Eigen::Matrix<float,2,2,0,2,2> > >::packet<16,__m128>
PUBLIC	??$writePacket@$0BA@T__m128@@@?$evaluator@V?$PlainObjectBase@V?$Matrix@M$03$0FNM@$0A@$03$0FNM@@Eigen@@@Eigen@@@internal@Eigen@@QEAAX_J0AEBT__m128@@@Z ; Eigen::internal::evaluator<Eigen::PlainObjectBase<Eigen::Matrix<float,4,1500,0,4,1500> > >::writePacket<16,__m128>
PUBLIC	??$packet@$0BA@T__m128@@@?$evaluator@V?$PlainObjectBase@V?$Matrix@M$03$0FNM@$0A@$03$0FNM@@Eigen@@@Eigen@@@internal@Eigen@@QEBA?AT__m128@@_J0@Z ; Eigen::internal::evaluator<Eigen::PlainObjectBase<Eigen::Matrix<float,4,1500,0,4,1500> > >::packet<16,__m128>
PUBLIC	??$writePacket@$0BA@T__m128@@@?$evaluator@V?$PlainObjectBase@V?$Matrix@M$0CFI@$0CFI@$0A@$0CFI@$0CFI@@Eigen@@@Eigen@@@internal@Eigen@@QEAAX_J0AEBT__m128@@@Z ; Eigen::internal::evaluator<Eigen::PlainObjectBase<Eigen::Matrix<float,600,600,0,600,600> > >::writePacket<16,__m128>
PUBLIC	??$packet@$0BA@T__m128@@@?$evaluator@V?$PlainObjectBase@V?$Matrix@M$0CFI@$0CFI@$0A@$0CFI@$0CFI@@Eigen@@@Eigen@@@internal@Eigen@@QEBA?AT__m128@@_J0@Z ; Eigen::internal::evaluator<Eigen::PlainObjectBase<Eigen::Matrix<float,600,600,0,600,600> > >::packet<16,__m128>
PUBLIC	??$writePacket@$0BA@T__m128@@@?$evaluator@V?$PlainObjectBase@V?$Matrix@M$0CFI@$00$0A@$0CFI@$00@Eigen@@@Eigen@@@internal@Eigen@@QEAAX_J0AEBT__m128@@@Z ; Eigen::internal::evaluator<Eigen::PlainObjectBase<Eigen::Matrix<float,600,1,0,600,1> > >::writePacket<16,__m128>
PUBLIC	??$packet@$0BA@T__m128@@@?$evaluator@V?$PlainObjectBase@V?$Matrix@M$0CFI@$00$0A@$0CFI@$00@Eigen@@@Eigen@@@internal@Eigen@@QEBA?AT__m128@@_J0@Z ; Eigen::internal::evaluator<Eigen::PlainObjectBase<Eigen::Matrix<float,600,1,0,600,1> > >::packet<16,__m128>
PUBLIC	??$writePacket@$0BA@T__m128@@@?$evaluator@V?$PlainObjectBase@V?$Matrix@M$00$0CFI@$00$00$0CFI@@Eigen@@@Eigen@@@internal@Eigen@@QEAAX_J0AEBT__m128@@@Z ; Eigen::internal::evaluator<Eigen::PlainObjectBase<Eigen::Matrix<float,1,600,1,1,600> > >::writePacket<16,__m128>
PUBLIC	??$packet@$0BA@T__m128@@@?$evaluator@V?$PlainObjectBase@V?$Matrix@M$00$0CFI@$00$00$0CFI@@Eigen@@@Eigen@@@internal@Eigen@@QEBA?AT__m128@@_J0@Z ; Eigen::internal::evaluator<Eigen::PlainObjectBase<Eigen::Matrix<float,1,600,1,1,600> > >::packet<16,__m128>
PUBLIC	??$writePacket@$0BA@T__m128@@@?$evaluator@V?$PlainObjectBase@V?$Matrix@M$0HAI@$00$0A@$0HAI@$00@Eigen@@@Eigen@@@internal@Eigen@@QEAAX_J0AEBT__m128@@@Z ; Eigen::internal::evaluator<Eigen::PlainObjectBase<Eigen::Matrix<float,1800,1,0,1800,1> > >::writePacket<16,__m128>
PUBLIC	??$packet@$0BA@T__m128@@@?$evaluator@V?$PlainObjectBase@V?$Matrix@M$0HAI@$00$0A@$0HAI@$00@Eigen@@@Eigen@@@internal@Eigen@@QEBA?AT__m128@@_J0@Z ; Eigen::internal::evaluator<Eigen::PlainObjectBase<Eigen::Matrix<float,1800,1,0,1800,1> > >::packet<16,__m128>
PUBLIC	??$writePacket@$0BA@T__m128@@@?$evaluator@V?$PlainObjectBase@V?$Matrix@M$0OBA@$00$0A@$0OBA@$00@Eigen@@@Eigen@@@internal@Eigen@@QEAAX_J0AEBT__m128@@@Z ; Eigen::internal::evaluator<Eigen::PlainObjectBase<Eigen::Matrix<float,3600,1,0,3600,1> > >::writePacket<16,__m128>
PUBLIC	??$packet@$0BA@T__m128@@@?$evaluator@V?$PlainObjectBase@V?$Matrix@M$0OBA@$00$0A@$0OBA@$00@Eigen@@@Eigen@@@internal@Eigen@@QEBA?AT__m128@@_J0@Z ; Eigen::internal::evaluator<Eigen::PlainObjectBase<Eigen::Matrix<float,3600,1,0,3600,1> > >::packet<16,__m128>
PUBLIC	??$writePacket@$0BA@T__m128@@@?$evaluator@V?$PlainObjectBase@V?$Matrix@M$0BHHA@$00$0A@$0BHHA@$00@Eigen@@@Eigen@@@internal@Eigen@@QEAAX_J0AEBT__m128@@@Z ; Eigen::internal::evaluator<Eigen::PlainObjectBase<Eigen::Matrix<float,6000,1,0,6000,1> > >::writePacket<16,__m128>
PUBLIC	??$packet@$0BA@T__m128@@@?$evaluator@V?$PlainObjectBase@V?$Matrix@M$0BHHA@$00$0A@$0BHHA@$00@Eigen@@@Eigen@@@internal@Eigen@@QEBA?AT__m128@@_J0@Z ; Eigen::internal::evaluator<Eigen::PlainObjectBase<Eigen::Matrix<float,6000,1,0,6000,1> > >::packet<16,__m128>
PUBLIC	??$writePacket@$0BA@T__m128@@@?$evaluator@V?$PlainObjectBase@V?$Matrix@M$0CDCI@$00$0A@$0CDCI@$00@Eigen@@@Eigen@@@internal@Eigen@@QEAAX_J0AEBT__m128@@@Z ; Eigen::internal::evaluator<Eigen::PlainObjectBase<Eigen::Matrix<float,9000,1,0,9000,1> > >::writePacket<16,__m128>
PUBLIC	??$packet@$0BA@T__m128@@@?$evaluator@V?$PlainObjectBase@V?$Matrix@M$0CDCI@$00$0A@$0CDCI@$00@Eigen@@@Eigen@@@internal@Eigen@@QEBA?AT__m128@@_J0@Z ; Eigen::internal::evaluator<Eigen::PlainObjectBase<Eigen::Matrix<float,9000,1,0,9000,1> > >::packet<16,__m128>
PUBLIC	??$pstoret@MT__m128@@$0BA@@internal@Eigen@@YAXPEAMAEBT__m128@@@Z ; Eigen::internal::pstoret<float,__m128,16>
PUBLIC	??$ploadt@T__m128@@$0BA@@internal@Eigen@@YA?AT__m128@@PEBM@Z ; Eigen::internal::ploadt<__m128,16>
PUBLIC	??$?0V?$reference_wrapper@V?$vector@MV?$allocator@M@std@@@std@@@std@@@?$_Tuple_val@V?$reference_wrapper@V?$vector@MV?$allocator@M@std@@@std@@@std@@@std@@QEAA@$$QEAV?$reference_wrapper@V?$vector@MV?$allocator@M@std@@@std@@@1@@Z ; std::_Tuple_val<std::reference_wrapper<std::vector<float,std::allocator<float> > > >::_Tuple_val<std::reference_wrapper<std::vector<float,std::allocator<float> > > ><std::reference_wrapper<std::vector<float,std::allocator<float> > > >
PUBLIC	??$?0U_Exact_args_t@std@@V?$reference_wrapper@H@1@V?$reference_wrapper@VNN@@@1@$0A@@?$tuple@V?$reference_wrapper@H@std@@V?$reference_wrapper@VNN@@@2@@std@@QEAA@U_Exact_args_t@1@$$QEAV?$reference_wrapper@H@1@$$QEAV?$reference_wrapper@VNN@@@1@@Z ; std::tuple<std::reference_wrapper<int>,std::reference_wrapper<NN> >::tuple<std::reference_wrapper<int>,std::reference_wrapper<NN> ><std::_Exact_args_t,std::reference_wrapper<int>,std::reference_wrapper<NN>,0>
PUBLIC	??$assignPacket@$0BA@$0BA@T__m128@@@?$generic_dense_assignment_kernel@U?$evaluator@V?$Matrix@M$01$01$0A@$01$01@Eigen@@@internal@Eigen@@U123@U?$swap_assign_op@M@23@$0A@@internal@Eigen@@QEAAX_J0@Z ; Eigen::internal::generic_dense_assignment_kernel<Eigen::internal::evaluator<Eigen::Matrix<float,2,2,0,2,2> >,Eigen::internal::evaluator<Eigen::Matrix<float,2,2,0,2,2> >,Eigen::internal::swap_assign_op<float>,0>::assignPacket<16,16,__m128>
PUBLIC	??$assignPacket@$0BA@$0BA@T__m128@@@?$generic_dense_assignment_kernel@U?$evaluator@V?$Matrix@M$03$0FNM@$0A@$03$0FNM@@Eigen@@@internal@Eigen@@U123@U?$swap_assign_op@M@23@$0A@@internal@Eigen@@QEAAX_J0@Z ; Eigen::internal::generic_dense_assignment_kernel<Eigen::internal::evaluator<Eigen::Matrix<float,4,1500,0,4,1500> >,Eigen::internal::evaluator<Eigen::Matrix<float,4,1500,0,4,1500> >,Eigen::internal::swap_assign_op<float>,0>::assignPacket<16,16,__m128>
PUBLIC	??$assignPacket@$0BA@$0BA@T__m128@@@?$generic_dense_assignment_kernel@U?$evaluator@V?$Matrix@M$0CFI@$0CFI@$0A@$0CFI@$0CFI@@Eigen@@@internal@Eigen@@U123@U?$swap_assign_op@M@23@$0A@@internal@Eigen@@QEAAX_J0@Z ; Eigen::internal::generic_dense_assignment_kernel<Eigen::internal::evaluator<Eigen::Matrix<float,600,600,0,600,600> >,Eigen::internal::evaluator<Eigen::Matrix<float,600,600,0,600,600> >,Eigen::internal::swap_assign_op<float>,0>::assignPacket<16,16,__m128>
PUBLIC	??$assignPacket@$0BA@$0BA@T__m128@@@?$generic_dense_assignment_kernel@U?$evaluator@V?$Matrix@M$0CFI@$00$0A@$0CFI@$00@Eigen@@@internal@Eigen@@U123@U?$swap_assign_op@M@23@$0A@@internal@Eigen@@QEAAX_J0@Z ; Eigen::internal::generic_dense_assignment_kernel<Eigen::internal::evaluator<Eigen::Matrix<float,600,1,0,600,1> >,Eigen::internal::evaluator<Eigen::Matrix<float,600,1,0,600,1> >,Eigen::internal::swap_assign_op<float>,0>::assignPacket<16,16,__m128>
PUBLIC	??$assignPacket@$0BA@$0BA@T__m128@@@?$generic_dense_assignment_kernel@U?$evaluator@V?$Matrix@M$00$0CFI@$00$00$0CFI@@Eigen@@@internal@Eigen@@U123@U?$swap_assign_op@M@23@$0A@@internal@Eigen@@QEAAX_J0@Z ; Eigen::internal::generic_dense_assignment_kernel<Eigen::internal::evaluator<Eigen::Matrix<float,1,600,1,1,600> >,Eigen::internal::evaluator<Eigen::Matrix<float,1,600,1,1,600> >,Eigen::internal::swap_assign_op<float>,0>::assignPacket<16,16,__m128>
PUBLIC	??$assignPacket@$0BA@$0BA@T__m128@@@?$generic_dense_assignment_kernel@U?$evaluator@V?$Matrix@M$0HAI@$00$0A@$0HAI@$00@Eigen@@@internal@Eigen@@U123@U?$swap_assign_op@M@23@$0A@@internal@Eigen@@QEAAX_J0@Z ; Eigen::internal::generic_dense_assignment_kernel<Eigen::internal::evaluator<Eigen::Matrix<float,1800,1,0,1800,1> >,Eigen::internal::evaluator<Eigen::Matrix<float,1800,1,0,1800,1> >,Eigen::internal::swap_assign_op<float>,0>::assignPacket<16,16,__m128>
PUBLIC	??$writePacket@$0BA@T__m128@@@?$evaluator@V?$PlainObjectBase@V?$Matrix@M$01$0DIE@$0A@$01$0DIE@@Eigen@@@Eigen@@@internal@Eigen@@QEAAX_JAEBT__m128@@@Z ; Eigen::internal::evaluator<Eigen::PlainObjectBase<Eigen::Matrix<float,2,900,0,2,900> > >::writePacket<16,__m128>
PUBLIC	??$packet@$0BA@T__m128@@@?$evaluator@V?$PlainObjectBase@V?$Matrix@M$01$0DIE@$0A@$01$0DIE@@Eigen@@@Eigen@@@internal@Eigen@@QEBA?AT__m128@@_J@Z ; Eigen::internal::evaluator<Eigen::PlainObjectBase<Eigen::Matrix<float,2,900,0,2,900> > >::packet<16,__m128>
PUBLIC	??$assignPacket@$0BA@$0BA@T__m128@@@?$generic_dense_assignment_kernel@U?$evaluator@V?$Matrix@M$0OBA@$00$0A@$0OBA@$00@Eigen@@@internal@Eigen@@U123@U?$swap_assign_op@M@23@$0A@@internal@Eigen@@QEAAX_J0@Z ; Eigen::internal::generic_dense_assignment_kernel<Eigen::internal::evaluator<Eigen::Matrix<float,3600,1,0,3600,1> >,Eigen::internal::evaluator<Eigen::Matrix<float,3600,1,0,3600,1> >,Eigen::internal::swap_assign_op<float>,0>::assignPacket<16,16,__m128>
PUBLIC	??$writePacket@$0BA@T__m128@@@?$evaluator@V?$PlainObjectBase@V?$Matrix@M$02$0ELA@$0A@$02$0ELA@@Eigen@@@Eigen@@@internal@Eigen@@QEAAX_JAEBT__m128@@@Z ; Eigen::internal::evaluator<Eigen::PlainObjectBase<Eigen::Matrix<float,3,1200,0,3,1200> > >::writePacket<16,__m128>
PUBLIC	??$packet@$0BA@T__m128@@@?$evaluator@V?$PlainObjectBase@V?$Matrix@M$02$0ELA@$0A@$02$0ELA@@Eigen@@@Eigen@@@internal@Eigen@@QEBA?AT__m128@@_J@Z ; Eigen::internal::evaluator<Eigen::PlainObjectBase<Eigen::Matrix<float,3,1200,0,3,1200> > >::packet<16,__m128>
PUBLIC	??$assignPacket@$0BA@$0BA@T__m128@@@?$generic_dense_assignment_kernel@U?$evaluator@V?$Matrix@M$0BHHA@$00$0A@$0BHHA@$00@Eigen@@@internal@Eigen@@U123@U?$swap_assign_op@M@23@$0A@@internal@Eigen@@QEAAX_J0@Z ; Eigen::internal::generic_dense_assignment_kernel<Eigen::internal::evaluator<Eigen::Matrix<float,6000,1,0,6000,1> >,Eigen::internal::evaluator<Eigen::Matrix<float,6000,1,0,6000,1> >,Eigen::internal::swap_assign_op<float>,0>::assignPacket<16,16,__m128>
PUBLIC	??$assignPacket@$0BA@$0BA@T__m128@@@?$generic_dense_assignment_kernel@U?$evaluator@V?$Matrix@M$0CDCI@$00$0A@$0CDCI@$00@Eigen@@@internal@Eigen@@U123@U?$swap_assign_op@M@23@$0A@@internal@Eigen@@QEAAX_J0@Z ; Eigen::internal::generic_dense_assignment_kernel<Eigen::internal::evaluator<Eigen::Matrix<float,9000,1,0,9000,1> >,Eigen::internal::evaluator<Eigen::Matrix<float,9000,1,0,9000,1> >,Eigen::internal::swap_assign_op<float>,0>::assignPacket<16,16,__m128>
PUBLIC	??$writePacket@$0BA@T__m128@@@?$evaluator@V?$PlainObjectBase@V?$Matrix@M$04$0HAI@$0A@$04$0HAI@@Eigen@@@Eigen@@@internal@Eigen@@QEAAX_JAEBT__m128@@@Z ; Eigen::internal::evaluator<Eigen::PlainObjectBase<Eigen::Matrix<float,5,1800,0,5,1800> > >::writePacket<16,__m128>
PUBLIC	??$packet@$0BA@T__m128@@@?$evaluator@V?$PlainObjectBase@V?$Matrix@M$04$0HAI@$0A@$04$0HAI@@Eigen@@@Eigen@@@internal@Eigen@@QEBA?AT__m128@@_J@Z ; Eigen::internal::evaluator<Eigen::PlainObjectBase<Eigen::Matrix<float,5,1800,0,5,1800> > >::packet<16,__m128>
PUBLIC	??$ignore_unused_variable@V?$Matrix@M$04$0HAI@$0A@$04$0HAI@@Eigen@@@internal@Eigen@@YAXAEBV?$Matrix@M$04$0HAI@$0A@$04$0HAI@@1@@Z ; Eigen::internal::ignore_unused_variable<Eigen::Matrix<float,5,1800,0,5,1800> >
PUBLIC	??$ignore_unused_variable@V?$Matrix@M$01$01$0A@$01$01@Eigen@@@internal@Eigen@@YAXAEBV?$Matrix@M$01$01$0A@$01$01@1@@Z ; Eigen::internal::ignore_unused_variable<Eigen::Matrix<float,2,2,0,2,2> >
PUBLIC	??$ignore_unused_variable@V?$Matrix@M$0CDCI@$00$0A@$0CDCI@$00@Eigen@@@internal@Eigen@@YAXAEBV?$Matrix@M$0CDCI@$00$0A@$0CDCI@$00@1@@Z ; Eigen::internal::ignore_unused_variable<Eigen::Matrix<float,9000,1,0,9000,1> >
PUBLIC	??$ignore_unused_variable@V?$Matrix@M$03$0FNM@$0A@$03$0FNM@@Eigen@@@internal@Eigen@@YAXAEBV?$Matrix@M$03$0FNM@$0A@$03$0FNM@@1@@Z ; Eigen::internal::ignore_unused_variable<Eigen::Matrix<float,4,1500,0,4,1500> >
PUBLIC	??$ignore_unused_variable@V?$Matrix@M$0BHHA@$00$0A@$0BHHA@$00@Eigen@@@internal@Eigen@@YAXAEBV?$Matrix@M$0BHHA@$00$0A@$0BHHA@$00@1@@Z ; Eigen::internal::ignore_unused_variable<Eigen::Matrix<float,6000,1,0,6000,1> >
PUBLIC	??$ignore_unused_variable@V?$Matrix@M$02$0ELA@$0A@$02$0ELA@@Eigen@@@internal@Eigen@@YAXAEBV?$Matrix@M$02$0ELA@$0A@$02$0ELA@@1@@Z ; Eigen::internal::ignore_unused_variable<Eigen::Matrix<float,3,1200,0,3,1200> >
PUBLIC	??$ignore_unused_variable@V?$Matrix@M$0OBA@$00$0A@$0OBA@$00@Eigen@@@internal@Eigen@@YAXAEBV?$Matrix@M$0OBA@$00$0A@$0OBA@$00@1@@Z ; Eigen::internal::ignore_unused_variable<Eigen::Matrix<float,3600,1,0,3600,1> >
PUBLIC	??$ignore_unused_variable@V?$Matrix@M$01$0DIE@$0A@$01$0DIE@@Eigen@@@internal@Eigen@@YAXAEBV?$Matrix@M$01$0DIE@$0A@$01$0DIE@@1@@Z ; Eigen::internal::ignore_unused_variable<Eigen::Matrix<float,2,900,0,2,900> >
PUBLIC	??$ignore_unused_variable@V?$Matrix@M$0HAI@$00$0A@$0HAI@$00@Eigen@@@internal@Eigen@@YAXAEBV?$Matrix@M$0HAI@$00$0A@$0HAI@$00@1@@Z ; Eigen::internal::ignore_unused_variable<Eigen::Matrix<float,1800,1,0,1800,1> >
PUBLIC	??$ignore_unused_variable@V?$Matrix@M$00$0CFI@$00$00$0CFI@@Eigen@@@internal@Eigen@@YAXAEBV?$Matrix@M$00$0CFI@$00$00$0CFI@@1@@Z ; Eigen::internal::ignore_unused_variable<Eigen::Matrix<float,1,600,1,1,600> >
PUBLIC	??$ignore_unused_variable@V?$Matrix@M$0CFI@$00$0A@$0CFI@$00@Eigen@@@internal@Eigen@@YAXAEBV?$Matrix@M$0CFI@$00$0A@$0CFI@$00@1@@Z ; Eigen::internal::ignore_unused_variable<Eigen::Matrix<float,600,1,0,600,1> >
PUBLIC	??$ignore_unused_variable@V?$Matrix@M$00$00$0A@$00$00@Eigen@@@internal@Eigen@@YAXAEBV?$Matrix@M$00$00$0A@$00$00@1@@Z ; Eigen::internal::ignore_unused_variable<Eigen::Matrix<float,1,1,0,1,1> >
PUBLIC	??$ignore_unused_variable@V?$Matrix@M$0CFI@$0CFI@$0A@$0CFI@$0CFI@@Eigen@@@internal@Eigen@@YAXAEBV?$Matrix@M$0CFI@$0CFI@$0A@$0CFI@$0CFI@@1@@Z ; Eigen::internal::ignore_unused_variable<Eigen::Matrix<float,600,600,0,600,600> >
PUBLIC	??$?0V?$reference_wrapper@V?$vector@UGame@uci@@V?$allocator@UGame@uci@@@std@@@std@@@std@@@?$_Tuple_val@V?$reference_wrapper@V?$vector@UGame@uci@@V?$allocator@UGame@uci@@@std@@@std@@@std@@@std@@QEAA@$$QEAV?$reference_wrapper@V?$vector@UGame@uci@@V?$allocator@UGame@uci@@@std@@@std@@@1@@Z ; std::_Tuple_val<std::reference_wrapper<std::vector<uci::Game,std::allocator<uci::Game> > > >::_Tuple_val<std::reference_wrapper<std::vector<uci::Game,std::allocator<uci::Game> > > ><std::reference_wrapper<std::vector<uci::Game,std::allocator<uci::Game> > > >
PUBLIC	??$?0U_Exact_args_t@std@@V?$reference_wrapper@V?$vector@MV?$allocator@M@std@@@std@@@1@V?$reference_wrapper@H@1@V?$reference_wrapper@VNN@@@1@$0A@@?$tuple@V?$reference_wrapper@V?$vector@MV?$allocator@M@std@@@std@@@std@@V?$reference_wrapper@H@2@V?$reference_wrapper@VNN@@@2@@std@@QEAA@U_Exact_args_t@1@$$QEAV?$reference_wrapper@V?$vector@MV?$allocator@M@std@@@std@@@1@$$QEAV?$reference_wrapper@H@1@$$QEAV?$reference_wrapper@VNN@@@1@@Z ; std::tuple<std::reference_wrapper<std::vector<float,std::allocator<float> > >,std::reference_wrapper<int>,std::reference_wrapper<NN> >::tuple<std::reference_wrapper<std::vector<float,std::allocator<float> > >,std::reference_wrapper<int>,std::reference_wrapper<NN> ><std::_Exact_args_t,std::reference_wrapper<std::vector<float,std::allocator<float> > >,std::reference_wrapper<int>,std::reference_wrapper<NN>,0>
PUBLIC	??$?0N$0A@@?$duration@NU?$ratio@$00$0DLJKMKAA@@std@@@chrono@std@@QEAA@AEBN@Z ; std::chrono::duration<double,std::ratio<1,1000000000> >::duration<double,std::ratio<1,1000000000> ><double,0>
PUBLIC	?coeff@?$evaluator@V?$PlainObjectBase@V?$Matrix@M$01$0DIE@$0A@$01$0DIE@@Eigen@@@Eigen@@@internal@Eigen@@QEBAAEBM_J@Z ; Eigen::internal::evaluator<Eigen::PlainObjectBase<Eigen::Matrix<float,2,900,0,2,900> > >::coeff
PUBLIC	?coeffRef@?$evaluator@V?$PlainObjectBase@V?$Matrix@M$01$0DIE@$0A@$01$0DIE@@Eigen@@@Eigen@@@internal@Eigen@@QEAAAEAM_J@Z ; Eigen::internal::evaluator<Eigen::PlainObjectBase<Eigen::Matrix<float,2,900,0,2,900> > >::coeffRef
PUBLIC	?coeff@?$evaluator@V?$PlainObjectBase@V?$Matrix@M$02$0ELA@$0A@$02$0ELA@@Eigen@@@Eigen@@@internal@Eigen@@QEBAAEBM_J@Z ; Eigen::internal::evaluator<Eigen::PlainObjectBase<Eigen::Matrix<float,3,1200,0,3,1200> > >::coeff
PUBLIC	?coeffRef@?$evaluator@V?$PlainObjectBase@V?$Matrix@M$02$0ELA@$0A@$02$0ELA@@Eigen@@@Eigen@@@internal@Eigen@@QEAAAEAM_J@Z ; Eigen::internal::evaluator<Eigen::PlainObjectBase<Eigen::Matrix<float,3,1200,0,3,1200> > >::coeffRef
PUBLIC	?coeff@?$evaluator@V?$PlainObjectBase@V?$Matrix@M$04$0HAI@$0A@$04$0HAI@@Eigen@@@Eigen@@@internal@Eigen@@QEBAAEBM_J@Z ; Eigen::internal::evaluator<Eigen::PlainObjectBase<Eigen::Matrix<float,5,1800,0,5,1800> > >::coeff
PUBLIC	?coeffRef@?$evaluator@V?$PlainObjectBase@V?$Matrix@M$04$0HAI@$0A@$04$0HAI@@Eigen@@@Eigen@@@internal@Eigen@@QEAAAEAM_J@Z ; Eigen::internal::evaluator<Eigen::PlainObjectBase<Eigen::Matrix<float,5,1800,0,5,1800> > >::coeffRef
PUBLIC	?rowIndexByOuterInner@?$generic_dense_assignment_kernel@U?$evaluator@V?$Matrix@M$0CFI@$0CFI@$0A@$0CFI@$0CFI@@Eigen@@@internal@Eigen@@U123@U?$swap_assign_op@M@23@$00@internal@Eigen@@SA_J_J0@Z ; Eigen::internal::generic_dense_assignment_kernel<Eigen::internal::evaluator<Eigen::Matrix<float,600,600,0,600,600> >,Eigen::internal::evaluator<Eigen::Matrix<float,600,600,0,600,600> >,Eigen::internal::swap_assign_op<float>,1>::rowIndexByOuterInner
PUBLIC	?colIndexByOuterInner@?$generic_dense_assignment_kernel@U?$evaluator@V?$Matrix@M$0CFI@$0CFI@$0A@$0CFI@$0CFI@@Eigen@@@internal@Eigen@@U123@U?$swap_assign_op@M@23@$00@internal@Eigen@@SA_J_J0@Z ; Eigen::internal::generic_dense_assignment_kernel<Eigen::internal::evaluator<Eigen::Matrix<float,600,600,0,600,600> >,Eigen::internal::evaluator<Eigen::Matrix<float,600,600,0,600,600> >,Eigen::internal::swap_assign_op<float>,1>::colIndexByOuterInner
PUBLIC	?rowIndexByOuterInner@?$generic_dense_assignment_kernel@U?$evaluator@V?$Matrix@M$0CFI@$00$0A@$0CFI@$00@Eigen@@@internal@Eigen@@U123@U?$swap_assign_op@M@23@$00@internal@Eigen@@SA_J_J0@Z ; Eigen::internal::generic_dense_assignment_kernel<Eigen::internal::evaluator<Eigen::Matrix<float,600,1,0,600,1> >,Eigen::internal::evaluator<Eigen::Matrix<float,600,1,0,600,1> >,Eigen::internal::swap_assign_op<float>,1>::rowIndexByOuterInner
PUBLIC	?colIndexByOuterInner@?$generic_dense_assignment_kernel@U?$evaluator@V?$Matrix@M$0CFI@$00$0A@$0CFI@$00@Eigen@@@internal@Eigen@@U123@U?$swap_assign_op@M@23@$00@internal@Eigen@@SA_J_J0@Z ; Eigen::internal::generic_dense_assignment_kernel<Eigen::internal::evaluator<Eigen::Matrix<float,600,1,0,600,1> >,Eigen::internal::evaluator<Eigen::Matrix<float,600,1,0,600,1> >,Eigen::internal::swap_assign_op<float>,1>::colIndexByOuterInner
PUBLIC	?rowIndexByOuterInner@?$generic_dense_assignment_kernel@U?$evaluator@V?$Matrix@M$00$0CFI@$00$00$0CFI@@Eigen@@@internal@Eigen@@U123@U?$swap_assign_op@M@23@$00@internal@Eigen@@SA_J_J0@Z ; Eigen::internal::generic_dense_assignment_kernel<Eigen::internal::evaluator<Eigen::Matrix<float,1,600,1,1,600> >,Eigen::internal::evaluator<Eigen::Matrix<float,1,600,1,1,600> >,Eigen::internal::swap_assign_op<float>,1>::rowIndexByOuterInner
PUBLIC	?colIndexByOuterInner@?$generic_dense_assignment_kernel@U?$evaluator@V?$Matrix@M$00$0CFI@$00$00$0CFI@@Eigen@@@internal@Eigen@@U123@U?$swap_assign_op@M@23@$00@internal@Eigen@@SA_J_J0@Z ; Eigen::internal::generic_dense_assignment_kernel<Eigen::internal::evaluator<Eigen::Matrix<float,1,600,1,1,600> >,Eigen::internal::evaluator<Eigen::Matrix<float,1,600,1,1,600> >,Eigen::internal::swap_assign_op<float>,1>::colIndexByOuterInner
PUBLIC	?rowIndexByOuterInner@?$generic_dense_assignment_kernel@U?$evaluator@V?$Matrix@M$0HAI@$00$0A@$0HAI@$00@Eigen@@@internal@Eigen@@U123@U?$swap_assign_op@M@23@$00@internal@Eigen@@SA_J_J0@Z ; Eigen::internal::generic_dense_assignment_kernel<Eigen::internal::evaluator<Eigen::Matrix<float,1800,1,0,1800,1> >,Eigen::internal::evaluator<Eigen::Matrix<float,1800,1,0,1800,1> >,Eigen::internal::swap_assign_op<float>,1>::rowIndexByOuterInner
PUBLIC	?colIndexByOuterInner@?$generic_dense_assignment_kernel@U?$evaluator@V?$Matrix@M$0HAI@$00$0A@$0HAI@$00@Eigen@@@internal@Eigen@@U123@U?$swap_assign_op@M@23@$00@internal@Eigen@@SA_J_J0@Z ; Eigen::internal::generic_dense_assignment_kernel<Eigen::internal::evaluator<Eigen::Matrix<float,1800,1,0,1800,1> >,Eigen::internal::evaluator<Eigen::Matrix<float,1800,1,0,1800,1> >,Eigen::internal::swap_assign_op<float>,1>::colIndexByOuterInner
PUBLIC	?assignCoeff@?$generic_dense_assignment_kernel@U?$evaluator@V?$Matrix@M$01$0DIE@$0A@$01$0DIE@@Eigen@@@internal@Eigen@@U123@U?$swap_assign_op@M@23@$00@internal@Eigen@@QEAAX_J@Z ; Eigen::internal::generic_dense_assignment_kernel<Eigen::internal::evaluator<Eigen::Matrix<float,2,900,0,2,900> >,Eigen::internal::evaluator<Eigen::Matrix<float,2,900,0,2,900> >,Eigen::internal::swap_assign_op<float>,1>::assignCoeff
PUBLIC	?rowIndexByOuterInner@?$generic_dense_assignment_kernel@U?$evaluator@V?$Matrix@M$0OBA@$00$0A@$0OBA@$00@Eigen@@@internal@Eigen@@U123@U?$swap_assign_op@M@23@$00@internal@Eigen@@SA_J_J0@Z ; Eigen::internal::generic_dense_assignment_kernel<Eigen::internal::evaluator<Eigen::Matrix<float,3600,1,0,3600,1> >,Eigen::internal::evaluator<Eigen::Matrix<float,3600,1,0,3600,1> >,Eigen::internal::swap_assign_op<float>,1>::rowIndexByOuterInner
PUBLIC	?colIndexByOuterInner@?$generic_dense_assignment_kernel@U?$evaluator@V?$Matrix@M$0OBA@$00$0A@$0OBA@$00@Eigen@@@internal@Eigen@@U123@U?$swap_assign_op@M@23@$00@internal@Eigen@@SA_J_J0@Z ; Eigen::internal::generic_dense_assignment_kernel<Eigen::internal::evaluator<Eigen::Matrix<float,3600,1,0,3600,1> >,Eigen::internal::evaluator<Eigen::Matrix<float,3600,1,0,3600,1> >,Eigen::internal::swap_assign_op<float>,1>::colIndexByOuterInner
PUBLIC	?assignCoeff@?$generic_dense_assignment_kernel@U?$evaluator@V?$Matrix@M$02$0ELA@$0A@$02$0ELA@@Eigen@@@internal@Eigen@@U123@U?$swap_assign_op@M@23@$00@internal@Eigen@@QEAAX_J@Z ; Eigen::internal::generic_dense_assignment_kernel<Eigen::internal::evaluator<Eigen::Matrix<float,3,1200,0,3,1200> >,Eigen::internal::evaluator<Eigen::Matrix<float,3,1200,0,3,1200> >,Eigen::internal::swap_assign_op<float>,1>::assignCoeff
PUBLIC	?rowIndexByOuterInner@?$generic_dense_assignment_kernel@U?$evaluator@V?$Matrix@M$0BHHA@$00$0A@$0BHHA@$00@Eigen@@@internal@Eigen@@U123@U?$swap_assign_op@M@23@$00@internal@Eigen@@SA_J_J0@Z ; Eigen::internal::generic_dense_assignment_kernel<Eigen::internal::evaluator<Eigen::Matrix<float,6000,1,0,6000,1> >,Eigen::internal::evaluator<Eigen::Matrix<float,6000,1,0,6000,1> >,Eigen::internal::swap_assign_op<float>,1>::rowIndexByOuterInner
PUBLIC	?colIndexByOuterInner@?$generic_dense_assignment_kernel@U?$evaluator@V?$Matrix@M$0BHHA@$00$0A@$0BHHA@$00@Eigen@@@internal@Eigen@@U123@U?$swap_assign_op@M@23@$00@internal@Eigen@@SA_J_J0@Z ; Eigen::internal::generic_dense_assignment_kernel<Eigen::internal::evaluator<Eigen::Matrix<float,6000,1,0,6000,1> >,Eigen::internal::evaluator<Eigen::Matrix<float,6000,1,0,6000,1> >,Eigen::internal::swap_assign_op<float>,1>::colIndexByOuterInner
PUBLIC	?rowIndexByOuterInner@?$generic_dense_assignment_kernel@U?$evaluator@V?$Matrix@M$03$0FNM@$0A@$03$0FNM@@Eigen@@@internal@Eigen@@U123@U?$swap_assign_op@M@23@$00@internal@Eigen@@SA_J_J0@Z ; Eigen::internal::generic_dense_assignment_kernel<Eigen::internal::evaluator<Eigen::Matrix<float,4,1500,0,4,1500> >,Eigen::internal::evaluator<Eigen::Matrix<float,4,1500,0,4,1500> >,Eigen::internal::swap_assign_op<float>,1>::rowIndexByOuterInner
PUBLIC	?colIndexByOuterInner@?$generic_dense_assignment_kernel@U?$evaluator@V?$Matrix@M$03$0FNM@$0A@$03$0FNM@@Eigen@@@internal@Eigen@@U123@U?$swap_assign_op@M@23@$00@internal@Eigen@@SA_J_J0@Z ; Eigen::internal::generic_dense_assignment_kernel<Eigen::internal::evaluator<Eigen::Matrix<float,4,1500,0,4,1500> >,Eigen::internal::evaluator<Eigen::Matrix<float,4,1500,0,4,1500> >,Eigen::internal::swap_assign_op<float>,1>::colIndexByOuterInner
PUBLIC	?rowIndexByOuterInner@?$generic_dense_assignment_kernel@U?$evaluator@V?$Matrix@M$0CDCI@$00$0A@$0CDCI@$00@Eigen@@@internal@Eigen@@U123@U?$swap_assign_op@M@23@$00@internal@Eigen@@SA_J_J0@Z ; Eigen::internal::generic_dense_assignment_kernel<Eigen::internal::evaluator<Eigen::Matrix<float,9000,1,0,9000,1> >,Eigen::internal::evaluator<Eigen::Matrix<float,9000,1,0,9000,1> >,Eigen::internal::swap_assign_op<float>,1>::rowIndexByOuterInner
PUBLIC	?colIndexByOuterInner@?$generic_dense_assignment_kernel@U?$evaluator@V?$Matrix@M$0CDCI@$00$0A@$0CDCI@$00@Eigen@@@internal@Eigen@@U123@U?$swap_assign_op@M@23@$00@internal@Eigen@@SA_J_J0@Z ; Eigen::internal::generic_dense_assignment_kernel<Eigen::internal::evaluator<Eigen::Matrix<float,9000,1,0,9000,1> >,Eigen::internal::evaluator<Eigen::Matrix<float,9000,1,0,9000,1> >,Eigen::internal::swap_assign_op<float>,1>::colIndexByOuterInner
PUBLIC	?rowIndexByOuterInner@?$generic_dense_assignment_kernel@U?$evaluator@V?$Matrix@M$01$01$0A@$01$01@Eigen@@@internal@Eigen@@U123@U?$swap_assign_op@M@23@$00@internal@Eigen@@SA_J_J0@Z ; Eigen::internal::generic_dense_assignment_kernel<Eigen::internal::evaluator<Eigen::Matrix<float,2,2,0,2,2> >,Eigen::internal::evaluator<Eigen::Matrix<float,2,2,0,2,2> >,Eigen::internal::swap_assign_op<float>,1>::rowIndexByOuterInner
PUBLIC	?colIndexByOuterInner@?$generic_dense_assignment_kernel@U?$evaluator@V?$Matrix@M$01$01$0A@$01$01@Eigen@@@internal@Eigen@@U123@U?$swap_assign_op@M@23@$00@internal@Eigen@@SA_J_J0@Z ; Eigen::internal::generic_dense_assignment_kernel<Eigen::internal::evaluator<Eigen::Matrix<float,2,2,0,2,2> >,Eigen::internal::evaluator<Eigen::Matrix<float,2,2,0,2,2> >,Eigen::internal::swap_assign_op<float>,1>::colIndexByOuterInner
PUBLIC	?assignCoeff@?$generic_dense_assignment_kernel@U?$evaluator@V?$Matrix@M$04$0HAI@$0A@$04$0HAI@@Eigen@@@internal@Eigen@@U123@U?$swap_assign_op@M@23@$00@internal@Eigen@@QEAAX_J@Z ; Eigen::internal::generic_dense_assignment_kernel<Eigen::internal::evaluator<Eigen::Matrix<float,5,1800,0,5,1800> >,Eigen::internal::evaluator<Eigen::Matrix<float,5,1800,0,5,1800> >,Eigen::internal::swap_assign_op<float>,1>::assignCoeff
PUBLIC	??$swap@M$0A@@std@@YAXAEAM0@Z			; std::swap<float,0>
PUBLIC	??$assignPacketByOuterInner@$0BA@$0BA@T__m128@@@?$generic_dense_assignment_kernel@U?$evaluator@V?$Matrix@M$01$01$0A@$01$01@Eigen@@@internal@Eigen@@U123@U?$swap_assign_op@M@23@$0A@@internal@Eigen@@QEAAX_J0@Z ; Eigen::internal::generic_dense_assignment_kernel<Eigen::internal::evaluator<Eigen::Matrix<float,2,2,0,2,2> >,Eigen::internal::evaluator<Eigen::Matrix<float,2,2,0,2,2> >,Eigen::internal::swap_assign_op<float>,0>::assignPacketByOuterInner<16,16,__m128>
PUBLIC	??$assignPacketByOuterInner@$0BA@$0BA@T__m128@@@?$generic_dense_assignment_kernel@U?$evaluator@V?$Matrix@M$03$0FNM@$0A@$03$0FNM@@Eigen@@@internal@Eigen@@U123@U?$swap_assign_op@M@23@$0A@@internal@Eigen@@QEAAX_J0@Z ; Eigen::internal::generic_dense_assignment_kernel<Eigen::internal::evaluator<Eigen::Matrix<float,4,1500,0,4,1500> >,Eigen::internal::evaluator<Eigen::Matrix<float,4,1500,0,4,1500> >,Eigen::internal::swap_assign_op<float>,0>::assignPacketByOuterInner<16,16,__m128>
PUBLIC	??$assignPacketByOuterInner@$0BA@$0BA@T__m128@@@?$generic_dense_assignment_kernel@U?$evaluator@V?$Matrix@M$0CFI@$0CFI@$0A@$0CFI@$0CFI@@Eigen@@@internal@Eigen@@U123@U?$swap_assign_op@M@23@$0A@@internal@Eigen@@QEAAX_J0@Z ; Eigen::internal::generic_dense_assignment_kernel<Eigen::internal::evaluator<Eigen::Matrix<float,600,600,0,600,600> >,Eigen::internal::evaluator<Eigen::Matrix<float,600,600,0,600,600> >,Eigen::internal::swap_assign_op<float>,0>::assignPacketByOuterInner<16,16,__m128>
PUBLIC	??$assignPacketByOuterInner@$0BA@$0BA@T__m128@@@?$generic_dense_assignment_kernel@U?$evaluator@V?$Matrix@M$0CFI@$00$0A@$0CFI@$00@Eigen@@@internal@Eigen@@U123@U?$swap_assign_op@M@23@$0A@@internal@Eigen@@QEAAX_J0@Z ; Eigen::internal::generic_dense_assignment_kernel<Eigen::internal::evaluator<Eigen::Matrix<float,600,1,0,600,1> >,Eigen::internal::evaluator<Eigen::Matrix<float,600,1,0,600,1> >,Eigen::internal::swap_assign_op<float>,0>::assignPacketByOuterInner<16,16,__m128>
PUBLIC	??$assignPacketByOuterInner@$0BA@$0BA@T__m128@@@?$generic_dense_assignment_kernel@U?$evaluator@V?$Matrix@M$00$0CFI@$00$00$0CFI@@Eigen@@@internal@Eigen@@U123@U?$swap_assign_op@M@23@$0A@@internal@Eigen@@QEAAX_J0@Z ; Eigen::internal::generic_dense_assignment_kernel<Eigen::internal::evaluator<Eigen::Matrix<float,1,600,1,1,600> >,Eigen::internal::evaluator<Eigen::Matrix<float,1,600,1,1,600> >,Eigen::internal::swap_assign_op<float>,0>::assignPacketByOuterInner<16,16,__m128>
PUBLIC	??$assignPacketByOuterInner@$0BA@$0BA@T__m128@@@?$generic_dense_assignment_kernel@U?$evaluator@V?$Matrix@M$0HAI@$00$0A@$0HAI@$00@Eigen@@@internal@Eigen@@U123@U?$swap_assign_op@M@23@$0A@@internal@Eigen@@QEAAX_J0@Z ; Eigen::internal::generic_dense_assignment_kernel<Eigen::internal::evaluator<Eigen::Matrix<float,1800,1,0,1800,1> >,Eigen::internal::evaluator<Eigen::Matrix<float,1800,1,0,1800,1> >,Eigen::internal::swap_assign_op<float>,0>::assignPacketByOuterInner<16,16,__m128>
PUBLIC	??$run@V?$generic_dense_assignment_kernel@U?$evaluator@V?$Matrix@M$01$0DIE@$0A@$01$0DIE@@Eigen@@@internal@Eigen@@U123@U?$swap_assign_op@M@23@$0A@@internal@Eigen@@@?$unaligned_dense_assignment_loop@$0A@@internal@Eigen@@SAXAEAV?$generic_dense_assignment_kernel@U?$evaluator@V?$Matrix@M$01$0DIE@$0A@$01$0DIE@@Eigen@@@internal@Eigen@@U123@U?$swap_assign_op@M@23@$0A@@12@_J1@Z ; Eigen::internal::unaligned_dense_assignment_loop<0>::run<Eigen::internal::generic_dense_assignment_kernel<Eigen::internal::evaluator<Eigen::Matrix<float,2,900,0,2,900> >,Eigen::internal::evaluator<Eigen::Matrix<float,2,900,0,2,900> >,Eigen::internal::swap_assign_op<float>,0> >
PUBLIC	??$assignPacket@$0BA@$0BA@T__m128@@@?$generic_dense_assignment_kernel@U?$evaluator@V?$Matrix@M$01$0DIE@$0A@$01$0DIE@@Eigen@@@internal@Eigen@@U123@U?$swap_assign_op@M@23@$0A@@internal@Eigen@@QEAAX_J@Z ; Eigen::internal::generic_dense_assignment_kernel<Eigen::internal::evaluator<Eigen::Matrix<float,2,900,0,2,900> >,Eigen::internal::evaluator<Eigen::Matrix<float,2,900,0,2,900> >,Eigen::internal::swap_assign_op<float>,0>::assignPacket<16,16,__m128>
PUBLIC	??$run@V?$generic_dense_assignment_kernel@U?$evaluator@V?$Matrix@M$01$0DIE@$0A@$01$0DIE@@Eigen@@@internal@Eigen@@U123@U?$swap_assign_op@M@23@$0A@@internal@Eigen@@@?$unaligned_dense_assignment_loop@$00@internal@Eigen@@SAXAEAV?$generic_dense_assignment_kernel@U?$evaluator@V?$Matrix@M$01$0DIE@$0A@$01$0DIE@@Eigen@@@internal@Eigen@@U123@U?$swap_assign_op@M@23@$0A@@12@_J1@Z ; Eigen::internal::unaligned_dense_assignment_loop<1>::run<Eigen::internal::generic_dense_assignment_kernel<Eigen::internal::evaluator<Eigen::Matrix<float,2,900,0,2,900> >,Eigen::internal::evaluator<Eigen::Matrix<float,2,900,0,2,900> >,Eigen::internal::swap_assign_op<float>,0> >
PUBLIC	??$assignPacketByOuterInner@$0BA@$0BA@T__m128@@@?$generic_dense_assignment_kernel@U?$evaluator@V?$Matrix@M$0OBA@$00$0A@$0OBA@$00@Eigen@@@internal@Eigen@@U123@U?$swap_assign_op@M@23@$0A@@internal@Eigen@@QEAAX_J0@Z ; Eigen::internal::generic_dense_assignment_kernel<Eigen::internal::evaluator<Eigen::Matrix<float,3600,1,0,3600,1> >,Eigen::internal::evaluator<Eigen::Matrix<float,3600,1,0,3600,1> >,Eigen::internal::swap_assign_op<float>,0>::assignPacketByOuterInner<16,16,__m128>
PUBLIC	??$run@V?$generic_dense_assignment_kernel@U?$evaluator@V?$Matrix@M$02$0ELA@$0A@$02$0ELA@@Eigen@@@internal@Eigen@@U123@U?$swap_assign_op@M@23@$0A@@internal@Eigen@@@?$unaligned_dense_assignment_loop@$0A@@internal@Eigen@@SAXAEAV?$generic_dense_assignment_kernel@U?$evaluator@V?$Matrix@M$02$0ELA@$0A@$02$0ELA@@Eigen@@@internal@Eigen@@U123@U?$swap_assign_op@M@23@$0A@@12@_J1@Z ; Eigen::internal::unaligned_dense_assignment_loop<0>::run<Eigen::internal::generic_dense_assignment_kernel<Eigen::internal::evaluator<Eigen::Matrix<float,3,1200,0,3,1200> >,Eigen::internal::evaluator<Eigen::Matrix<float,3,1200,0,3,1200> >,Eigen::internal::swap_assign_op<float>,0> >
PUBLIC	??$assignPacket@$0BA@$0BA@T__m128@@@?$generic_dense_assignment_kernel@U?$evaluator@V?$Matrix@M$02$0ELA@$0A@$02$0ELA@@Eigen@@@internal@Eigen@@U123@U?$swap_assign_op@M@23@$0A@@internal@Eigen@@QEAAX_J@Z ; Eigen::internal::generic_dense_assignment_kernel<Eigen::internal::evaluator<Eigen::Matrix<float,3,1200,0,3,1200> >,Eigen::internal::evaluator<Eigen::Matrix<float,3,1200,0,3,1200> >,Eigen::internal::swap_assign_op<float>,0>::assignPacket<16,16,__m128>
PUBLIC	??$run@V?$generic_dense_assignment_kernel@U?$evaluator@V?$Matrix@M$02$0ELA@$0A@$02$0ELA@@Eigen@@@internal@Eigen@@U123@U?$swap_assign_op@M@23@$0A@@internal@Eigen@@@?$unaligned_dense_assignment_loop@$00@internal@Eigen@@SAXAEAV?$generic_dense_assignment_kernel@U?$evaluator@V?$Matrix@M$02$0ELA@$0A@$02$0ELA@@Eigen@@@internal@Eigen@@U123@U?$swap_assign_op@M@23@$0A@@12@_J1@Z ; Eigen::internal::unaligned_dense_assignment_loop<1>::run<Eigen::internal::generic_dense_assignment_kernel<Eigen::internal::evaluator<Eigen::Matrix<float,3,1200,0,3,1200> >,Eigen::internal::evaluator<Eigen::Matrix<float,3,1200,0,3,1200> >,Eigen::internal::swap_assign_op<float>,0> >
PUBLIC	??$assignPacketByOuterInner@$0BA@$0BA@T__m128@@@?$generic_dense_assignment_kernel@U?$evaluator@V?$Matrix@M$0BHHA@$00$0A@$0BHHA@$00@Eigen@@@internal@Eigen@@U123@U?$swap_assign_op@M@23@$0A@@internal@Eigen@@QEAAX_J0@Z ; Eigen::internal::generic_dense_assignment_kernel<Eigen::internal::evaluator<Eigen::Matrix<float,6000,1,0,6000,1> >,Eigen::internal::evaluator<Eigen::Matrix<float,6000,1,0,6000,1> >,Eigen::internal::swap_assign_op<float>,0>::assignPacketByOuterInner<16,16,__m128>
PUBLIC	??$assignPacketByOuterInner@$0BA@$0BA@T__m128@@@?$generic_dense_assignment_kernel@U?$evaluator@V?$Matrix@M$0CDCI@$00$0A@$0CDCI@$00@Eigen@@@internal@Eigen@@U123@U?$swap_assign_op@M@23@$0A@@internal@Eigen@@QEAAX_J0@Z ; Eigen::internal::generic_dense_assignment_kernel<Eigen::internal::evaluator<Eigen::Matrix<float,9000,1,0,9000,1> >,Eigen::internal::evaluator<Eigen::Matrix<float,9000,1,0,9000,1> >,Eigen::internal::swap_assign_op<float>,0>::assignPacketByOuterInner<16,16,__m128>
PUBLIC	??$run@V?$generic_dense_assignment_kernel@U?$evaluator@V?$Matrix@M$04$0HAI@$0A@$04$0HAI@@Eigen@@@internal@Eigen@@U123@U?$swap_assign_op@M@23@$0A@@internal@Eigen@@@?$unaligned_dense_assignment_loop@$0A@@internal@Eigen@@SAXAEAV?$generic_dense_assignment_kernel@U?$evaluator@V?$Matrix@M$04$0HAI@$0A@$04$0HAI@@Eigen@@@internal@Eigen@@U123@U?$swap_assign_op@M@23@$0A@@12@_J1@Z ; Eigen::internal::unaligned_dense_assignment_loop<0>::run<Eigen::internal::generic_dense_assignment_kernel<Eigen::internal::evaluator<Eigen::Matrix<float,5,1800,0,5,1800> >,Eigen::internal::evaluator<Eigen::Matrix<float,5,1800,0,5,1800> >,Eigen::internal::swap_assign_op<float>,0> >
PUBLIC	??$assignPacket@$0BA@$0BA@T__m128@@@?$generic_dense_assignment_kernel@U?$evaluator@V?$Matrix@M$04$0HAI@$0A@$04$0HAI@@Eigen@@@internal@Eigen@@U123@U?$swap_assign_op@M@23@$0A@@internal@Eigen@@QEAAX_J@Z ; Eigen::internal::generic_dense_assignment_kernel<Eigen::internal::evaluator<Eigen::Matrix<float,5,1800,0,5,1800> >,Eigen::internal::evaluator<Eigen::Matrix<float,5,1800,0,5,1800> >,Eigen::internal::swap_assign_op<float>,0>::assignPacket<16,16,__m128>
PUBLIC	??$run@V?$generic_dense_assignment_kernel@U?$evaluator@V?$Matrix@M$04$0HAI@$0A@$04$0HAI@@Eigen@@@internal@Eigen@@U123@U?$swap_assign_op@M@23@$0A@@internal@Eigen@@@?$unaligned_dense_assignment_loop@$00@internal@Eigen@@SAXAEAV?$generic_dense_assignment_kernel@U?$evaluator@V?$Matrix@M$04$0HAI@$0A@$04$0HAI@@Eigen@@@internal@Eigen@@U123@U?$swap_assign_op@M@23@$0A@@12@_J1@Z ; Eigen::internal::unaligned_dense_assignment_loop<1>::run<Eigen::internal::generic_dense_assignment_kernel<Eigen::internal::evaluator<Eigen::Matrix<float,5,1800,0,5,1800> >,Eigen::internal::evaluator<Eigen::Matrix<float,5,1800,0,5,1800> >,Eigen::internal::swap_assign_op<float>,0> >
PUBLIC	??$first_aligned@$0BA@M_J@internal@Eigen@@YA_JPEBM_J@Z ; Eigen::internal::first_aligned<16,float,__int64>
PUBLIC	??$resize_if_allowed@V?$Matrix@M$04$0HAI@$0A@$04$0HAI@@Eigen@@V12@U?$swap_assign_op@M@internal@2@@internal@Eigen@@YAXAEAV?$Matrix@M$04$0HAI@$0A@$04$0HAI@@1@AEBV21@AEBU?$swap_assign_op@M@01@@Z ; Eigen::internal::resize_if_allowed<Eigen::Matrix<float,5,1800,0,5,1800>,Eigen::Matrix<float,5,1800,0,5,1800>,Eigen::internal::swap_assign_op<float> >
PUBLIC	??$resize_if_allowed@V?$Matrix@M$01$01$0A@$01$01@Eigen@@V12@U?$swap_assign_op@M@internal@2@@internal@Eigen@@YAXAEAV?$Matrix@M$01$01$0A@$01$01@1@AEBV21@AEBU?$swap_assign_op@M@01@@Z ; Eigen::internal::resize_if_allowed<Eigen::Matrix<float,2,2,0,2,2>,Eigen::Matrix<float,2,2,0,2,2>,Eigen::internal::swap_assign_op<float> >
PUBLIC	??$resize_if_allowed@V?$Matrix@M$0CDCI@$00$0A@$0CDCI@$00@Eigen@@V12@U?$swap_assign_op@M@internal@2@@internal@Eigen@@YAXAEAV?$Matrix@M$0CDCI@$00$0A@$0CDCI@$00@1@AEBV21@AEBU?$swap_assign_op@M@01@@Z ; Eigen::internal::resize_if_allowed<Eigen::Matrix<float,9000,1,0,9000,1>,Eigen::Matrix<float,9000,1,0,9000,1>,Eigen::internal::swap_assign_op<float> >
PUBLIC	??$resize_if_allowed@V?$Matrix@M$03$0FNM@$0A@$03$0FNM@@Eigen@@V12@U?$swap_assign_op@M@internal@2@@internal@Eigen@@YAXAEAV?$Matrix@M$03$0FNM@$0A@$03$0FNM@@1@AEBV21@AEBU?$swap_assign_op@M@01@@Z ; Eigen::internal::resize_if_allowed<Eigen::Matrix<float,4,1500,0,4,1500>,Eigen::Matrix<float,4,1500,0,4,1500>,Eigen::internal::swap_assign_op<float> >
PUBLIC	??$resize_if_allowed@V?$Matrix@M$0BHHA@$00$0A@$0BHHA@$00@Eigen@@V12@U?$swap_assign_op@M@internal@2@@internal@Eigen@@YAXAEAV?$Matrix@M$0BHHA@$00$0A@$0BHHA@$00@1@AEBV21@AEBU?$swap_assign_op@M@01@@Z ; Eigen::internal::resize_if_allowed<Eigen::Matrix<float,6000,1,0,6000,1>,Eigen::Matrix<float,6000,1,0,6000,1>,Eigen::internal::swap_assign_op<float> >
PUBLIC	??$resize_if_allowed@V?$Matrix@M$02$0ELA@$0A@$02$0ELA@@Eigen@@V12@U?$swap_assign_op@M@internal@2@@internal@Eigen@@YAXAEAV?$Matrix@M$02$0ELA@$0A@$02$0ELA@@1@AEBV21@AEBU?$swap_assign_op@M@01@@Z ; Eigen::internal::resize_if_allowed<Eigen::Matrix<float,3,1200,0,3,1200>,Eigen::Matrix<float,3,1200,0,3,1200>,Eigen::internal::swap_assign_op<float> >
PUBLIC	??$resize_if_allowed@V?$Matrix@M$0OBA@$00$0A@$0OBA@$00@Eigen@@V12@U?$swap_assign_op@M@internal@2@@internal@Eigen@@YAXAEAV?$Matrix@M$0OBA@$00$0A@$0OBA@$00@1@AEBV21@AEBU?$swap_assign_op@M@01@@Z ; Eigen::internal::resize_if_allowed<Eigen::Matrix<float,3600,1,0,3600,1>,Eigen::Matrix<float,3600,1,0,3600,1>,Eigen::internal::swap_assign_op<float> >
PUBLIC	??$resize_if_allowed@V?$Matrix@M$01$0DIE@$0A@$01$0DIE@@Eigen@@V12@U?$swap_assign_op@M@internal@2@@internal@Eigen@@YAXAEAV?$Matrix@M$01$0DIE@$0A@$01$0DIE@@1@AEBV21@AEBU?$swap_assign_op@M@01@@Z ; Eigen::internal::resize_if_allowed<Eigen::Matrix<float,2,900,0,2,900>,Eigen::Matrix<float,2,900,0,2,900>,Eigen::internal::swap_assign_op<float> >
PUBLIC	??$resize_if_allowed@V?$Matrix@M$0HAI@$00$0A@$0HAI@$00@Eigen@@V12@U?$swap_assign_op@M@internal@2@@internal@Eigen@@YAXAEAV?$Matrix@M$0HAI@$00$0A@$0HAI@$00@1@AEBV21@AEBU?$swap_assign_op@M@01@@Z ; Eigen::internal::resize_if_allowed<Eigen::Matrix<float,1800,1,0,1800,1>,Eigen::Matrix<float,1800,1,0,1800,1>,Eigen::internal::swap_assign_op<float> >
PUBLIC	??$resize_if_allowed@V?$Matrix@M$00$0CFI@$00$00$0CFI@@Eigen@@V12@U?$swap_assign_op@M@internal@2@@internal@Eigen@@YAXAEAV?$Matrix@M$00$0CFI@$00$00$0CFI@@1@AEBV21@AEBU?$swap_assign_op@M@01@@Z ; Eigen::internal::resize_if_allowed<Eigen::Matrix<float,1,600,1,1,600>,Eigen::Matrix<float,1,600,1,1,600>,Eigen::internal::swap_assign_op<float> >
PUBLIC	??$resize_if_allowed@V?$Matrix@M$0CFI@$00$0A@$0CFI@$00@Eigen@@V12@U?$swap_assign_op@M@internal@2@@internal@Eigen@@YAXAEAV?$Matrix@M$0CFI@$00$0A@$0CFI@$00@1@AEBV21@AEBU?$swap_assign_op@M@01@@Z ; Eigen::internal::resize_if_allowed<Eigen::Matrix<float,600,1,0,600,1>,Eigen::Matrix<float,600,1,0,600,1>,Eigen::internal::swap_assign_op<float> >
PUBLIC	??$resize_if_allowed@V?$Matrix@M$00$00$0A@$00$00@Eigen@@V12@U?$swap_assign_op@M@internal@2@@internal@Eigen@@YAXAEAV?$Matrix@M$00$00$0A@$00$00@1@AEBV21@AEBU?$swap_assign_op@M@01@@Z ; Eigen::internal::resize_if_allowed<Eigen::Matrix<float,1,1,0,1,1>,Eigen::Matrix<float,1,1,0,1,1>,Eigen::internal::swap_assign_op<float> >
PUBLIC	??$resize_if_allowed@V?$Matrix@M$0CFI@$0CFI@$0A@$0CFI@$0CFI@@Eigen@@V12@U?$swap_assign_op@M@internal@2@@internal@Eigen@@YAXAEAV?$Matrix@M$0CFI@$0CFI@$0A@$0CFI@$0CFI@@1@AEBV21@AEBU?$swap_assign_op@M@01@@Z ; Eigen::internal::resize_if_allowed<Eigen::Matrix<float,600,600,0,600,600>,Eigen::Matrix<float,600,600,0,600,600>,Eigen::internal::swap_assign_op<float> >
PUBLIC	??$get@$0A@AEB_K@std@@YAAEB_K$$QEAV?$tuple@AEB_K@0@@Z ; std::get<0,unsigned __int64 const &>
PUBLIC	??$move@AEAV?$tuple@AEB_K@std@@@std@@YA$$QEAV?$tuple@AEB_K@0@AEAV10@@Z ; std::move<std::tuple<unsigned __int64 const &> &>
PUBLIC	??$?0AEAH@?$_Tuple_val@H@std@@QEAA@AEAH@Z	; std::_Tuple_val<int>::_Tuple_val<int><int &>
PUBLIC	??$?0U_Exact_args_t@std@@V?$reference_wrapper@V?$vector@UGame@uci@@V?$allocator@UGame@uci@@@std@@@std@@@1@V?$reference_wrapper@V?$vector@MV?$allocator@M@std@@@std@@@1@V?$reference_wrapper@H@1@V?$reference_wrapper@VNN@@@1@$0A@@?$tuple@V?$reference_wrapper@V?$vector@UGame@uci@@V?$allocator@UGame@uci@@@std@@@std@@@std@@V?$reference_wrapper@V?$vector@MV?$allocator@M@std@@@std@@@2@V?$reference_wrapper@H@2@V?$reference_wrapper@VNN@@@2@@std@@QEAA@U_Exact_args_t@1@$$QEAV?$reference_wrapper@V?$vector@UGame@uci@@V?$allocator@UGame@uci@@@std@@@std@@@1@$$QEAV?$reference_wrapper@V?$vector@MV?$allocator@M@std@@@std@@@1@$$QEAV?$reference_wrapper@H@1@$$QEAV?$reference_wrapper@VNN@@@1@@Z ; std::tuple<std::reference_wrapper<std::vector<uci::Game,std::allocator<uci::Game> > >,std::reference_wrapper<std::vector<float,std::allocator<float> > >,std::reference_wrapper<int>,std::reference_wrapper<NN> >::tuple<std::reference_wrapper<std::vector<uci::Game,std::allocator<uci::Game> > >,std::reference_wrapper<std::vector<float,std::allocator<float> > >,std::reference_wrapper<int>,std::reference_wrapper<NN> ><std::_Exact_args_t,std::reference_wrapper<std::vector<uci::Game,std::allocator<uci::Game> > >,std::reference_wrapper<std::vector<float,std::allocator<float> > >,std::reference_wrapper<int>,std::reference_wrapper<NN>,0>
PUBLIC	??$duration_cast@V?$duration@NU?$ratio@$00$0DLJKMKAA@@std@@@chrono@std@@_JU?$ratio@$00$0DLJKMKAA@@3@$0A@@chrono@std@@YA?AV?$duration@NU?$ratio@$00$0DLJKMKAA@@std@@@01@AEBV?$duration@_JU?$ratio@$00$0DLJKMKAA@@std@@@01@@Z ; std::chrono::duration_cast<std::chrono::duration<double,std::ratio<1,1000000000> >,__int64,std::ratio<1,1000000000>,0>
PUBLIC	??$duration_cast@V?$duration@NU?$ratio@$00$0DLJKMKAA@@std@@@chrono@std@@NU?$ratio@$00$00@3@$0A@@chrono@std@@YA?AV?$duration@NU?$ratio@$00$0DLJKMKAA@@std@@@01@AEBV?$duration@NU?$ratio@$00$00@std@@@01@@Z ; std::chrono::duration_cast<std::chrono::duration<double,std::ratio<1,1000000000> >,double,std::ratio<1,1>,0>
PUBLIC	?rows@?$DenseStorage@M$03$01$01$0A@@Eigen@@SA_JXZ ; Eigen::DenseStorage<float,4,2,2,0>::rows
PUBLIC	?cols@?$DenseStorage@M$03$01$01$0A@@Eigen@@SA_JXZ ; Eigen::DenseStorage<float,4,2,2,0>::cols
PUBLIC	?rows@?$PlainObjectBase@V?$Matrix@M$01$01$0A@$01$01@Eigen@@@Eigen@@QEBA_JXZ ; Eigen::PlainObjectBase<Eigen::Matrix<float,2,2,0,2,2> >::rows
PUBLIC	?cols@?$PlainObjectBase@V?$Matrix@M$01$01$0A@$01$01@Eigen@@@Eigen@@QEBA_JXZ ; Eigen::PlainObjectBase<Eigen::Matrix<float,2,2,0,2,2> >::cols
PUBLIC	?rows@?$DenseStorage@M$0CDCI@$04$0HAI@$0A@@Eigen@@SA_JXZ ; Eigen::DenseStorage<float,9000,5,1800,0>::rows
PUBLIC	?cols@?$DenseStorage@M$0CDCI@$04$0HAI@$0A@@Eigen@@SA_JXZ ; Eigen::DenseStorage<float,9000,5,1800,0>::cols
PUBLIC	?rows@?$EigenBase@V?$Matrix@M$01$01$0A@$01$01@Eigen@@@Eigen@@QEBA_JXZ ; Eigen::EigenBase<Eigen::Matrix<float,2,2,0,2,2> >::rows
PUBLIC	?cols@?$EigenBase@V?$Matrix@M$01$01$0A@$01$01@Eigen@@@Eigen@@QEBA_JXZ ; Eigen::EigenBase<Eigen::Matrix<float,2,2,0,2,2> >::cols
PUBLIC	?size@?$EigenBase@V?$Matrix@M$01$01$0A@$01$01@Eigen@@@Eigen@@QEBA_JXZ ; Eigen::EigenBase<Eigen::Matrix<float,2,2,0,2,2> >::size
PUBLIC	?rows@?$DenseStorage@M$0CDCI@$0CDCI@$00$0A@@Eigen@@SA_JXZ ; Eigen::DenseStorage<float,9000,9000,1,0>::rows
PUBLIC	?cols@?$DenseStorage@M$0CDCI@$0CDCI@$00$0A@@Eigen@@SA_JXZ ; Eigen::DenseStorage<float,9000,9000,1,0>::cols
PUBLIC	?size@?$EigenBase@V?$Matrix@M$03$0FNM@$0A@$03$0FNM@@Eigen@@@Eigen@@QEBA_JXZ ; Eigen::EigenBase<Eigen::Matrix<float,4,1500,0,4,1500> >::size
PUBLIC	?rows@?$DenseStorage@M$0BHHA@$03$0FNM@$0A@@Eigen@@SA_JXZ ; Eigen::DenseStorage<float,6000,4,1500,0>::rows
PUBLIC	?cols@?$DenseStorage@M$0BHHA@$03$0FNM@$0A@@Eigen@@SA_JXZ ; Eigen::DenseStorage<float,6000,4,1500,0>::cols
PUBLIC	?rows@?$DenseStorage@M$0BHHA@$0BHHA@$00$0A@@Eigen@@SA_JXZ ; Eigen::DenseStorage<float,6000,6000,1,0>::rows
PUBLIC	?cols@?$DenseStorage@M$0BHHA@$0BHHA@$00$0A@@Eigen@@SA_JXZ ; Eigen::DenseStorage<float,6000,6000,1,0>::cols
PUBLIC	?rows@?$DenseStorage@M$0OBA@$02$0ELA@$0A@@Eigen@@SA_JXZ ; Eigen::DenseStorage<float,3600,3,1200,0>::rows
PUBLIC	?cols@?$DenseStorage@M$0OBA@$02$0ELA@$0A@@Eigen@@SA_JXZ ; Eigen::DenseStorage<float,3600,3,1200,0>::cols
PUBLIC	?rows@?$DenseStorage@M$0OBA@$0OBA@$00$0A@@Eigen@@SA_JXZ ; Eigen::DenseStorage<float,3600,3600,1,0>::rows
PUBLIC	?cols@?$DenseStorage@M$0OBA@$0OBA@$00$0A@@Eigen@@SA_JXZ ; Eigen::DenseStorage<float,3600,3600,1,0>::cols
PUBLIC	?rows@?$DenseStorage@M$0HAI@$01$0DIE@$0A@@Eigen@@SA_JXZ ; Eigen::DenseStorage<float,1800,2,900,0>::rows
PUBLIC	?cols@?$DenseStorage@M$0HAI@$01$0DIE@$0A@@Eigen@@SA_JXZ ; Eigen::DenseStorage<float,1800,2,900,0>::cols
PUBLIC	?rows@?$DenseStorage@M$0HAI@$0HAI@$00$0A@@Eigen@@SA_JXZ ; Eigen::DenseStorage<float,1800,1800,1,0>::rows
PUBLIC	?cols@?$DenseStorage@M$0HAI@$0HAI@$00$0A@@Eigen@@SA_JXZ ; Eigen::DenseStorage<float,1800,1800,1,0>::cols
PUBLIC	?rows@?$DenseStorage@M$0CFI@$00$0CFI@$00@Eigen@@SA_JXZ ; Eigen::DenseStorage<float,600,1,600,1>::rows
PUBLIC	?cols@?$DenseStorage@M$0CFI@$00$0CFI@$00@Eigen@@SA_JXZ ; Eigen::DenseStorage<float,600,1,600,1>::cols
PUBLIC	?rows@?$DenseStorage@M$0CFI@$0CFI@$00$0A@@Eigen@@SA_JXZ ; Eigen::DenseStorage<float,600,600,1,0>::rows
PUBLIC	?cols@?$DenseStorage@M$0CFI@$0CFI@$00$0A@@Eigen@@SA_JXZ ; Eigen::DenseStorage<float,600,600,1,0>::cols
PUBLIC	?rows@?$DenseStorage@M$0FHOEA@$0CFI@$0CFI@$0A@@Eigen@@SA_JXZ ; Eigen::DenseStorage<float,360000,600,600,0>::rows
PUBLIC	?cols@?$DenseStorage@M$0FHOEA@$0CFI@$0CFI@$0A@@Eigen@@SA_JXZ ; Eigen::DenseStorage<float,360000,600,600,0>::cols
PUBLIC	?outerStride@?$plainobjectbase_evaluator_data@M$0A@@internal@Eigen@@QEBA_JXZ ; Eigen::internal::plainobjectbase_evaluator_data<float,0>::outerStride
PUBLIC	?innerSize@?$DenseBase@V?$Matrix@M$04$0HAI@$0A@$04$0HAI@@Eigen@@@Eigen@@QEBA_JXZ ; Eigen::DenseBase<Eigen::Matrix<float,5,1800,0,5,1800> >::innerSize
PUBLIC	?rows@?$PlainObjectBase@V?$Matrix@M$04$0HAI@$0A@$04$0HAI@@Eigen@@@Eigen@@QEBA_JXZ ; Eigen::PlainObjectBase<Eigen::Matrix<float,5,1800,0,5,1800> >::rows
PUBLIC	?cols@?$PlainObjectBase@V?$Matrix@M$04$0HAI@$0A@$04$0HAI@@Eigen@@@Eigen@@QEBA_JXZ ; Eigen::PlainObjectBase<Eigen::Matrix<float,5,1800,0,5,1800> >::cols
PUBLIC	?innerSize@?$DenseBase@V?$Matrix@M$01$01$0A@$01$01@Eigen@@@Eigen@@QEBA_JXZ ; Eigen::DenseBase<Eigen::Matrix<float,2,2,0,2,2> >::innerSize
PUBLIC	?rows@?$PlainObjectBase@V?$Matrix@M$0CDCI@$00$0A@$0CDCI@$00@Eigen@@@Eigen@@QEBA_JXZ ; Eigen::PlainObjectBase<Eigen::Matrix<float,9000,1,0,9000,1> >::rows
PUBLIC	?cols@?$PlainObjectBase@V?$Matrix@M$0CDCI@$00$0A@$0CDCI@$00@Eigen@@@Eigen@@QEBA_JXZ ; Eigen::PlainObjectBase<Eigen::Matrix<float,9000,1,0,9000,1> >::cols
PUBLIC	?innerSize@?$DenseBase@V?$Matrix@M$03$0FNM@$0A@$03$0FNM@@Eigen@@@Eigen@@QEBA_JXZ ; Eigen::DenseBase<Eigen::Matrix<float,4,1500,0,4,1500> >::innerSize
PUBLIC	?rows@?$PlainObjectBase@V?$Matrix@M$03$0FNM@$0A@$03$0FNM@@Eigen@@@Eigen@@QEBA_JXZ ; Eigen::PlainObjectBase<Eigen::Matrix<float,4,1500,0,4,1500> >::rows
PUBLIC	?cols@?$PlainObjectBase@V?$Matrix@M$03$0FNM@$0A@$03$0FNM@@Eigen@@@Eigen@@QEBA_JXZ ; Eigen::PlainObjectBase<Eigen::Matrix<float,4,1500,0,4,1500> >::cols
PUBLIC	?rows@?$PlainObjectBase@V?$Matrix@M$0BHHA@$00$0A@$0BHHA@$00@Eigen@@@Eigen@@QEBA_JXZ ; Eigen::PlainObjectBase<Eigen::Matrix<float,6000,1,0,6000,1> >::rows
PUBLIC	?cols@?$PlainObjectBase@V?$Matrix@M$0BHHA@$00$0A@$0BHHA@$00@Eigen@@@Eigen@@QEBA_JXZ ; Eigen::PlainObjectBase<Eigen::Matrix<float,6000,1,0,6000,1> >::cols
PUBLIC	?innerSize@?$DenseBase@V?$Matrix@M$02$0ELA@$0A@$02$0ELA@@Eigen@@@Eigen@@QEBA_JXZ ; Eigen::DenseBase<Eigen::Matrix<float,3,1200,0,3,1200> >::innerSize
PUBLIC	?rows@?$PlainObjectBase@V?$Matrix@M$02$0ELA@$0A@$02$0ELA@@Eigen@@@Eigen@@QEBA_JXZ ; Eigen::PlainObjectBase<Eigen::Matrix<float,3,1200,0,3,1200> >::rows
PUBLIC	?cols@?$PlainObjectBase@V?$Matrix@M$02$0ELA@$0A@$02$0ELA@@Eigen@@@Eigen@@QEBA_JXZ ; Eigen::PlainObjectBase<Eigen::Matrix<float,3,1200,0,3,1200> >::cols
PUBLIC	?rows@?$PlainObjectBase@V?$Matrix@M$0OBA@$00$0A@$0OBA@$00@Eigen@@@Eigen@@QEBA_JXZ ; Eigen::PlainObjectBase<Eigen::Matrix<float,3600,1,0,3600,1> >::rows
PUBLIC	?cols@?$PlainObjectBase@V?$Matrix@M$0OBA@$00$0A@$0OBA@$00@Eigen@@@Eigen@@QEBA_JXZ ; Eigen::PlainObjectBase<Eigen::Matrix<float,3600,1,0,3600,1> >::cols
PUBLIC	?innerSize@?$DenseBase@V?$Matrix@M$01$0DIE@$0A@$01$0DIE@@Eigen@@@Eigen@@QEBA_JXZ ; Eigen::DenseBase<Eigen::Matrix<float,2,900,0,2,900> >::innerSize
PUBLIC	?rows@?$PlainObjectBase@V?$Matrix@M$01$0DIE@$0A@$01$0DIE@@Eigen@@@Eigen@@QEBA_JXZ ; Eigen::PlainObjectBase<Eigen::Matrix<float,2,900,0,2,900> >::rows
PUBLIC	?cols@?$PlainObjectBase@V?$Matrix@M$01$0DIE@$0A@$01$0DIE@@Eigen@@@Eigen@@QEBA_JXZ ; Eigen::PlainObjectBase<Eigen::Matrix<float,2,900,0,2,900> >::cols
PUBLIC	?rows@?$PlainObjectBase@V?$Matrix@M$0HAI@$00$0A@$0HAI@$00@Eigen@@@Eigen@@QEBA_JXZ ; Eigen::PlainObjectBase<Eigen::Matrix<float,1800,1,0,1800,1> >::rows
PUBLIC	?cols@?$PlainObjectBase@V?$Matrix@M$0HAI@$00$0A@$0HAI@$00@Eigen@@@Eigen@@QEBA_JXZ ; Eigen::PlainObjectBase<Eigen::Matrix<float,1800,1,0,1800,1> >::cols
PUBLIC	?rows@?$PlainObjectBase@V?$Matrix@M$00$0CFI@$00$00$0CFI@@Eigen@@@Eigen@@QEBA_JXZ ; Eigen::PlainObjectBase<Eigen::Matrix<float,1,600,1,1,600> >::rows
PUBLIC	?cols@?$PlainObjectBase@V?$Matrix@M$00$0CFI@$00$00$0CFI@@Eigen@@@Eigen@@QEBA_JXZ ; Eigen::PlainObjectBase<Eigen::Matrix<float,1,600,1,1,600> >::cols
PUBLIC	?rows@?$PlainObjectBase@V?$Matrix@M$0CFI@$00$0A@$0CFI@$00@Eigen@@@Eigen@@QEBA_JXZ ; Eigen::PlainObjectBase<Eigen::Matrix<float,600,1,0,600,1> >::rows
PUBLIC	?cols@?$PlainObjectBase@V?$Matrix@M$0CFI@$00$0A@$0CFI@$00@Eigen@@@Eigen@@QEBA_JXZ ; Eigen::PlainObjectBase<Eigen::Matrix<float,600,1,0,600,1> >::cols
PUBLIC	?innerSize@?$DenseBase@V?$Matrix@M$00$00$0A@$00$00@Eigen@@@Eigen@@QEBA_JXZ ; Eigen::DenseBase<Eigen::Matrix<float,1,1,0,1,1> >::innerSize
PUBLIC	?rows@?$PlainObjectBase@V?$Matrix@M$0CFI@$0CFI@$0A@$0CFI@$0CFI@@Eigen@@@Eigen@@QEBA_JXZ ; Eigen::PlainObjectBase<Eigen::Matrix<float,600,600,0,600,600> >::rows
PUBLIC	?cols@?$PlainObjectBase@V?$Matrix@M$0CFI@$0CFI@$0A@$0CFI@$0CFI@@Eigen@@@Eigen@@QEBA_JXZ ; Eigen::PlainObjectBase<Eigen::Matrix<float,600,600,0,600,600> >::cols
PUBLIC	?assignCoeff@?$swap_assign_op@M@internal@Eigen@@QEBAXAEAMAEBM@Z ; Eigen::internal::swap_assign_op<float>::assignCoeff
PUBLIC	?coeff@?$evaluator@V?$PlainObjectBase@V?$Matrix@M$00$00$0A@$00$00@Eigen@@@Eigen@@@internal@Eigen@@QEBAAEBM_J0@Z ; Eigen::internal::evaluator<Eigen::PlainObjectBase<Eigen::Matrix<float,1,1,0,1,1> > >::coeff
PUBLIC	?coeffRef@?$evaluator@V?$PlainObjectBase@V?$Matrix@M$00$00$0A@$00$00@Eigen@@@Eigen@@@internal@Eigen@@QEAAAEAM_J0@Z ; Eigen::internal::evaluator<Eigen::PlainObjectBase<Eigen::Matrix<float,1,1,0,1,1> > >::coeffRef
PUBLIC	?derived@?$EigenBase@V?$Matrix@M$04$0HAI@$0A@$04$0HAI@@Eigen@@@Eigen@@QEBAAEBV?$Matrix@M$04$0HAI@$0A@$04$0HAI@@2@XZ ; Eigen::EigenBase<Eigen::Matrix<float,5,1800,0,5,1800> >::derived
PUBLIC	?rows@?$EigenBase@V?$Matrix@M$04$0HAI@$0A@$04$0HAI@@Eigen@@@Eigen@@QEBA_JXZ ; Eigen::EigenBase<Eigen::Matrix<float,5,1800,0,5,1800> >::rows
PUBLIC	?cols@?$EigenBase@V?$Matrix@M$04$0HAI@$0A@$04$0HAI@@Eigen@@@Eigen@@QEBA_JXZ ; Eigen::EigenBase<Eigen::Matrix<float,5,1800,0,5,1800> >::cols
PUBLIC	?data@?$DenseStorage@M$0CDCI@$04$0HAI@$0A@@Eigen@@QEBAPEBMXZ ; Eigen::DenseStorage<float,9000,5,1800,0>::data
PUBLIC	?data@?$DenseStorage@M$0CDCI@$04$0HAI@$0A@@Eigen@@QEAAPEAMXZ ; Eigen::DenseStorage<float,9000,5,1800,0>::data
PUBLIC	?outerStride@?$Matrix@M$04$0HAI@$0A@$04$0HAI@@Eigen@@QEBA_JXZ ; Eigen::Matrix<float,5,1800,0,5,1800>::outerStride
PUBLIC	?derived@?$EigenBase@V?$Matrix@M$01$01$0A@$01$01@Eigen@@@Eigen@@QEBAAEBV?$Matrix@M$01$01$0A@$01$01@2@XZ ; Eigen::EigenBase<Eigen::Matrix<float,2,2,0,2,2> >::derived
PUBLIC	?data@?$DenseStorage@M$03$01$01$0A@@Eigen@@QEBAPEBMXZ ; Eigen::DenseStorage<float,4,2,2,0>::data
PUBLIC	?outerStride@?$Matrix@M$01$01$0A@$01$01@Eigen@@QEBA_JXZ ; Eigen::Matrix<float,2,2,0,2,2>::outerStride
PUBLIC	?derived@?$EigenBase@V?$Matrix@M$0CDCI@$00$0A@$0CDCI@$00@Eigen@@@Eigen@@QEBAAEBV?$Matrix@M$0CDCI@$00$0A@$0CDCI@$00@2@XZ ; Eigen::EigenBase<Eigen::Matrix<float,9000,1,0,9000,1> >::derived
PUBLIC	?rows@?$EigenBase@V?$Matrix@M$0CDCI@$00$0A@$0CDCI@$00@Eigen@@@Eigen@@QEBA_JXZ ; Eigen::EigenBase<Eigen::Matrix<float,9000,1,0,9000,1> >::rows
PUBLIC	?cols@?$EigenBase@V?$Matrix@M$0CDCI@$00$0A@$0CDCI@$00@Eigen@@@Eigen@@QEBA_JXZ ; Eigen::EigenBase<Eigen::Matrix<float,9000,1,0,9000,1> >::cols
PUBLIC	?size@?$EigenBase@V?$Matrix@M$0CDCI@$00$0A@$0CDCI@$00@Eigen@@@Eigen@@QEBA_JXZ ; Eigen::EigenBase<Eigen::Matrix<float,9000,1,0,9000,1> >::size
PUBLIC	?data@?$DenseStorage@M$0CDCI@$0CDCI@$00$0A@@Eigen@@QEBAPEBMXZ ; Eigen::DenseStorage<float,9000,9000,1,0>::data
PUBLIC	?outerStride@?$Matrix@M$0CDCI@$00$0A@$0CDCI@$00@Eigen@@QEBA_JXZ ; Eigen::Matrix<float,9000,1,0,9000,1>::outerStride
PUBLIC	?derived@?$EigenBase@V?$Matrix@M$03$0FNM@$0A@$03$0FNM@@Eigen@@@Eigen@@QEBAAEBV?$Matrix@M$03$0FNM@$0A@$03$0FNM@@2@XZ ; Eigen::EigenBase<Eigen::Matrix<float,4,1500,0,4,1500> >::derived
PUBLIC	?rows@?$EigenBase@V?$Matrix@M$03$0FNM@$0A@$03$0FNM@@Eigen@@@Eigen@@QEBA_JXZ ; Eigen::EigenBase<Eigen::Matrix<float,4,1500,0,4,1500> >::rows
PUBLIC	?cols@?$EigenBase@V?$Matrix@M$03$0FNM@$0A@$03$0FNM@@Eigen@@@Eigen@@QEBA_JXZ ; Eigen::EigenBase<Eigen::Matrix<float,4,1500,0,4,1500> >::cols
PUBLIC	?data@?$DenseStorage@M$0BHHA@$03$0FNM@$0A@@Eigen@@QEBAPEBMXZ ; Eigen::DenseStorage<float,6000,4,1500,0>::data
PUBLIC	?outerStride@?$Matrix@M$03$0FNM@$0A@$03$0FNM@@Eigen@@QEBA_JXZ ; Eigen::Matrix<float,4,1500,0,4,1500>::outerStride
PUBLIC	?derived@?$EigenBase@V?$Matrix@M$0BHHA@$00$0A@$0BHHA@$00@Eigen@@@Eigen@@QEBAAEBV?$Matrix@M$0BHHA@$00$0A@$0BHHA@$00@2@XZ ; Eigen::EigenBase<Eigen::Matrix<float,6000,1,0,6000,1> >::derived
PUBLIC	?rows@?$EigenBase@V?$Matrix@M$0BHHA@$00$0A@$0BHHA@$00@Eigen@@@Eigen@@QEBA_JXZ ; Eigen::EigenBase<Eigen::Matrix<float,6000,1,0,6000,1> >::rows
PUBLIC	?cols@?$EigenBase@V?$Matrix@M$0BHHA@$00$0A@$0BHHA@$00@Eigen@@@Eigen@@QEBA_JXZ ; Eigen::EigenBase<Eigen::Matrix<float,6000,1,0,6000,1> >::cols
PUBLIC	?size@?$EigenBase@V?$Matrix@M$0BHHA@$00$0A@$0BHHA@$00@Eigen@@@Eigen@@QEBA_JXZ ; Eigen::EigenBase<Eigen::Matrix<float,6000,1,0,6000,1> >::size
PUBLIC	?data@?$DenseStorage@M$0BHHA@$0BHHA@$00$0A@@Eigen@@QEBAPEBMXZ ; Eigen::DenseStorage<float,6000,6000,1,0>::data
PUBLIC	?outerStride@?$Matrix@M$0BHHA@$00$0A@$0BHHA@$00@Eigen@@QEBA_JXZ ; Eigen::Matrix<float,6000,1,0,6000,1>::outerStride
PUBLIC	?derived@?$EigenBase@V?$Matrix@M$02$0ELA@$0A@$02$0ELA@@Eigen@@@Eigen@@QEBAAEBV?$Matrix@M$02$0ELA@$0A@$02$0ELA@@2@XZ ; Eigen::EigenBase<Eigen::Matrix<float,3,1200,0,3,1200> >::derived
PUBLIC	?rows@?$EigenBase@V?$Matrix@M$02$0ELA@$0A@$02$0ELA@@Eigen@@@Eigen@@QEBA_JXZ ; Eigen::EigenBase<Eigen::Matrix<float,3,1200,0,3,1200> >::rows
PUBLIC	?cols@?$EigenBase@V?$Matrix@M$02$0ELA@$0A@$02$0ELA@@Eigen@@@Eigen@@QEBA_JXZ ; Eigen::EigenBase<Eigen::Matrix<float,3,1200,0,3,1200> >::cols
PUBLIC	?data@?$DenseStorage@M$0OBA@$02$0ELA@$0A@@Eigen@@QEBAPEBMXZ ; Eigen::DenseStorage<float,3600,3,1200,0>::data
PUBLIC	?data@?$DenseStorage@M$0OBA@$02$0ELA@$0A@@Eigen@@QEAAPEAMXZ ; Eigen::DenseStorage<float,3600,3,1200,0>::data
PUBLIC	?outerStride@?$Matrix@M$02$0ELA@$0A@$02$0ELA@@Eigen@@QEBA_JXZ ; Eigen::Matrix<float,3,1200,0,3,1200>::outerStride
PUBLIC	?derived@?$EigenBase@V?$Matrix@M$0OBA@$00$0A@$0OBA@$00@Eigen@@@Eigen@@QEBAAEBV?$Matrix@M$0OBA@$00$0A@$0OBA@$00@2@XZ ; Eigen::EigenBase<Eigen::Matrix<float,3600,1,0,3600,1> >::derived
PUBLIC	?rows@?$EigenBase@V?$Matrix@M$0OBA@$00$0A@$0OBA@$00@Eigen@@@Eigen@@QEBA_JXZ ; Eigen::EigenBase<Eigen::Matrix<float,3600,1,0,3600,1> >::rows
PUBLIC	?cols@?$EigenBase@V?$Matrix@M$0OBA@$00$0A@$0OBA@$00@Eigen@@@Eigen@@QEBA_JXZ ; Eigen::EigenBase<Eigen::Matrix<float,3600,1,0,3600,1> >::cols
PUBLIC	?size@?$EigenBase@V?$Matrix@M$0OBA@$00$0A@$0OBA@$00@Eigen@@@Eigen@@QEBA_JXZ ; Eigen::EigenBase<Eigen::Matrix<float,3600,1,0,3600,1> >::size
PUBLIC	?data@?$DenseStorage@M$0OBA@$0OBA@$00$0A@@Eigen@@QEBAPEBMXZ ; Eigen::DenseStorage<float,3600,3600,1,0>::data
PUBLIC	?outerStride@?$Matrix@M$0OBA@$00$0A@$0OBA@$00@Eigen@@QEBA_JXZ ; Eigen::Matrix<float,3600,1,0,3600,1>::outerStride
PUBLIC	?derived@?$EigenBase@V?$Matrix@M$01$0DIE@$0A@$01$0DIE@@Eigen@@@Eigen@@QEBAAEBV?$Matrix@M$01$0DIE@$0A@$01$0DIE@@2@XZ ; Eigen::EigenBase<Eigen::Matrix<float,2,900,0,2,900> >::derived
PUBLIC	?rows@?$EigenBase@V?$Matrix@M$01$0DIE@$0A@$01$0DIE@@Eigen@@@Eigen@@QEBA_JXZ ; Eigen::EigenBase<Eigen::Matrix<float,2,900,0,2,900> >::rows
PUBLIC	?cols@?$EigenBase@V?$Matrix@M$01$0DIE@$0A@$01$0DIE@@Eigen@@@Eigen@@QEBA_JXZ ; Eigen::EigenBase<Eigen::Matrix<float,2,900,0,2,900> >::cols
PUBLIC	?data@?$DenseStorage@M$0HAI@$01$0DIE@$0A@@Eigen@@QEBAPEBMXZ ; Eigen::DenseStorage<float,1800,2,900,0>::data
PUBLIC	?data@?$DenseStorage@M$0HAI@$01$0DIE@$0A@@Eigen@@QEAAPEAMXZ ; Eigen::DenseStorage<float,1800,2,900,0>::data
PUBLIC	?outerStride@?$Matrix@M$01$0DIE@$0A@$01$0DIE@@Eigen@@QEBA_JXZ ; Eigen::Matrix<float,2,900,0,2,900>::outerStride
PUBLIC	?derived@?$EigenBase@V?$Matrix@M$0HAI@$00$0A@$0HAI@$00@Eigen@@@Eigen@@QEBAAEBV?$Matrix@M$0HAI@$00$0A@$0HAI@$00@2@XZ ; Eigen::EigenBase<Eigen::Matrix<float,1800,1,0,1800,1> >::derived
PUBLIC	?rows@?$EigenBase@V?$Matrix@M$0HAI@$00$0A@$0HAI@$00@Eigen@@@Eigen@@QEBA_JXZ ; Eigen::EigenBase<Eigen::Matrix<float,1800,1,0,1800,1> >::rows
PUBLIC	?cols@?$EigenBase@V?$Matrix@M$0HAI@$00$0A@$0HAI@$00@Eigen@@@Eigen@@QEBA_JXZ ; Eigen::EigenBase<Eigen::Matrix<float,1800,1,0,1800,1> >::cols
PUBLIC	?size@?$EigenBase@V?$Matrix@M$0HAI@$00$0A@$0HAI@$00@Eigen@@@Eigen@@QEBA_JXZ ; Eigen::EigenBase<Eigen::Matrix<float,1800,1,0,1800,1> >::size
PUBLIC	?data@?$DenseStorage@M$0HAI@$0HAI@$00$0A@@Eigen@@QEBAPEBMXZ ; Eigen::DenseStorage<float,1800,1800,1,0>::data
PUBLIC	?outerStride@?$Matrix@M$0HAI@$00$0A@$0HAI@$00@Eigen@@QEBA_JXZ ; Eigen::Matrix<float,1800,1,0,1800,1>::outerStride
PUBLIC	?derived@?$EigenBase@V?$Matrix@M$00$0CFI@$00$00$0CFI@@Eigen@@@Eigen@@QEBAAEBV?$Matrix@M$00$0CFI@$00$00$0CFI@@2@XZ ; Eigen::EigenBase<Eigen::Matrix<float,1,600,1,1,600> >::derived
PUBLIC	?rows@?$EigenBase@V?$Matrix@M$00$0CFI@$00$00$0CFI@@Eigen@@@Eigen@@QEBA_JXZ ; Eigen::EigenBase<Eigen::Matrix<float,1,600,1,1,600> >::rows
PUBLIC	?cols@?$EigenBase@V?$Matrix@M$00$0CFI@$00$00$0CFI@@Eigen@@@Eigen@@QEBA_JXZ ; Eigen::EigenBase<Eigen::Matrix<float,1,600,1,1,600> >::cols
PUBLIC	?size@?$EigenBase@V?$Matrix@M$00$0CFI@$00$00$0CFI@@Eigen@@@Eigen@@QEBA_JXZ ; Eigen::EigenBase<Eigen::Matrix<float,1,600,1,1,600> >::size
PUBLIC	?data@?$DenseStorage@M$0CFI@$00$0CFI@$00@Eigen@@QEBAPEBMXZ ; Eigen::DenseStorage<float,600,1,600,1>::data
PUBLIC	?outerStride@?$Matrix@M$00$0CFI@$00$00$0CFI@@Eigen@@QEBA_JXZ ; Eigen::Matrix<float,1,600,1,1,600>::outerStride
PUBLIC	?derived@?$EigenBase@V?$Matrix@M$0CFI@$00$0A@$0CFI@$00@Eigen@@@Eigen@@QEBAAEBV?$Matrix@M$0CFI@$00$0A@$0CFI@$00@2@XZ ; Eigen::EigenBase<Eigen::Matrix<float,600,1,0,600,1> >::derived
PUBLIC	?rows@?$EigenBase@V?$Matrix@M$0CFI@$00$0A@$0CFI@$00@Eigen@@@Eigen@@QEBA_JXZ ; Eigen::EigenBase<Eigen::Matrix<float,600,1,0,600,1> >::rows
PUBLIC	?cols@?$EigenBase@V?$Matrix@M$0CFI@$00$0A@$0CFI@$00@Eigen@@@Eigen@@QEBA_JXZ ; Eigen::EigenBase<Eigen::Matrix<float,600,1,0,600,1> >::cols
PUBLIC	?size@?$EigenBase@V?$Matrix@M$0CFI@$00$0A@$0CFI@$00@Eigen@@@Eigen@@QEBA_JXZ ; Eigen::EigenBase<Eigen::Matrix<float,600,1,0,600,1> >::size
PUBLIC	?data@?$DenseStorage@M$0CFI@$0CFI@$00$0A@@Eigen@@QEBAPEBMXZ ; Eigen::DenseStorage<float,600,600,1,0>::data
PUBLIC	?outerStride@?$Matrix@M$0CFI@$00$0A@$0CFI@$00@Eigen@@QEBA_JXZ ; Eigen::Matrix<float,600,1,0,600,1>::outerStride
PUBLIC	?outerStride@?$Matrix@M$00$00$0A@$00$00@Eigen@@QEBA_JXZ ; Eigen::Matrix<float,1,1,0,1,1>::outerStride
PUBLIC	?derived@?$EigenBase@V?$Matrix@M$0CFI@$0CFI@$0A@$0CFI@$0CFI@@Eigen@@@Eigen@@QEBAAEBV?$Matrix@M$0CFI@$0CFI@$0A@$0CFI@$0CFI@@2@XZ ; Eigen::EigenBase<Eigen::Matrix<float,600,600,0,600,600> >::derived
PUBLIC	?rows@?$EigenBase@V?$Matrix@M$0CFI@$0CFI@$0A@$0CFI@$0CFI@@Eigen@@@Eigen@@QEBA_JXZ ; Eigen::EigenBase<Eigen::Matrix<float,600,600,0,600,600> >::rows
PUBLIC	?cols@?$EigenBase@V?$Matrix@M$0CFI@$0CFI@$0A@$0CFI@$0CFI@@Eigen@@@Eigen@@QEBA_JXZ ; Eigen::EigenBase<Eigen::Matrix<float,600,600,0,600,600> >::cols
PUBLIC	?size@?$EigenBase@V?$Matrix@M$0CFI@$0CFI@$0A@$0CFI@$0CFI@@Eigen@@@Eigen@@QEBA_JXZ ; Eigen::EigenBase<Eigen::Matrix<float,600,600,0,600,600> >::size
PUBLIC	?data@?$DenseStorage@M$0FHOEA@$0CFI@$0CFI@$0A@@Eigen@@QEBAPEBMXZ ; Eigen::DenseStorage<float,360000,600,600,0>::data
PUBLIC	?outerStride@?$Matrix@M$0CFI@$0CFI@$0A@$0CFI@$0CFI@@Eigen@@QEBA_JXZ ; Eigen::Matrix<float,600,600,0,600,600>::outerStride
PUBLIC	?assignCoeff@?$generic_dense_assignment_kernel@U?$evaluator@V?$Matrix@M$00$00$0A@$00$00@Eigen@@@internal@Eigen@@U123@U?$swap_assign_op@M@23@$00@internal@Eigen@@QEAAX_J0@Z ; Eigen::internal::generic_dense_assignment_kernel<Eigen::internal::evaluator<Eigen::Matrix<float,1,1,0,1,1> >,Eigen::internal::evaluator<Eigen::Matrix<float,1,1,0,1,1> >,Eigen::internal::swap_assign_op<float>,1>::assignCoeff
PUBLIC	?rowIndexByOuterInner@?$generic_dense_assignment_kernel@U?$evaluator@V?$Matrix@M$00$00$0A@$00$00@Eigen@@@internal@Eigen@@U123@U?$swap_assign_op@M@23@$00@internal@Eigen@@SA_J_J0@Z ; Eigen::internal::generic_dense_assignment_kernel<Eigen::internal::evaluator<Eigen::Matrix<float,1,1,0,1,1> >,Eigen::internal::evaluator<Eigen::Matrix<float,1,1,0,1,1> >,Eigen::internal::swap_assign_op<float>,1>::rowIndexByOuterInner
PUBLIC	?colIndexByOuterInner@?$generic_dense_assignment_kernel@U?$evaluator@V?$Matrix@M$00$00$0A@$00$00@Eigen@@@internal@Eigen@@U123@U?$swap_assign_op@M@23@$00@internal@Eigen@@SA_J_J0@Z ; Eigen::internal::generic_dense_assignment_kernel<Eigen::internal::evaluator<Eigen::Matrix<float,1,1,0,1,1> >,Eigen::internal::evaluator<Eigen::Matrix<float,1,1,0,1,1> >,Eigen::internal::swap_assign_op<float>,1>::colIndexByOuterInner
PUBLIC	?size@?$EigenBase@V?$Matrix@M$04$0HAI@$0A@$04$0HAI@@Eigen@@@Eigen@@QEBA_JXZ ; Eigen::EigenBase<Eigen::Matrix<float,5,1800,0,5,1800> >::size
PUBLIC	?outerStride@?$DenseCoeffsBase@V?$Matrix@M$04$0HAI@$0A@$04$0HAI@@Eigen@@$02@Eigen@@QEBA_JXZ ; Eigen::DenseCoeffsBase<Eigen::Matrix<float,5,1800,0,5,1800>,3>::outerStride
PUBLIC	?data@?$PlainObjectBase@V?$Matrix@M$04$0HAI@$0A@$04$0HAI@@Eigen@@@Eigen@@QEBAPEBMXZ ; Eigen::PlainObjectBase<Eigen::Matrix<float,5,1800,0,5,1800> >::data
PUBLIC	?data@?$PlainObjectBase@V?$Matrix@M$04$0HAI@$0A@$04$0HAI@@Eigen@@@Eigen@@QEAAPEAMXZ ; Eigen::PlainObjectBase<Eigen::Matrix<float,5,1800,0,5,1800> >::data
PUBLIC	?outerStride@?$DenseCoeffsBase@V?$Matrix@M$01$01$0A@$01$01@Eigen@@$02@Eigen@@QEBA_JXZ ; Eigen::DenseCoeffsBase<Eigen::Matrix<float,2,2,0,2,2>,3>::outerStride
PUBLIC	?data@?$PlainObjectBase@V?$Matrix@M$01$01$0A@$01$01@Eigen@@@Eigen@@QEBAPEBMXZ ; Eigen::PlainObjectBase<Eigen::Matrix<float,2,2,0,2,2> >::data
PUBLIC	?outerStride@?$DenseCoeffsBase@V?$Matrix@M$0CDCI@$00$0A@$0CDCI@$00@Eigen@@$02@Eigen@@QEBA_JXZ ; Eigen::DenseCoeffsBase<Eigen::Matrix<float,9000,1,0,9000,1>,3>::outerStride
PUBLIC	?outerSize@?$DenseBase@V?$Matrix@M$0CDCI@$00$0A@$0CDCI@$00@Eigen@@@Eigen@@QEBA_JXZ ; Eigen::DenseBase<Eigen::Matrix<float,9000,1,0,9000,1> >::outerSize
PUBLIC	?innerSize@?$DenseBase@V?$Matrix@M$0CDCI@$00$0A@$0CDCI@$00@Eigen@@@Eigen@@QEBA_JXZ ; Eigen::DenseBase<Eigen::Matrix<float,9000,1,0,9000,1> >::innerSize
PUBLIC	?data@?$PlainObjectBase@V?$Matrix@M$0CDCI@$00$0A@$0CDCI@$00@Eigen@@@Eigen@@QEBAPEBMXZ ; Eigen::PlainObjectBase<Eigen::Matrix<float,9000,1,0,9000,1> >::data
PUBLIC	?outerStride@?$DenseCoeffsBase@V?$Matrix@M$03$0FNM@$0A@$03$0FNM@@Eigen@@$02@Eigen@@QEBA_JXZ ; Eigen::DenseCoeffsBase<Eigen::Matrix<float,4,1500,0,4,1500>,3>::outerStride
PUBLIC	?outerSize@?$DenseBase@V?$Matrix@M$03$0FNM@$0A@$03$0FNM@@Eigen@@@Eigen@@QEBA_JXZ ; Eigen::DenseBase<Eigen::Matrix<float,4,1500,0,4,1500> >::outerSize
PUBLIC	?data@?$PlainObjectBase@V?$Matrix@M$03$0FNM@$0A@$03$0FNM@@Eigen@@@Eigen@@QEBAPEBMXZ ; Eigen::PlainObjectBase<Eigen::Matrix<float,4,1500,0,4,1500> >::data
PUBLIC	?outerStride@?$DenseCoeffsBase@V?$Matrix@M$0BHHA@$00$0A@$0BHHA@$00@Eigen@@$02@Eigen@@QEBA_JXZ ; Eigen::DenseCoeffsBase<Eigen::Matrix<float,6000,1,0,6000,1>,3>::outerStride
PUBLIC	?outerSize@?$DenseBase@V?$Matrix@M$0BHHA@$00$0A@$0BHHA@$00@Eigen@@@Eigen@@QEBA_JXZ ; Eigen::DenseBase<Eigen::Matrix<float,6000,1,0,6000,1> >::outerSize
PUBLIC	?innerSize@?$DenseBase@V?$Matrix@M$0BHHA@$00$0A@$0BHHA@$00@Eigen@@@Eigen@@QEBA_JXZ ; Eigen::DenseBase<Eigen::Matrix<float,6000,1,0,6000,1> >::innerSize
PUBLIC	?data@?$PlainObjectBase@V?$Matrix@M$0BHHA@$00$0A@$0BHHA@$00@Eigen@@@Eigen@@QEBAPEBMXZ ; Eigen::PlainObjectBase<Eigen::Matrix<float,6000,1,0,6000,1> >::data
PUBLIC	?size@?$EigenBase@V?$Matrix@M$02$0ELA@$0A@$02$0ELA@@Eigen@@@Eigen@@QEBA_JXZ ; Eigen::EigenBase<Eigen::Matrix<float,3,1200,0,3,1200> >::size
PUBLIC	?outerStride@?$DenseCoeffsBase@V?$Matrix@M$02$0ELA@$0A@$02$0ELA@@Eigen@@$02@Eigen@@QEBA_JXZ ; Eigen::DenseCoeffsBase<Eigen::Matrix<float,3,1200,0,3,1200>,3>::outerStride
PUBLIC	?data@?$PlainObjectBase@V?$Matrix@M$02$0ELA@$0A@$02$0ELA@@Eigen@@@Eigen@@QEBAPEBMXZ ; Eigen::PlainObjectBase<Eigen::Matrix<float,3,1200,0,3,1200> >::data
PUBLIC	?data@?$PlainObjectBase@V?$Matrix@M$02$0ELA@$0A@$02$0ELA@@Eigen@@@Eigen@@QEAAPEAMXZ ; Eigen::PlainObjectBase<Eigen::Matrix<float,3,1200,0,3,1200> >::data
PUBLIC	?outerStride@?$DenseCoeffsBase@V?$Matrix@M$0OBA@$00$0A@$0OBA@$00@Eigen@@$02@Eigen@@QEBA_JXZ ; Eigen::DenseCoeffsBase<Eigen::Matrix<float,3600,1,0,3600,1>,3>::outerStride
PUBLIC	?outerSize@?$DenseBase@V?$Matrix@M$0OBA@$00$0A@$0OBA@$00@Eigen@@@Eigen@@QEBA_JXZ ; Eigen::DenseBase<Eigen::Matrix<float,3600,1,0,3600,1> >::outerSize
PUBLIC	?innerSize@?$DenseBase@V?$Matrix@M$0OBA@$00$0A@$0OBA@$00@Eigen@@@Eigen@@QEBA_JXZ ; Eigen::DenseBase<Eigen::Matrix<float,3600,1,0,3600,1> >::innerSize
PUBLIC	?data@?$PlainObjectBase@V?$Matrix@M$0OBA@$00$0A@$0OBA@$00@Eigen@@@Eigen@@QEBAPEBMXZ ; Eigen::PlainObjectBase<Eigen::Matrix<float,3600,1,0,3600,1> >::data
PUBLIC	?size@?$EigenBase@V?$Matrix@M$01$0DIE@$0A@$01$0DIE@@Eigen@@@Eigen@@QEBA_JXZ ; Eigen::EigenBase<Eigen::Matrix<float,2,900,0,2,900> >::size
PUBLIC	?outerStride@?$DenseCoeffsBase@V?$Matrix@M$01$0DIE@$0A@$01$0DIE@@Eigen@@$02@Eigen@@QEBA_JXZ ; Eigen::DenseCoeffsBase<Eigen::Matrix<float,2,900,0,2,900>,3>::outerStride
PUBLIC	?data@?$PlainObjectBase@V?$Matrix@M$01$0DIE@$0A@$01$0DIE@@Eigen@@@Eigen@@QEBAPEBMXZ ; Eigen::PlainObjectBase<Eigen::Matrix<float,2,900,0,2,900> >::data
PUBLIC	?data@?$PlainObjectBase@V?$Matrix@M$01$0DIE@$0A@$01$0DIE@@Eigen@@@Eigen@@QEAAPEAMXZ ; Eigen::PlainObjectBase<Eigen::Matrix<float,2,900,0,2,900> >::data
PUBLIC	?outerStride@?$DenseCoeffsBase@V?$Matrix@M$0HAI@$00$0A@$0HAI@$00@Eigen@@$02@Eigen@@QEBA_JXZ ; Eigen::DenseCoeffsBase<Eigen::Matrix<float,1800,1,0,1800,1>,3>::outerStride
PUBLIC	?outerSize@?$DenseBase@V?$Matrix@M$0HAI@$00$0A@$0HAI@$00@Eigen@@@Eigen@@QEBA_JXZ ; Eigen::DenseBase<Eigen::Matrix<float,1800,1,0,1800,1> >::outerSize
PUBLIC	?innerSize@?$DenseBase@V?$Matrix@M$0HAI@$00$0A@$0HAI@$00@Eigen@@@Eigen@@QEBA_JXZ ; Eigen::DenseBase<Eigen::Matrix<float,1800,1,0,1800,1> >::innerSize
PUBLIC	?data@?$PlainObjectBase@V?$Matrix@M$0HAI@$00$0A@$0HAI@$00@Eigen@@@Eigen@@QEBAPEBMXZ ; Eigen::PlainObjectBase<Eigen::Matrix<float,1800,1,0,1800,1> >::data
PUBLIC	?outerStride@?$DenseCoeffsBase@V?$Matrix@M$00$0CFI@$00$00$0CFI@@Eigen@@$02@Eigen@@QEBA_JXZ ; Eigen::DenseCoeffsBase<Eigen::Matrix<float,1,600,1,1,600>,3>::outerStride
PUBLIC	?outerSize@?$DenseBase@V?$Matrix@M$00$0CFI@$00$00$0CFI@@Eigen@@@Eigen@@QEBA_JXZ ; Eigen::DenseBase<Eigen::Matrix<float,1,600,1,1,600> >::outerSize
PUBLIC	?innerSize@?$DenseBase@V?$Matrix@M$00$0CFI@$00$00$0CFI@@Eigen@@@Eigen@@QEBA_JXZ ; Eigen::DenseBase<Eigen::Matrix<float,1,600,1,1,600> >::innerSize
PUBLIC	?data@?$PlainObjectBase@V?$Matrix@M$00$0CFI@$00$00$0CFI@@Eigen@@@Eigen@@QEBAPEBMXZ ; Eigen::PlainObjectBase<Eigen::Matrix<float,1,600,1,1,600> >::data
PUBLIC	?outerStride@?$DenseCoeffsBase@V?$Matrix@M$0CFI@$00$0A@$0CFI@$00@Eigen@@$02@Eigen@@QEBA_JXZ ; Eigen::DenseCoeffsBase<Eigen::Matrix<float,600,1,0,600,1>,3>::outerStride
PUBLIC	?outerSize@?$DenseBase@V?$Matrix@M$0CFI@$00$0A@$0CFI@$00@Eigen@@@Eigen@@QEBA_JXZ ; Eigen::DenseBase<Eigen::Matrix<float,600,1,0,600,1> >::outerSize
PUBLIC	?innerSize@?$DenseBase@V?$Matrix@M$0CFI@$00$0A@$0CFI@$00@Eigen@@@Eigen@@QEBA_JXZ ; Eigen::DenseBase<Eigen::Matrix<float,600,1,0,600,1> >::innerSize
PUBLIC	?data@?$PlainObjectBase@V?$Matrix@M$0CFI@$00$0A@$0CFI@$00@Eigen@@@Eigen@@QEBAPEBMXZ ; Eigen::PlainObjectBase<Eigen::Matrix<float,600,1,0,600,1> >::data
PUBLIC	?outerStride@?$DenseCoeffsBase@V?$Matrix@M$00$00$0A@$00$00@Eigen@@$02@Eigen@@QEBA_JXZ ; Eigen::DenseCoeffsBase<Eigen::Matrix<float,1,1,0,1,1>,3>::outerStride
PUBLIC	?data@?$PlainObjectBase@V?$Matrix@M$00$00$0A@$00$00@Eigen@@@Eigen@@QEBAPEBMXZ ; Eigen::PlainObjectBase<Eigen::Matrix<float,1,1,0,1,1> >::data
PUBLIC	?outerStride@?$DenseCoeffsBase@V?$Matrix@M$0CFI@$0CFI@$0A@$0CFI@$0CFI@@Eigen@@$02@Eigen@@QEBA_JXZ ; Eigen::DenseCoeffsBase<Eigen::Matrix<float,600,600,0,600,600>,3>::outerStride
PUBLIC	?outerSize@?$DenseBase@V?$Matrix@M$0CFI@$0CFI@$0A@$0CFI@$0CFI@@Eigen@@@Eigen@@QEBA_JXZ ; Eigen::DenseBase<Eigen::Matrix<float,600,600,0,600,600> >::outerSize
PUBLIC	?innerSize@?$DenseBase@V?$Matrix@M$0CFI@$0CFI@$0A@$0CFI@$0CFI@@Eigen@@@Eigen@@QEBA_JXZ ; Eigen::DenseBase<Eigen::Matrix<float,600,600,0,600,600> >::innerSize
PUBLIC	?data@?$PlainObjectBase@V?$Matrix@M$0CFI@$0CFI@$0A@$0CFI@$0CFI@@Eigen@@@Eigen@@QEBAPEBMXZ ; Eigen::PlainObjectBase<Eigen::Matrix<float,600,600,0,600,600> >::data
PUBLIC	??0?$evaluator_base@V?$Matrix@M$0CFI@$0CFI@$0A@$0CFI@$0CFI@@Eigen@@@internal@Eigen@@QEAA@XZ ; Eigen::internal::evaluator_base<Eigen::Matrix<float,600,600,0,600,600> >::evaluator_base<Eigen::Matrix<float,600,600,0,600,600> >
PUBLIC	??0?$plainobjectbase_evaluator_data@M$0CFI@@internal@Eigen@@QEAA@PEBM_J@Z ; Eigen::internal::plainobjectbase_evaluator_data<float,600>::plainobjectbase_evaluator_data<float,600>
PUBLIC	??0?$evaluator_base@V?$Matrix@M$00$00$0A@$00$00@Eigen@@@internal@Eigen@@QEAA@XZ ; Eigen::internal::evaluator_base<Eigen::Matrix<float,1,1,0,1,1> >::evaluator_base<Eigen::Matrix<float,1,1,0,1,1> >
PUBLIC	??0?$plainobjectbase_evaluator_data@M$0A@@internal@Eigen@@QEAA@PEBM_J@Z ; Eigen::internal::plainobjectbase_evaluator_data<float,0>::plainobjectbase_evaluator_data<float,0>
PUBLIC	?assignCoeffByOuterInner@?$generic_dense_assignment_kernel@U?$evaluator@V?$Matrix@M$00$00$0A@$00$00@Eigen@@@internal@Eigen@@U123@U?$swap_assign_op@M@23@$00@internal@Eigen@@QEAAX_J0@Z ; Eigen::internal::generic_dense_assignment_kernel<Eigen::internal::evaluator<Eigen::Matrix<float,1,1,0,1,1> >,Eigen::internal::evaluator<Eigen::Matrix<float,1,1,0,1,1> >,Eigen::internal::swap_assign_op<float>,1>::assignCoeffByOuterInner
PUBLIC	??0?$evaluator_base@V?$Matrix@M$0CFI@$00$0A@$0CFI@$00@Eigen@@@internal@Eigen@@QEAA@XZ ; Eigen::internal::evaluator_base<Eigen::Matrix<float,600,1,0,600,1> >::evaluator_base<Eigen::Matrix<float,600,1,0,600,1> >
PUBLIC	??0?$evaluator_base@V?$Matrix@M$00$0CFI@$00$00$0CFI@@Eigen@@@internal@Eigen@@QEAA@XZ ; Eigen::internal::evaluator_base<Eigen::Matrix<float,1,600,1,1,600> >::evaluator_base<Eigen::Matrix<float,1,600,1,1,600> >
PUBLIC	??0?$evaluator_base@V?$Matrix@M$0HAI@$00$0A@$0HAI@$00@Eigen@@@internal@Eigen@@QEAA@XZ ; Eigen::internal::evaluator_base<Eigen::Matrix<float,1800,1,0,1800,1> >::evaluator_base<Eigen::Matrix<float,1800,1,0,1800,1> >
PUBLIC	??0?$evaluator_base@V?$Matrix@M$01$0DIE@$0A@$01$0DIE@@Eigen@@@internal@Eigen@@QEAA@XZ ; Eigen::internal::evaluator_base<Eigen::Matrix<float,2,900,0,2,900> >::evaluator_base<Eigen::Matrix<float,2,900,0,2,900> >
PUBLIC	??0?$plainobjectbase_evaluator_data@M$01@internal@Eigen@@QEAA@PEBM_J@Z ; Eigen::internal::plainobjectbase_evaluator_data<float,2>::plainobjectbase_evaluator_data<float,2>
PUBLIC	??0?$evaluator_base@V?$Matrix@M$0OBA@$00$0A@$0OBA@$00@Eigen@@@internal@Eigen@@QEAA@XZ ; Eigen::internal::evaluator_base<Eigen::Matrix<float,3600,1,0,3600,1> >::evaluator_base<Eigen::Matrix<float,3600,1,0,3600,1> >
PUBLIC	??0?$evaluator_base@V?$Matrix@M$02$0ELA@$0A@$02$0ELA@@Eigen@@@internal@Eigen@@QEAA@XZ ; Eigen::internal::evaluator_base<Eigen::Matrix<float,3,1200,0,3,1200> >::evaluator_base<Eigen::Matrix<float,3,1200,0,3,1200> >
PUBLIC	??0?$plainobjectbase_evaluator_data@M$02@internal@Eigen@@QEAA@PEBM_J@Z ; Eigen::internal::plainobjectbase_evaluator_data<float,3>::plainobjectbase_evaluator_data<float,3>
PUBLIC	??0?$evaluator_base@V?$Matrix@M$0BHHA@$00$0A@$0BHHA@$00@Eigen@@@internal@Eigen@@QEAA@XZ ; Eigen::internal::evaluator_base<Eigen::Matrix<float,6000,1,0,6000,1> >::evaluator_base<Eigen::Matrix<float,6000,1,0,6000,1> >
PUBLIC	??0?$evaluator_base@V?$Matrix@M$03$0FNM@$0A@$03$0FNM@@Eigen@@@internal@Eigen@@QEAA@XZ ; Eigen::internal::evaluator_base<Eigen::Matrix<float,4,1500,0,4,1500> >::evaluator_base<Eigen::Matrix<float,4,1500,0,4,1500> >
PUBLIC	??0?$plainobjectbase_evaluator_data@M$03@internal@Eigen@@QEAA@PEBM_J@Z ; Eigen::internal::plainobjectbase_evaluator_data<float,4>::plainobjectbase_evaluator_data<float,4>
PUBLIC	??0?$evaluator_base@V?$Matrix@M$0CDCI@$00$0A@$0CDCI@$00@Eigen@@@internal@Eigen@@QEAA@XZ ; Eigen::internal::evaluator_base<Eigen::Matrix<float,9000,1,0,9000,1> >::evaluator_base<Eigen::Matrix<float,9000,1,0,9000,1> >
PUBLIC	??0?$evaluator_base@V?$Matrix@M$01$01$0A@$01$01@Eigen@@@internal@Eigen@@QEAA@XZ ; Eigen::internal::evaluator_base<Eigen::Matrix<float,2,2,0,2,2> >::evaluator_base<Eigen::Matrix<float,2,2,0,2,2> >
PUBLIC	??0?$evaluator_base@V?$Matrix@M$04$0HAI@$0A@$04$0HAI@@Eigen@@@internal@Eigen@@QEAA@XZ ; Eigen::internal::evaluator_base<Eigen::Matrix<float,5,1800,0,5,1800> >::evaluator_base<Eigen::Matrix<float,5,1800,0,5,1800> >
PUBLIC	??0?$plainobjectbase_evaluator_data@M$04@internal@Eigen@@QEAA@PEBM_J@Z ; Eigen::internal::plainobjectbase_evaluator_data<float,5>::plainobjectbase_evaluator_data<float,5>
PUBLIC	?run@?$copy_using_evaluator_DefaultTraversal_CompleteUnrolling@V?$generic_dense_assignment_kernel@U?$evaluator@V?$Matrix@M$00$00$0A@$00$00@Eigen@@@internal@Eigen@@U123@U?$swap_assign_op@M@23@$0A@@internal@Eigen@@$00$00@internal@Eigen@@SAXAEAV?$generic_dense_assignment_kernel@U?$evaluator@V?$Matrix@M$00$00$0A@$00$00@Eigen@@@internal@Eigen@@U123@U?$swap_assign_op@M@23@$0A@@23@@Z ; Eigen::internal::copy_using_evaluator_DefaultTraversal_CompleteUnrolling<Eigen::internal::generic_dense_assignment_kernel<Eigen::internal::evaluator<Eigen::Matrix<float,1,1,0,1,1> >,Eigen::internal::evaluator<Eigen::Matrix<float,1,1,0,1,1> >,Eigen::internal::swap_assign_op<float>,0>,1,1>::run
PUBLIC	?run@?$copy_using_evaluator_innervec_InnerUnrolling@V?$generic_dense_assignment_kernel@U?$evaluator@V?$Matrix@M$03$0FNM@$0A@$03$0FNM@@Eigen@@@internal@Eigen@@U123@U?$swap_assign_op@M@23@$0A@@internal@Eigen@@$03$03$0BA@$0BA@@internal@Eigen@@SAXAEAV?$generic_dense_assignment_kernel@U?$evaluator@V?$Matrix@M$03$0FNM@$0A@$03$0FNM@@Eigen@@@internal@Eigen@@U123@U?$swap_assign_op@M@23@$0A@@23@_J@Z ; Eigen::internal::copy_using_evaluator_innervec_InnerUnrolling<Eigen::internal::generic_dense_assignment_kernel<Eigen::internal::evaluator<Eigen::Matrix<float,4,1500,0,4,1500> >,Eigen::internal::evaluator<Eigen::Matrix<float,4,1500,0,4,1500> >,Eigen::internal::swap_assign_op<float>,0>,4,4,16,16>::run
PUBLIC	?run@?$copy_using_evaluator_innervec_CompleteUnrolling@V?$generic_dense_assignment_kernel@U?$evaluator@V?$Matrix@M$01$01$0A@$01$01@Eigen@@@internal@Eigen@@U123@U?$swap_assign_op@M@23@$0A@@internal@Eigen@@$03$03@internal@Eigen@@SAXAEAV?$generic_dense_assignment_kernel@U?$evaluator@V?$Matrix@M$01$01$0A@$01$01@Eigen@@@internal@Eigen@@U123@U?$swap_assign_op@M@23@$0A@@23@@Z ; Eigen::internal::copy_using_evaluator_innervec_CompleteUnrolling<Eigen::internal::generic_dense_assignment_kernel<Eigen::internal::evaluator<Eigen::Matrix<float,2,2,0,2,2> >,Eigen::internal::evaluator<Eigen::Matrix<float,2,2,0,2,2> >,Eigen::internal::swap_assign_op<float>,0>,4,4>::run
PUBLIC	??0?$evaluator@V?$PlainObjectBase@V?$Matrix@M$0CFI@$0CFI@$0A@$0CFI@$0CFI@@Eigen@@@Eigen@@@internal@Eigen@@QEAA@AEBV?$PlainObjectBase@V?$Matrix@M$0CFI@$0CFI@$0A@$0CFI@$0CFI@@Eigen@@@2@@Z ; Eigen::internal::evaluator<Eigen::PlainObjectBase<Eigen::Matrix<float,600,600,0,600,600> > >::evaluator<Eigen::PlainObjectBase<Eigen::Matrix<float,600,600,0,600,600> > >
PUBLIC	??0?$generic_dense_assignment_kernel@U?$evaluator@V?$Matrix@M$0CFI@$0CFI@$0A@$0CFI@$0CFI@@Eigen@@@internal@Eigen@@U123@U?$swap_assign_op@M@23@$00@internal@Eigen@@QEAA@AEAU?$evaluator@V?$Matrix@M$0CFI@$0CFI@$0A@$0CFI@$0CFI@@Eigen@@@12@AEBU312@AEBU?$swap_assign_op@M@12@AEAV?$Matrix@M$0CFI@$0CFI@$0A@$0CFI@$0CFI@@2@@Z ; Eigen::internal::generic_dense_assignment_kernel<Eigen::internal::evaluator<Eigen::Matrix<float,600,600,0,600,600> >,Eigen::internal::evaluator<Eigen::Matrix<float,600,600,0,600,600> >,Eigen::internal::swap_assign_op<float>,1>::generic_dense_assignment_kernel<Eigen::internal::evaluator<Eigen::Matrix<float,600,600,0,600,600> >,Eigen::internal::evaluator<Eigen::Matrix<float,600,600,0,600,600> >,Eigen::internal::swap_assign_op<float>,1>
PUBLIC	?innerSize@?$generic_dense_assignment_kernel@U?$evaluator@V?$Matrix@M$0CFI@$0CFI@$0A@$0CFI@$0CFI@@Eigen@@@internal@Eigen@@U123@U?$swap_assign_op@M@23@$00@internal@Eigen@@QEBA_JXZ ; Eigen::internal::generic_dense_assignment_kernel<Eigen::internal::evaluator<Eigen::Matrix<float,600,600,0,600,600> >,Eigen::internal::evaluator<Eigen::Matrix<float,600,600,0,600,600> >,Eigen::internal::swap_assign_op<float>,1>::innerSize
PUBLIC	?outerSize@?$generic_dense_assignment_kernel@U?$evaluator@V?$Matrix@M$0CFI@$0CFI@$0A@$0CFI@$0CFI@@Eigen@@@internal@Eigen@@U123@U?$swap_assign_op@M@23@$00@internal@Eigen@@QEBA_JXZ ; Eigen::internal::generic_dense_assignment_kernel<Eigen::internal::evaluator<Eigen::Matrix<float,600,600,0,600,600> >,Eigen::internal::evaluator<Eigen::Matrix<float,600,600,0,600,600> >,Eigen::internal::swap_assign_op<float>,1>::outerSize
PUBLIC	??0?$evaluator@V?$PlainObjectBase@V?$Matrix@M$00$00$0A@$00$00@Eigen@@@Eigen@@@internal@Eigen@@QEAA@AEBV?$PlainObjectBase@V?$Matrix@M$00$00$0A@$00$00@Eigen@@@2@@Z ; Eigen::internal::evaluator<Eigen::PlainObjectBase<Eigen::Matrix<float,1,1,0,1,1> > >::evaluator<Eigen::PlainObjectBase<Eigen::Matrix<float,1,1,0,1,1> > >
PUBLIC	??0?$generic_dense_assignment_kernel@U?$evaluator@V?$Matrix@M$00$00$0A@$00$00@Eigen@@@internal@Eigen@@U123@U?$swap_assign_op@M@23@$00@internal@Eigen@@QEAA@AEAU?$evaluator@V?$Matrix@M$00$00$0A@$00$00@Eigen@@@12@AEBU312@AEBU?$swap_assign_op@M@12@AEAV?$Matrix@M$00$00$0A@$00$00@2@@Z ; Eigen::internal::generic_dense_assignment_kernel<Eigen::internal::evaluator<Eigen::Matrix<float,1,1,0,1,1> >,Eigen::internal::evaluator<Eigen::Matrix<float,1,1,0,1,1> >,Eigen::internal::swap_assign_op<float>,1>::generic_dense_assignment_kernel<Eigen::internal::evaluator<Eigen::Matrix<float,1,1,0,1,1> >,Eigen::internal::evaluator<Eigen::Matrix<float,1,1,0,1,1> >,Eigen::internal::swap_assign_op<float>,1>
PUBLIC	??0?$evaluator@V?$PlainObjectBase@V?$Matrix@M$0CFI@$00$0A@$0CFI@$00@Eigen@@@Eigen@@@internal@Eigen@@QEAA@AEBV?$PlainObjectBase@V?$Matrix@M$0CFI@$00$0A@$0CFI@$00@Eigen@@@2@@Z ; Eigen::internal::evaluator<Eigen::PlainObjectBase<Eigen::Matrix<float,600,1,0,600,1> > >::evaluator<Eigen::PlainObjectBase<Eigen::Matrix<float,600,1,0,600,1> > >
PUBLIC	??0?$generic_dense_assignment_kernel@U?$evaluator@V?$Matrix@M$0CFI@$00$0A@$0CFI@$00@Eigen@@@internal@Eigen@@U123@U?$swap_assign_op@M@23@$00@internal@Eigen@@QEAA@AEAU?$evaluator@V?$Matrix@M$0CFI@$00$0A@$0CFI@$00@Eigen@@@12@AEBU312@AEBU?$swap_assign_op@M@12@AEAV?$Matrix@M$0CFI@$00$0A@$0CFI@$00@2@@Z ; Eigen::internal::generic_dense_assignment_kernel<Eigen::internal::evaluator<Eigen::Matrix<float,600,1,0,600,1> >,Eigen::internal::evaluator<Eigen::Matrix<float,600,1,0,600,1> >,Eigen::internal::swap_assign_op<float>,1>::generic_dense_assignment_kernel<Eigen::internal::evaluator<Eigen::Matrix<float,600,1,0,600,1> >,Eigen::internal::evaluator<Eigen::Matrix<float,600,1,0,600,1> >,Eigen::internal::swap_assign_op<float>,1>
PUBLIC	?innerSize@?$generic_dense_assignment_kernel@U?$evaluator@V?$Matrix@M$0CFI@$00$0A@$0CFI@$00@Eigen@@@internal@Eigen@@U123@U?$swap_assign_op@M@23@$00@internal@Eigen@@QEBA_JXZ ; Eigen::internal::generic_dense_assignment_kernel<Eigen::internal::evaluator<Eigen::Matrix<float,600,1,0,600,1> >,Eigen::internal::evaluator<Eigen::Matrix<float,600,1,0,600,1> >,Eigen::internal::swap_assign_op<float>,1>::innerSize
PUBLIC	?outerSize@?$generic_dense_assignment_kernel@U?$evaluator@V?$Matrix@M$0CFI@$00$0A@$0CFI@$00@Eigen@@@internal@Eigen@@U123@U?$swap_assign_op@M@23@$00@internal@Eigen@@QEBA_JXZ ; Eigen::internal::generic_dense_assignment_kernel<Eigen::internal::evaluator<Eigen::Matrix<float,600,1,0,600,1> >,Eigen::internal::evaluator<Eigen::Matrix<float,600,1,0,600,1> >,Eigen::internal::swap_assign_op<float>,1>::outerSize
PUBLIC	??0?$evaluator@V?$PlainObjectBase@V?$Matrix@M$00$0CFI@$00$00$0CFI@@Eigen@@@Eigen@@@internal@Eigen@@QEAA@AEBV?$PlainObjectBase@V?$Matrix@M$00$0CFI@$00$00$0CFI@@Eigen@@@2@@Z ; Eigen::internal::evaluator<Eigen::PlainObjectBase<Eigen::Matrix<float,1,600,1,1,600> > >::evaluator<Eigen::PlainObjectBase<Eigen::Matrix<float,1,600,1,1,600> > >
PUBLIC	??0?$generic_dense_assignment_kernel@U?$evaluator@V?$Matrix@M$00$0CFI@$00$00$0CFI@@Eigen@@@internal@Eigen@@U123@U?$swap_assign_op@M@23@$00@internal@Eigen@@QEAA@AEAU?$evaluator@V?$Matrix@M$00$0CFI@$00$00$0CFI@@Eigen@@@12@AEBU312@AEBU?$swap_assign_op@M@12@AEAV?$Matrix@M$00$0CFI@$00$00$0CFI@@2@@Z ; Eigen::internal::generic_dense_assignment_kernel<Eigen::internal::evaluator<Eigen::Matrix<float,1,600,1,1,600> >,Eigen::internal::evaluator<Eigen::Matrix<float,1,600,1,1,600> >,Eigen::internal::swap_assign_op<float>,1>::generic_dense_assignment_kernel<Eigen::internal::evaluator<Eigen::Matrix<float,1,600,1,1,600> >,Eigen::internal::evaluator<Eigen::Matrix<float,1,600,1,1,600> >,Eigen::internal::swap_assign_op<float>,1>
PUBLIC	?innerSize@?$generic_dense_assignment_kernel@U?$evaluator@V?$Matrix@M$00$0CFI@$00$00$0CFI@@Eigen@@@internal@Eigen@@U123@U?$swap_assign_op@M@23@$00@internal@Eigen@@QEBA_JXZ ; Eigen::internal::generic_dense_assignment_kernel<Eigen::internal::evaluator<Eigen::Matrix<float,1,600,1,1,600> >,Eigen::internal::evaluator<Eigen::Matrix<float,1,600,1,1,600> >,Eigen::internal::swap_assign_op<float>,1>::innerSize
PUBLIC	?outerSize@?$generic_dense_assignment_kernel@U?$evaluator@V?$Matrix@M$00$0CFI@$00$00$0CFI@@Eigen@@@internal@Eigen@@U123@U?$swap_assign_op@M@23@$00@internal@Eigen@@QEBA_JXZ ; Eigen::internal::generic_dense_assignment_kernel<Eigen::internal::evaluator<Eigen::Matrix<float,1,600,1,1,600> >,Eigen::internal::evaluator<Eigen::Matrix<float,1,600,1,1,600> >,Eigen::internal::swap_assign_op<float>,1>::outerSize
PUBLIC	??0?$evaluator@V?$PlainObjectBase@V?$Matrix@M$0HAI@$00$0A@$0HAI@$00@Eigen@@@Eigen@@@internal@Eigen@@QEAA@AEBV?$PlainObjectBase@V?$Matrix@M$0HAI@$00$0A@$0HAI@$00@Eigen@@@2@@Z ; Eigen::internal::evaluator<Eigen::PlainObjectBase<Eigen::Matrix<float,1800,1,0,1800,1> > >::evaluator<Eigen::PlainObjectBase<Eigen::Matrix<float,1800,1,0,1800,1> > >
PUBLIC	??0?$generic_dense_assignment_kernel@U?$evaluator@V?$Matrix@M$0HAI@$00$0A@$0HAI@$00@Eigen@@@internal@Eigen@@U123@U?$swap_assign_op@M@23@$00@internal@Eigen@@QEAA@AEAU?$evaluator@V?$Matrix@M$0HAI@$00$0A@$0HAI@$00@Eigen@@@12@AEBU312@AEBU?$swap_assign_op@M@12@AEAV?$Matrix@M$0HAI@$00$0A@$0HAI@$00@2@@Z ; Eigen::internal::generic_dense_assignment_kernel<Eigen::internal::evaluator<Eigen::Matrix<float,1800,1,0,1800,1> >,Eigen::internal::evaluator<Eigen::Matrix<float,1800,1,0,1800,1> >,Eigen::internal::swap_assign_op<float>,1>::generic_dense_assignment_kernel<Eigen::internal::evaluator<Eigen::Matrix<float,1800,1,0,1800,1> >,Eigen::internal::evaluator<Eigen::Matrix<float,1800,1,0,1800,1> >,Eigen::internal::swap_assign_op<float>,1>
PUBLIC	?innerSize@?$generic_dense_assignment_kernel@U?$evaluator@V?$Matrix@M$0HAI@$00$0A@$0HAI@$00@Eigen@@@internal@Eigen@@U123@U?$swap_assign_op@M@23@$00@internal@Eigen@@QEBA_JXZ ; Eigen::internal::generic_dense_assignment_kernel<Eigen::internal::evaluator<Eigen::Matrix<float,1800,1,0,1800,1> >,Eigen::internal::evaluator<Eigen::Matrix<float,1800,1,0,1800,1> >,Eigen::internal::swap_assign_op<float>,1>::innerSize
PUBLIC	?outerSize@?$generic_dense_assignment_kernel@U?$evaluator@V?$Matrix@M$0HAI@$00$0A@$0HAI@$00@Eigen@@@internal@Eigen@@U123@U?$swap_assign_op@M@23@$00@internal@Eigen@@QEBA_JXZ ; Eigen::internal::generic_dense_assignment_kernel<Eigen::internal::evaluator<Eigen::Matrix<float,1800,1,0,1800,1> >,Eigen::internal::evaluator<Eigen::Matrix<float,1800,1,0,1800,1> >,Eigen::internal::swap_assign_op<float>,1>::outerSize
PUBLIC	??0?$evaluator@V?$PlainObjectBase@V?$Matrix@M$01$0DIE@$0A@$01$0DIE@@Eigen@@@Eigen@@@internal@Eigen@@QEAA@AEBV?$PlainObjectBase@V?$Matrix@M$01$0DIE@$0A@$01$0DIE@@Eigen@@@2@@Z ; Eigen::internal::evaluator<Eigen::PlainObjectBase<Eigen::Matrix<float,2,900,0,2,900> > >::evaluator<Eigen::PlainObjectBase<Eigen::Matrix<float,2,900,0,2,900> > >
PUBLIC	??0?$generic_dense_assignment_kernel@U?$evaluator@V?$Matrix@M$01$0DIE@$0A@$01$0DIE@@Eigen@@@internal@Eigen@@U123@U?$swap_assign_op@M@23@$00@internal@Eigen@@QEAA@AEAU?$evaluator@V?$Matrix@M$01$0DIE@$0A@$01$0DIE@@Eigen@@@12@AEBU312@AEBU?$swap_assign_op@M@12@AEAV?$Matrix@M$01$0DIE@$0A@$01$0DIE@@2@@Z ; Eigen::internal::generic_dense_assignment_kernel<Eigen::internal::evaluator<Eigen::Matrix<float,2,900,0,2,900> >,Eigen::internal::evaluator<Eigen::Matrix<float,2,900,0,2,900> >,Eigen::internal::swap_assign_op<float>,1>::generic_dense_assignment_kernel<Eigen::internal::evaluator<Eigen::Matrix<float,2,900,0,2,900> >,Eigen::internal::evaluator<Eigen::Matrix<float,2,900,0,2,900> >,Eigen::internal::swap_assign_op<float>,1>
PUBLIC	?size@?$generic_dense_assignment_kernel@U?$evaluator@V?$Matrix@M$01$0DIE@$0A@$01$0DIE@@Eigen@@@internal@Eigen@@U123@U?$swap_assign_op@M@23@$00@internal@Eigen@@QEBA_JXZ ; Eigen::internal::generic_dense_assignment_kernel<Eigen::internal::evaluator<Eigen::Matrix<float,2,900,0,2,900> >,Eigen::internal::evaluator<Eigen::Matrix<float,2,900,0,2,900> >,Eigen::internal::swap_assign_op<float>,1>::size
PUBLIC	?dstDataPtr@?$generic_dense_assignment_kernel@U?$evaluator@V?$Matrix@M$01$0DIE@$0A@$01$0DIE@@Eigen@@@internal@Eigen@@U123@U?$swap_assign_op@M@23@$00@internal@Eigen@@QEBAPEBMXZ ; Eigen::internal::generic_dense_assignment_kernel<Eigen::internal::evaluator<Eigen::Matrix<float,2,900,0,2,900> >,Eigen::internal::evaluator<Eigen::Matrix<float,2,900,0,2,900> >,Eigen::internal::swap_assign_op<float>,1>::dstDataPtr
PUBLIC	??0?$evaluator@V?$PlainObjectBase@V?$Matrix@M$0OBA@$00$0A@$0OBA@$00@Eigen@@@Eigen@@@internal@Eigen@@QEAA@AEBV?$PlainObjectBase@V?$Matrix@M$0OBA@$00$0A@$0OBA@$00@Eigen@@@2@@Z ; Eigen::internal::evaluator<Eigen::PlainObjectBase<Eigen::Matrix<float,3600,1,0,3600,1> > >::evaluator<Eigen::PlainObjectBase<Eigen::Matrix<float,3600,1,0,3600,1> > >
PUBLIC	??0?$generic_dense_assignment_kernel@U?$evaluator@V?$Matrix@M$0OBA@$00$0A@$0OBA@$00@Eigen@@@internal@Eigen@@U123@U?$swap_assign_op@M@23@$00@internal@Eigen@@QEAA@AEAU?$evaluator@V?$Matrix@M$0OBA@$00$0A@$0OBA@$00@Eigen@@@12@AEBU312@AEBU?$swap_assign_op@M@12@AEAV?$Matrix@M$0OBA@$00$0A@$0OBA@$00@2@@Z ; Eigen::internal::generic_dense_assignment_kernel<Eigen::internal::evaluator<Eigen::Matrix<float,3600,1,0,3600,1> >,Eigen::internal::evaluator<Eigen::Matrix<float,3600,1,0,3600,1> >,Eigen::internal::swap_assign_op<float>,1>::generic_dense_assignment_kernel<Eigen::internal::evaluator<Eigen::Matrix<float,3600,1,0,3600,1> >,Eigen::internal::evaluator<Eigen::Matrix<float,3600,1,0,3600,1> >,Eigen::internal::swap_assign_op<float>,1>
PUBLIC	?innerSize@?$generic_dense_assignment_kernel@U?$evaluator@V?$Matrix@M$0OBA@$00$0A@$0OBA@$00@Eigen@@@internal@Eigen@@U123@U?$swap_assign_op@M@23@$00@internal@Eigen@@QEBA_JXZ ; Eigen::internal::generic_dense_assignment_kernel<Eigen::internal::evaluator<Eigen::Matrix<float,3600,1,0,3600,1> >,Eigen::internal::evaluator<Eigen::Matrix<float,3600,1,0,3600,1> >,Eigen::internal::swap_assign_op<float>,1>::innerSize
PUBLIC	?outerSize@?$generic_dense_assignment_kernel@U?$evaluator@V?$Matrix@M$0OBA@$00$0A@$0OBA@$00@Eigen@@@internal@Eigen@@U123@U?$swap_assign_op@M@23@$00@internal@Eigen@@QEBA_JXZ ; Eigen::internal::generic_dense_assignment_kernel<Eigen::internal::evaluator<Eigen::Matrix<float,3600,1,0,3600,1> >,Eigen::internal::evaluator<Eigen::Matrix<float,3600,1,0,3600,1> >,Eigen::internal::swap_assign_op<float>,1>::outerSize
PUBLIC	??0?$evaluator@V?$PlainObjectBase@V?$Matrix@M$02$0ELA@$0A@$02$0ELA@@Eigen@@@Eigen@@@internal@Eigen@@QEAA@AEBV?$PlainObjectBase@V?$Matrix@M$02$0ELA@$0A@$02$0ELA@@Eigen@@@2@@Z ; Eigen::internal::evaluator<Eigen::PlainObjectBase<Eigen::Matrix<float,3,1200,0,3,1200> > >::evaluator<Eigen::PlainObjectBase<Eigen::Matrix<float,3,1200,0,3,1200> > >
PUBLIC	??0?$generic_dense_assignment_kernel@U?$evaluator@V?$Matrix@M$02$0ELA@$0A@$02$0ELA@@Eigen@@@internal@Eigen@@U123@U?$swap_assign_op@M@23@$00@internal@Eigen@@QEAA@AEAU?$evaluator@V?$Matrix@M$02$0ELA@$0A@$02$0ELA@@Eigen@@@12@AEBU312@AEBU?$swap_assign_op@M@12@AEAV?$Matrix@M$02$0ELA@$0A@$02$0ELA@@2@@Z ; Eigen::internal::generic_dense_assignment_kernel<Eigen::internal::evaluator<Eigen::Matrix<float,3,1200,0,3,1200> >,Eigen::internal::evaluator<Eigen::Matrix<float,3,1200,0,3,1200> >,Eigen::internal::swap_assign_op<float>,1>::generic_dense_assignment_kernel<Eigen::internal::evaluator<Eigen::Matrix<float,3,1200,0,3,1200> >,Eigen::internal::evaluator<Eigen::Matrix<float,3,1200,0,3,1200> >,Eigen::internal::swap_assign_op<float>,1>
PUBLIC	?size@?$generic_dense_assignment_kernel@U?$evaluator@V?$Matrix@M$02$0ELA@$0A@$02$0ELA@@Eigen@@@internal@Eigen@@U123@U?$swap_assign_op@M@23@$00@internal@Eigen@@QEBA_JXZ ; Eigen::internal::generic_dense_assignment_kernel<Eigen::internal::evaluator<Eigen::Matrix<float,3,1200,0,3,1200> >,Eigen::internal::evaluator<Eigen::Matrix<float,3,1200,0,3,1200> >,Eigen::internal::swap_assign_op<float>,1>::size
PUBLIC	?dstDataPtr@?$generic_dense_assignment_kernel@U?$evaluator@V?$Matrix@M$02$0ELA@$0A@$02$0ELA@@Eigen@@@internal@Eigen@@U123@U?$swap_assign_op@M@23@$00@internal@Eigen@@QEBAPEBMXZ ; Eigen::internal::generic_dense_assignment_kernel<Eigen::internal::evaluator<Eigen::Matrix<float,3,1200,0,3,1200> >,Eigen::internal::evaluator<Eigen::Matrix<float,3,1200,0,3,1200> >,Eigen::internal::swap_assign_op<float>,1>::dstDataPtr
PUBLIC	??0?$evaluator@V?$PlainObjectBase@V?$Matrix@M$0BHHA@$00$0A@$0BHHA@$00@Eigen@@@Eigen@@@internal@Eigen@@QEAA@AEBV?$PlainObjectBase@V?$Matrix@M$0BHHA@$00$0A@$0BHHA@$00@Eigen@@@2@@Z ; Eigen::internal::evaluator<Eigen::PlainObjectBase<Eigen::Matrix<float,6000,1,0,6000,1> > >::evaluator<Eigen::PlainObjectBase<Eigen::Matrix<float,6000,1,0,6000,1> > >
PUBLIC	??0?$generic_dense_assignment_kernel@U?$evaluator@V?$Matrix@M$0BHHA@$00$0A@$0BHHA@$00@Eigen@@@internal@Eigen@@U123@U?$swap_assign_op@M@23@$00@internal@Eigen@@QEAA@AEAU?$evaluator@V?$Matrix@M$0BHHA@$00$0A@$0BHHA@$00@Eigen@@@12@AEBU312@AEBU?$swap_assign_op@M@12@AEAV?$Matrix@M$0BHHA@$00$0A@$0BHHA@$00@2@@Z ; Eigen::internal::generic_dense_assignment_kernel<Eigen::internal::evaluator<Eigen::Matrix<float,6000,1,0,6000,1> >,Eigen::internal::evaluator<Eigen::Matrix<float,6000,1,0,6000,1> >,Eigen::internal::swap_assign_op<float>,1>::generic_dense_assignment_kernel<Eigen::internal::evaluator<Eigen::Matrix<float,6000,1,0,6000,1> >,Eigen::internal::evaluator<Eigen::Matrix<float,6000,1,0,6000,1> >,Eigen::internal::swap_assign_op<float>,1>
PUBLIC	?innerSize@?$generic_dense_assignment_kernel@U?$evaluator@V?$Matrix@M$0BHHA@$00$0A@$0BHHA@$00@Eigen@@@internal@Eigen@@U123@U?$swap_assign_op@M@23@$00@internal@Eigen@@QEBA_JXZ ; Eigen::internal::generic_dense_assignment_kernel<Eigen::internal::evaluator<Eigen::Matrix<float,6000,1,0,6000,1> >,Eigen::internal::evaluator<Eigen::Matrix<float,6000,1,0,6000,1> >,Eigen::internal::swap_assign_op<float>,1>::innerSize
PUBLIC	?outerSize@?$generic_dense_assignment_kernel@U?$evaluator@V?$Matrix@M$0BHHA@$00$0A@$0BHHA@$00@Eigen@@@internal@Eigen@@U123@U?$swap_assign_op@M@23@$00@internal@Eigen@@QEBA_JXZ ; Eigen::internal::generic_dense_assignment_kernel<Eigen::internal::evaluator<Eigen::Matrix<float,6000,1,0,6000,1> >,Eigen::internal::evaluator<Eigen::Matrix<float,6000,1,0,6000,1> >,Eigen::internal::swap_assign_op<float>,1>::outerSize
PUBLIC	??0?$evaluator@V?$PlainObjectBase@V?$Matrix@M$03$0FNM@$0A@$03$0FNM@@Eigen@@@Eigen@@@internal@Eigen@@QEAA@AEBV?$PlainObjectBase@V?$Matrix@M$03$0FNM@$0A@$03$0FNM@@Eigen@@@2@@Z ; Eigen::internal::evaluator<Eigen::PlainObjectBase<Eigen::Matrix<float,4,1500,0,4,1500> > >::evaluator<Eigen::PlainObjectBase<Eigen::Matrix<float,4,1500,0,4,1500> > >
PUBLIC	??0?$generic_dense_assignment_kernel@U?$evaluator@V?$Matrix@M$03$0FNM@$0A@$03$0FNM@@Eigen@@@internal@Eigen@@U123@U?$swap_assign_op@M@23@$00@internal@Eigen@@QEAA@AEAU?$evaluator@V?$Matrix@M$03$0FNM@$0A@$03$0FNM@@Eigen@@@12@AEBU312@AEBU?$swap_assign_op@M@12@AEAV?$Matrix@M$03$0FNM@$0A@$03$0FNM@@2@@Z ; Eigen::internal::generic_dense_assignment_kernel<Eigen::internal::evaluator<Eigen::Matrix<float,4,1500,0,4,1500> >,Eigen::internal::evaluator<Eigen::Matrix<float,4,1500,0,4,1500> >,Eigen::internal::swap_assign_op<float>,1>::generic_dense_assignment_kernel<Eigen::internal::evaluator<Eigen::Matrix<float,4,1500,0,4,1500> >,Eigen::internal::evaluator<Eigen::Matrix<float,4,1500,0,4,1500> >,Eigen::internal::swap_assign_op<float>,1>
PUBLIC	?outerSize@?$generic_dense_assignment_kernel@U?$evaluator@V?$Matrix@M$03$0FNM@$0A@$03$0FNM@@Eigen@@@internal@Eigen@@U123@U?$swap_assign_op@M@23@$00@internal@Eigen@@QEBA_JXZ ; Eigen::internal::generic_dense_assignment_kernel<Eigen::internal::evaluator<Eigen::Matrix<float,4,1500,0,4,1500> >,Eigen::internal::evaluator<Eigen::Matrix<float,4,1500,0,4,1500> >,Eigen::internal::swap_assign_op<float>,1>::outerSize
PUBLIC	??0?$evaluator@V?$PlainObjectBase@V?$Matrix@M$0CDCI@$00$0A@$0CDCI@$00@Eigen@@@Eigen@@@internal@Eigen@@QEAA@AEBV?$PlainObjectBase@V?$Matrix@M$0CDCI@$00$0A@$0CDCI@$00@Eigen@@@2@@Z ; Eigen::internal::evaluator<Eigen::PlainObjectBase<Eigen::Matrix<float,9000,1,0,9000,1> > >::evaluator<Eigen::PlainObjectBase<Eigen::Matrix<float,9000,1,0,9000,1> > >
PUBLIC	??0?$generic_dense_assignment_kernel@U?$evaluator@V?$Matrix@M$0CDCI@$00$0A@$0CDCI@$00@Eigen@@@internal@Eigen@@U123@U?$swap_assign_op@M@23@$00@internal@Eigen@@QEAA@AEAU?$evaluator@V?$Matrix@M$0CDCI@$00$0A@$0CDCI@$00@Eigen@@@12@AEBU312@AEBU?$swap_assign_op@M@12@AEAV?$Matrix@M$0CDCI@$00$0A@$0CDCI@$00@2@@Z ; Eigen::internal::generic_dense_assignment_kernel<Eigen::internal::evaluator<Eigen::Matrix<float,9000,1,0,9000,1> >,Eigen::internal::evaluator<Eigen::Matrix<float,9000,1,0,9000,1> >,Eigen::internal::swap_assign_op<float>,1>::generic_dense_assignment_kernel<Eigen::internal::evaluator<Eigen::Matrix<float,9000,1,0,9000,1> >,Eigen::internal::evaluator<Eigen::Matrix<float,9000,1,0,9000,1> >,Eigen::internal::swap_assign_op<float>,1>
PUBLIC	?innerSize@?$generic_dense_assignment_kernel@U?$evaluator@V?$Matrix@M$0CDCI@$00$0A@$0CDCI@$00@Eigen@@@internal@Eigen@@U123@U?$swap_assign_op@M@23@$00@internal@Eigen@@QEBA_JXZ ; Eigen::internal::generic_dense_assignment_kernel<Eigen::internal::evaluator<Eigen::Matrix<float,9000,1,0,9000,1> >,Eigen::internal::evaluator<Eigen::Matrix<float,9000,1,0,9000,1> >,Eigen::internal::swap_assign_op<float>,1>::innerSize
PUBLIC	?outerSize@?$generic_dense_assignment_kernel@U?$evaluator@V?$Matrix@M$0CDCI@$00$0A@$0CDCI@$00@Eigen@@@internal@Eigen@@U123@U?$swap_assign_op@M@23@$00@internal@Eigen@@QEBA_JXZ ; Eigen::internal::generic_dense_assignment_kernel<Eigen::internal::evaluator<Eigen::Matrix<float,9000,1,0,9000,1> >,Eigen::internal::evaluator<Eigen::Matrix<float,9000,1,0,9000,1> >,Eigen::internal::swap_assign_op<float>,1>::outerSize
PUBLIC	??0?$evaluator@V?$PlainObjectBase@V?$Matrix@M$01$01$0A@$01$01@Eigen@@@Eigen@@@internal@Eigen@@QEAA@AEBV?$PlainObjectBase@V?$Matrix@M$01$01$0A@$01$01@Eigen@@@2@@Z ; Eigen::internal::evaluator<Eigen::PlainObjectBase<Eigen::Matrix<float,2,2,0,2,2> > >::evaluator<Eigen::PlainObjectBase<Eigen::Matrix<float,2,2,0,2,2> > >
PUBLIC	??0?$generic_dense_assignment_kernel@U?$evaluator@V?$Matrix@M$01$01$0A@$01$01@Eigen@@@internal@Eigen@@U123@U?$swap_assign_op@M@23@$00@internal@Eigen@@QEAA@AEAU?$evaluator@V?$Matrix@M$01$01$0A@$01$01@Eigen@@@12@AEBU312@AEBU?$swap_assign_op@M@12@AEAV?$Matrix@M$01$01$0A@$01$01@2@@Z ; Eigen::internal::generic_dense_assignment_kernel<Eigen::internal::evaluator<Eigen::Matrix<float,2,2,0,2,2> >,Eigen::internal::evaluator<Eigen::Matrix<float,2,2,0,2,2> >,Eigen::internal::swap_assign_op<float>,1>::generic_dense_assignment_kernel<Eigen::internal::evaluator<Eigen::Matrix<float,2,2,0,2,2> >,Eigen::internal::evaluator<Eigen::Matrix<float,2,2,0,2,2> >,Eigen::internal::swap_assign_op<float>,1>
PUBLIC	??0?$evaluator@V?$PlainObjectBase@V?$Matrix@M$04$0HAI@$0A@$04$0HAI@@Eigen@@@Eigen@@@internal@Eigen@@QEAA@AEBV?$PlainObjectBase@V?$Matrix@M$04$0HAI@$0A@$04$0HAI@@Eigen@@@2@@Z ; Eigen::internal::evaluator<Eigen::PlainObjectBase<Eigen::Matrix<float,5,1800,0,5,1800> > >::evaluator<Eigen::PlainObjectBase<Eigen::Matrix<float,5,1800,0,5,1800> > >
PUBLIC	??0?$generic_dense_assignment_kernel@U?$evaluator@V?$Matrix@M$04$0HAI@$0A@$04$0HAI@@Eigen@@@internal@Eigen@@U123@U?$swap_assign_op@M@23@$00@internal@Eigen@@QEAA@AEAU?$evaluator@V?$Matrix@M$04$0HAI@$0A@$04$0HAI@@Eigen@@@12@AEBU312@AEBU?$swap_assign_op@M@12@AEAV?$Matrix@M$04$0HAI@$0A@$04$0HAI@@2@@Z ; Eigen::internal::generic_dense_assignment_kernel<Eigen::internal::evaluator<Eigen::Matrix<float,5,1800,0,5,1800> >,Eigen::internal::evaluator<Eigen::Matrix<float,5,1800,0,5,1800> >,Eigen::internal::swap_assign_op<float>,1>::generic_dense_assignment_kernel<Eigen::internal::evaluator<Eigen::Matrix<float,5,1800,0,5,1800> >,Eigen::internal::evaluator<Eigen::Matrix<float,5,1800,0,5,1800> >,Eigen::internal::swap_assign_op<float>,1>
PUBLIC	?size@?$generic_dense_assignment_kernel@U?$evaluator@V?$Matrix@M$04$0HAI@$0A@$04$0HAI@@Eigen@@@internal@Eigen@@U123@U?$swap_assign_op@M@23@$00@internal@Eigen@@QEBA_JXZ ; Eigen::internal::generic_dense_assignment_kernel<Eigen::internal::evaluator<Eigen::Matrix<float,5,1800,0,5,1800> >,Eigen::internal::evaluator<Eigen::Matrix<float,5,1800,0,5,1800> >,Eigen::internal::swap_assign_op<float>,1>::size
PUBLIC	?dstDataPtr@?$generic_dense_assignment_kernel@U?$evaluator@V?$Matrix@M$04$0HAI@$0A@$04$0HAI@@Eigen@@@internal@Eigen@@U123@U?$swap_assign_op@M@23@$00@internal@Eigen@@QEBAPEBMXZ ; Eigen::internal::generic_dense_assignment_kernel<Eigen::internal::evaluator<Eigen::Matrix<float,5,1800,0,5,1800> >,Eigen::internal::evaluator<Eigen::Matrix<float,5,1800,0,5,1800> >,Eigen::internal::swap_assign_op<float>,1>::dstDataPtr
PUBLIC	?run@?$copy_using_evaluator_innervec_CompleteUnrolling@V?$generic_dense_assignment_kernel@U?$evaluator@V?$Matrix@M$01$01$0A@$01$01@Eigen@@@internal@Eigen@@U123@U?$swap_assign_op@M@23@$0A@@internal@Eigen@@$0A@$03@internal@Eigen@@SAXAEAV?$generic_dense_assignment_kernel@U?$evaluator@V?$Matrix@M$01$01$0A@$01$01@Eigen@@@internal@Eigen@@U123@U?$swap_assign_op@M@23@$0A@@23@@Z ; Eigen::internal::copy_using_evaluator_innervec_CompleteUnrolling<Eigen::internal::generic_dense_assignment_kernel<Eigen::internal::evaluator<Eigen::Matrix<float,2,2,0,2,2> >,Eigen::internal::evaluator<Eigen::Matrix<float,2,2,0,2,2> >,Eigen::internal::swap_assign_op<float>,0>,0,4>::run
PUBLIC	?run@?$copy_using_evaluator_DefaultTraversal_CompleteUnrolling@V?$generic_dense_assignment_kernel@U?$evaluator@V?$Matrix@M$01$01$0A@$01$01@Eigen@@@internal@Eigen@@U123@U?$swap_assign_op@M@23@$0A@@internal@Eigen@@$03$03@internal@Eigen@@SAXAEAV?$generic_dense_assignment_kernel@U?$evaluator@V?$Matrix@M$01$01$0A@$01$01@Eigen@@@internal@Eigen@@U123@U?$swap_assign_op@M@23@$0A@@23@@Z ; Eigen::internal::copy_using_evaluator_DefaultTraversal_CompleteUnrolling<Eigen::internal::generic_dense_assignment_kernel<Eigen::internal::evaluator<Eigen::Matrix<float,2,2,0,2,2> >,Eigen::internal::evaluator<Eigen::Matrix<float,2,2,0,2,2> >,Eigen::internal::swap_assign_op<float>,0>,4,4>::run
PUBLIC	?run@?$copy_using_evaluator_innervec_InnerUnrolling@V?$generic_dense_assignment_kernel@U?$evaluator@V?$Matrix@M$03$0FNM@$0A@$03$0FNM@@Eigen@@@internal@Eigen@@U123@U?$swap_assign_op@M@23@$0A@@internal@Eigen@@$0A@$03$0BA@$0BA@@internal@Eigen@@SAXAEAV?$generic_dense_assignment_kernel@U?$evaluator@V?$Matrix@M$03$0FNM@$0A@$03$0FNM@@Eigen@@@internal@Eigen@@U123@U?$swap_assign_op@M@23@$0A@@23@_J@Z ; Eigen::internal::copy_using_evaluator_innervec_InnerUnrolling<Eigen::internal::generic_dense_assignment_kernel<Eigen::internal::evaluator<Eigen::Matrix<float,4,1500,0,4,1500> >,Eigen::internal::evaluator<Eigen::Matrix<float,4,1500,0,4,1500> >,Eigen::internal::swap_assign_op<float>,0>,0,4,16,16>::run
PUBLIC	?run@?$copy_using_evaluator_innervec_CompleteUnrolling@V?$generic_dense_assignment_kernel@U?$evaluator@V?$Matrix@M$00$00$0A@$00$00@Eigen@@@internal@Eigen@@U123@U?$swap_assign_op@M@23@$0A@@internal@Eigen@@$0A@$0A@@internal@Eigen@@SAXAEAV?$generic_dense_assignment_kernel@U?$evaluator@V?$Matrix@M$00$00$0A@$00$00@Eigen@@@internal@Eigen@@U123@U?$swap_assign_op@M@23@$0A@@23@@Z ; Eigen::internal::copy_using_evaluator_innervec_CompleteUnrolling<Eigen::internal::generic_dense_assignment_kernel<Eigen::internal::evaluator<Eigen::Matrix<float,1,1,0,1,1> >,Eigen::internal::evaluator<Eigen::Matrix<float,1,1,0,1,1> >,Eigen::internal::swap_assign_op<float>,0>,0,0>::run
PUBLIC	?run@?$copy_using_evaluator_DefaultTraversal_CompleteUnrolling@V?$generic_dense_assignment_kernel@U?$evaluator@V?$Matrix@M$00$00$0A@$00$00@Eigen@@@internal@Eigen@@U123@U?$swap_assign_op@M@23@$0A@@internal@Eigen@@$0A@$00@internal@Eigen@@SAXAEAV?$generic_dense_assignment_kernel@U?$evaluator@V?$Matrix@M$00$00$0A@$00$00@Eigen@@@internal@Eigen@@U123@U?$swap_assign_op@M@23@$0A@@23@@Z ; Eigen::internal::copy_using_evaluator_DefaultTraversal_CompleteUnrolling<Eigen::internal::generic_dense_assignment_kernel<Eigen::internal::evaluator<Eigen::Matrix<float,1,1,0,1,1> >,Eigen::internal::evaluator<Eigen::Matrix<float,1,1,0,1,1> >,Eigen::internal::swap_assign_op<float>,0>,0,1>::run
PUBLIC	?const_cast_derived@?$EigenBase@V?$Matrix@M$04$0HAI@$0A@$04$0HAI@@Eigen@@@Eigen@@QEBAAEAV?$Matrix@M$04$0HAI@$0A@$04$0HAI@@2@XZ ; Eigen::EigenBase<Eigen::Matrix<float,5,1800,0,5,1800> >::const_cast_derived
PUBLIC	?const_cast_derived@?$EigenBase@V?$Matrix@M$01$01$0A@$01$01@Eigen@@@Eigen@@QEBAAEAV?$Matrix@M$01$01$0A@$01$01@2@XZ ; Eigen::EigenBase<Eigen::Matrix<float,2,2,0,2,2> >::const_cast_derived
PUBLIC	?const_cast_derived@?$EigenBase@V?$Matrix@M$0CDCI@$00$0A@$0CDCI@$00@Eigen@@@Eigen@@QEBAAEAV?$Matrix@M$0CDCI@$00$0A@$0CDCI@$00@2@XZ ; Eigen::EigenBase<Eigen::Matrix<float,9000,1,0,9000,1> >::const_cast_derived
PUBLIC	?const_cast_derived@?$EigenBase@V?$Matrix@M$03$0FNM@$0A@$03$0FNM@@Eigen@@@Eigen@@QEBAAEAV?$Matrix@M$03$0FNM@$0A@$03$0FNM@@2@XZ ; Eigen::EigenBase<Eigen::Matrix<float,4,1500,0,4,1500> >::const_cast_derived
PUBLIC	?const_cast_derived@?$EigenBase@V?$Matrix@M$0BHHA@$00$0A@$0BHHA@$00@Eigen@@@Eigen@@QEBAAEAV?$Matrix@M$0BHHA@$00$0A@$0BHHA@$00@2@XZ ; Eigen::EigenBase<Eigen::Matrix<float,6000,1,0,6000,1> >::const_cast_derived
PUBLIC	?const_cast_derived@?$EigenBase@V?$Matrix@M$02$0ELA@$0A@$02$0ELA@@Eigen@@@Eigen@@QEBAAEAV?$Matrix@M$02$0ELA@$0A@$02$0ELA@@2@XZ ; Eigen::EigenBase<Eigen::Matrix<float,3,1200,0,3,1200> >::const_cast_derived
PUBLIC	?const_cast_derived@?$EigenBase@V?$Matrix@M$0OBA@$00$0A@$0OBA@$00@Eigen@@@Eigen@@QEBAAEAV?$Matrix@M$0OBA@$00$0A@$0OBA@$00@2@XZ ; Eigen::EigenBase<Eigen::Matrix<float,3600,1,0,3600,1> >::const_cast_derived
PUBLIC	?const_cast_derived@?$EigenBase@V?$Matrix@M$01$0DIE@$0A@$01$0DIE@@Eigen@@@Eigen@@QEBAAEAV?$Matrix@M$01$0DIE@$0A@$01$0DIE@@2@XZ ; Eigen::EigenBase<Eigen::Matrix<float,2,900,0,2,900> >::const_cast_derived
PUBLIC	?const_cast_derived@?$EigenBase@V?$Matrix@M$0HAI@$00$0A@$0HAI@$00@Eigen@@@Eigen@@QEBAAEAV?$Matrix@M$0HAI@$00$0A@$0HAI@$00@2@XZ ; Eigen::EigenBase<Eigen::Matrix<float,1800,1,0,1800,1> >::const_cast_derived
PUBLIC	?const_cast_derived@?$EigenBase@V?$Matrix@M$00$0CFI@$00$00$0CFI@@Eigen@@@Eigen@@QEBAAEAV?$Matrix@M$00$0CFI@$00$00$0CFI@@2@XZ ; Eigen::EigenBase<Eigen::Matrix<float,1,600,1,1,600> >::const_cast_derived
PUBLIC	?const_cast_derived@?$EigenBase@V?$Matrix@M$0CFI@$00$0A@$0CFI@$00@Eigen@@@Eigen@@QEBAAEAV?$Matrix@M$0CFI@$00$0A@$0CFI@$00@2@XZ ; Eigen::EigenBase<Eigen::Matrix<float,600,1,0,600,1> >::const_cast_derived
PUBLIC	?const_cast_derived@?$EigenBase@V?$Matrix@M$00$00$0A@$00$00@Eigen@@@Eigen@@QEBAAEAV?$Matrix@M$00$00$0A@$00$00@2@XZ ; Eigen::EigenBase<Eigen::Matrix<float,1,1,0,1,1> >::const_cast_derived
PUBLIC	?const_cast_derived@?$EigenBase@V?$Matrix@M$0CFI@$0CFI@$0A@$0CFI@$0CFI@@Eigen@@@Eigen@@QEBAAEAV?$Matrix@M$0CFI@$0CFI@$0A@$0CFI@$0CFI@@2@XZ ; Eigen::EigenBase<Eigen::Matrix<float,600,600,0,600,600> >::const_cast_derived
PUBLIC	??1?$evaluator_base@V?$Matrix@M$0CFI@$0CFI@$0A@$0CFI@$0CFI@@Eigen@@@internal@Eigen@@QEAA@XZ ; Eigen::internal::evaluator_base<Eigen::Matrix<float,600,600,0,600,600> >::~evaluator_base<Eigen::Matrix<float,600,600,0,600,600> >
PUBLIC	??0?$evaluator@V?$Matrix@M$0CFI@$0CFI@$0A@$0CFI@$0CFI@@Eigen@@@internal@Eigen@@QEAA@AEBV?$Matrix@M$0CFI@$0CFI@$0A@$0CFI@$0CFI@@2@@Z ; Eigen::internal::evaluator<Eigen::Matrix<float,600,600,0,600,600> >::evaluator<Eigen::Matrix<float,600,600,0,600,600> >
PUBLIC	??0?$generic_dense_assignment_kernel@U?$evaluator@V?$Matrix@M$0CFI@$0CFI@$0A@$0CFI@$0CFI@@Eigen@@@internal@Eigen@@U123@U?$swap_assign_op@M@23@$0A@@internal@Eigen@@QEAA@AEAU?$evaluator@V?$Matrix@M$0CFI@$0CFI@$0A@$0CFI@$0CFI@@Eigen@@@12@AEBU312@AEBU?$swap_assign_op@M@12@AEAV?$Matrix@M$0CFI@$0CFI@$0A@$0CFI@$0CFI@@2@@Z ; Eigen::internal::generic_dense_assignment_kernel<Eigen::internal::evaluator<Eigen::Matrix<float,600,600,0,600,600> >,Eigen::internal::evaluator<Eigen::Matrix<float,600,600,0,600,600> >,Eigen::internal::swap_assign_op<float>,0>::generic_dense_assignment_kernel<Eigen::internal::evaluator<Eigen::Matrix<float,600,600,0,600,600> >,Eigen::internal::evaluator<Eigen::Matrix<float,600,600,0,600,600> >,Eigen::internal::swap_assign_op<float>,0>
PUBLIC	?run@?$dense_assignment_loop@V?$generic_dense_assignment_kernel@U?$evaluator@V?$Matrix@M$0CFI@$0CFI@$0A@$0CFI@$0CFI@@Eigen@@@internal@Eigen@@U123@U?$swap_assign_op@M@23@$0A@@internal@Eigen@@$01$0A@@internal@Eigen@@SAXAEAV?$generic_dense_assignment_kernel@U?$evaluator@V?$Matrix@M$0CFI@$0CFI@$0A@$0CFI@$0CFI@@Eigen@@@internal@Eigen@@U123@U?$swap_assign_op@M@23@$0A@@23@@Z ; Eigen::internal::dense_assignment_loop<Eigen::internal::generic_dense_assignment_kernel<Eigen::internal::evaluator<Eigen::Matrix<float,600,600,0,600,600> >,Eigen::internal::evaluator<Eigen::Matrix<float,600,600,0,600,600> >,Eigen::internal::swap_assign_op<float>,0>,2,0>::run
PUBLIC	??1?$evaluator_base@V?$Matrix@M$00$00$0A@$00$00@Eigen@@@internal@Eigen@@QEAA@XZ ; Eigen::internal::evaluator_base<Eigen::Matrix<float,1,1,0,1,1> >::~evaluator_base<Eigen::Matrix<float,1,1,0,1,1> >
PUBLIC	??0?$evaluator@V?$Matrix@M$00$00$0A@$00$00@Eigen@@@internal@Eigen@@QEAA@AEBV?$Matrix@M$00$00$0A@$00$00@2@@Z ; Eigen::internal::evaluator<Eigen::Matrix<float,1,1,0,1,1> >::evaluator<Eigen::Matrix<float,1,1,0,1,1> >
PUBLIC	??0?$generic_dense_assignment_kernel@U?$evaluator@V?$Matrix@M$00$00$0A@$00$00@Eigen@@@internal@Eigen@@U123@U?$swap_assign_op@M@23@$0A@@internal@Eigen@@QEAA@AEAU?$evaluator@V?$Matrix@M$00$00$0A@$00$00@Eigen@@@12@AEBU312@AEBU?$swap_assign_op@M@12@AEAV?$Matrix@M$00$00$0A@$00$00@2@@Z ; Eigen::internal::generic_dense_assignment_kernel<Eigen::internal::evaluator<Eigen::Matrix<float,1,1,0,1,1> >,Eigen::internal::evaluator<Eigen::Matrix<float,1,1,0,1,1> >,Eigen::internal::swap_assign_op<float>,0>::generic_dense_assignment_kernel<Eigen::internal::evaluator<Eigen::Matrix<float,1,1,0,1,1> >,Eigen::internal::evaluator<Eigen::Matrix<float,1,1,0,1,1> >,Eigen::internal::swap_assign_op<float>,0>
PUBLIC	?run@?$dense_assignment_loop@V?$generic_dense_assignment_kernel@U?$evaluator@V?$Matrix@M$00$00$0A@$00$00@Eigen@@@internal@Eigen@@U123@U?$swap_assign_op@M@23@$0A@@internal@Eigen@@$02$01@internal@Eigen@@SAXAEAV?$generic_dense_assignment_kernel@U?$evaluator@V?$Matrix@M$00$00$0A@$00$00@Eigen@@@internal@Eigen@@U123@U?$swap_assign_op@M@23@$0A@@23@@Z ; Eigen::internal::dense_assignment_loop<Eigen::internal::generic_dense_assignment_kernel<Eigen::internal::evaluator<Eigen::Matrix<float,1,1,0,1,1> >,Eigen::internal::evaluator<Eigen::Matrix<float,1,1,0,1,1> >,Eigen::internal::swap_assign_op<float>,0>,3,2>::run
PUBLIC	??1?$evaluator_base@V?$Matrix@M$0CFI@$00$0A@$0CFI@$00@Eigen@@@internal@Eigen@@QEAA@XZ ; Eigen::internal::evaluator_base<Eigen::Matrix<float,600,1,0,600,1> >::~evaluator_base<Eigen::Matrix<float,600,1,0,600,1> >
PUBLIC	??0?$evaluator@V?$Matrix@M$0CFI@$00$0A@$0CFI@$00@Eigen@@@internal@Eigen@@QEAA@AEBV?$Matrix@M$0CFI@$00$0A@$0CFI@$00@2@@Z ; Eigen::internal::evaluator<Eigen::Matrix<float,600,1,0,600,1> >::evaluator<Eigen::Matrix<float,600,1,0,600,1> >
PUBLIC	??0?$generic_dense_assignment_kernel@U?$evaluator@V?$Matrix@M$0CFI@$00$0A@$0CFI@$00@Eigen@@@internal@Eigen@@U123@U?$swap_assign_op@M@23@$0A@@internal@Eigen@@QEAA@AEAU?$evaluator@V?$Matrix@M$0CFI@$00$0A@$0CFI@$00@Eigen@@@12@AEBU312@AEBU?$swap_assign_op@M@12@AEAV?$Matrix@M$0CFI@$00$0A@$0CFI@$00@2@@Z ; Eigen::internal::generic_dense_assignment_kernel<Eigen::internal::evaluator<Eigen::Matrix<float,600,1,0,600,1> >,Eigen::internal::evaluator<Eigen::Matrix<float,600,1,0,600,1> >,Eigen::internal::swap_assign_op<float>,0>::generic_dense_assignment_kernel<Eigen::internal::evaluator<Eigen::Matrix<float,600,1,0,600,1> >,Eigen::internal::evaluator<Eigen::Matrix<float,600,1,0,600,1> >,Eigen::internal::swap_assign_op<float>,0>
PUBLIC	?run@?$dense_assignment_loop@V?$generic_dense_assignment_kernel@U?$evaluator@V?$Matrix@M$0CFI@$00$0A@$0CFI@$00@Eigen@@@internal@Eigen@@U123@U?$swap_assign_op@M@23@$0A@@internal@Eigen@@$01$0A@@internal@Eigen@@SAXAEAV?$generic_dense_assignment_kernel@U?$evaluator@V?$Matrix@M$0CFI@$00$0A@$0CFI@$00@Eigen@@@internal@Eigen@@U123@U?$swap_assign_op@M@23@$0A@@23@@Z ; Eigen::internal::dense_assignment_loop<Eigen::internal::generic_dense_assignment_kernel<Eigen::internal::evaluator<Eigen::Matrix<float,600,1,0,600,1> >,Eigen::internal::evaluator<Eigen::Matrix<float,600,1,0,600,1> >,Eigen::internal::swap_assign_op<float>,0>,2,0>::run
PUBLIC	??1?$evaluator_base@V?$Matrix@M$00$0CFI@$00$00$0CFI@@Eigen@@@internal@Eigen@@QEAA@XZ ; Eigen::internal::evaluator_base<Eigen::Matrix<float,1,600,1,1,600> >::~evaluator_base<Eigen::Matrix<float,1,600,1,1,600> >
PUBLIC	??0?$evaluator@V?$Matrix@M$00$0CFI@$00$00$0CFI@@Eigen@@@internal@Eigen@@QEAA@AEBV?$Matrix@M$00$0CFI@$00$00$0CFI@@2@@Z ; Eigen::internal::evaluator<Eigen::Matrix<float,1,600,1,1,600> >::evaluator<Eigen::Matrix<float,1,600,1,1,600> >
PUBLIC	??0?$generic_dense_assignment_kernel@U?$evaluator@V?$Matrix@M$00$0CFI@$00$00$0CFI@@Eigen@@@internal@Eigen@@U123@U?$swap_assign_op@M@23@$0A@@internal@Eigen@@QEAA@AEAU?$evaluator@V?$Matrix@M$00$0CFI@$00$00$0CFI@@Eigen@@@12@AEBU312@AEBU?$swap_assign_op@M@12@AEAV?$Matrix@M$00$0CFI@$00$00$0CFI@@2@@Z ; Eigen::internal::generic_dense_assignment_kernel<Eigen::internal::evaluator<Eigen::Matrix<float,1,600,1,1,600> >,Eigen::internal::evaluator<Eigen::Matrix<float,1,600,1,1,600> >,Eigen::internal::swap_assign_op<float>,0>::generic_dense_assignment_kernel<Eigen::internal::evaluator<Eigen::Matrix<float,1,600,1,1,600> >,Eigen::internal::evaluator<Eigen::Matrix<float,1,600,1,1,600> >,Eigen::internal::swap_assign_op<float>,0>
PUBLIC	?run@?$dense_assignment_loop@V?$generic_dense_assignment_kernel@U?$evaluator@V?$Matrix@M$00$0CFI@$00$00$0CFI@@Eigen@@@internal@Eigen@@U123@U?$swap_assign_op@M@23@$0A@@internal@Eigen@@$01$0A@@internal@Eigen@@SAXAEAV?$generic_dense_assignment_kernel@U?$evaluator@V?$Matrix@M$00$0CFI@$00$00$0CFI@@Eigen@@@internal@Eigen@@U123@U?$swap_assign_op@M@23@$0A@@23@@Z ; Eigen::internal::dense_assignment_loop<Eigen::internal::generic_dense_assignment_kernel<Eigen::internal::evaluator<Eigen::Matrix<float,1,600,1,1,600> >,Eigen::internal::evaluator<Eigen::Matrix<float,1,600,1,1,600> >,Eigen::internal::swap_assign_op<float>,0>,2,0>::run
PUBLIC	??1?$evaluator_base@V?$Matrix@M$0HAI@$00$0A@$0HAI@$00@Eigen@@@internal@Eigen@@QEAA@XZ ; Eigen::internal::evaluator_base<Eigen::Matrix<float,1800,1,0,1800,1> >::~evaluator_base<Eigen::Matrix<float,1800,1,0,1800,1> >
PUBLIC	??0?$evaluator@V?$Matrix@M$0HAI@$00$0A@$0HAI@$00@Eigen@@@internal@Eigen@@QEAA@AEBV?$Matrix@M$0HAI@$00$0A@$0HAI@$00@2@@Z ; Eigen::internal::evaluator<Eigen::Matrix<float,1800,1,0,1800,1> >::evaluator<Eigen::Matrix<float,1800,1,0,1800,1> >
PUBLIC	??0?$generic_dense_assignment_kernel@U?$evaluator@V?$Matrix@M$0HAI@$00$0A@$0HAI@$00@Eigen@@@internal@Eigen@@U123@U?$swap_assign_op@M@23@$0A@@internal@Eigen@@QEAA@AEAU?$evaluator@V?$Matrix@M$0HAI@$00$0A@$0HAI@$00@Eigen@@@12@AEBU312@AEBU?$swap_assign_op@M@12@AEAV?$Matrix@M$0HAI@$00$0A@$0HAI@$00@2@@Z ; Eigen::internal::generic_dense_assignment_kernel<Eigen::internal::evaluator<Eigen::Matrix<float,1800,1,0,1800,1> >,Eigen::internal::evaluator<Eigen::Matrix<float,1800,1,0,1800,1> >,Eigen::internal::swap_assign_op<float>,0>::generic_dense_assignment_kernel<Eigen::internal::evaluator<Eigen::Matrix<float,1800,1,0,1800,1> >,Eigen::internal::evaluator<Eigen::Matrix<float,1800,1,0,1800,1> >,Eigen::internal::swap_assign_op<float>,0>
PUBLIC	?run@?$dense_assignment_loop@V?$generic_dense_assignment_kernel@U?$evaluator@V?$Matrix@M$0HAI@$00$0A@$0HAI@$00@Eigen@@@internal@Eigen@@U123@U?$swap_assign_op@M@23@$0A@@internal@Eigen@@$01$0A@@internal@Eigen@@SAXAEAV?$generic_dense_assignment_kernel@U?$evaluator@V?$Matrix@M$0HAI@$00$0A@$0HAI@$00@Eigen@@@internal@Eigen@@U123@U?$swap_assign_op@M@23@$0A@@23@@Z ; Eigen::internal::dense_assignment_loop<Eigen::internal::generic_dense_assignment_kernel<Eigen::internal::evaluator<Eigen::Matrix<float,1800,1,0,1800,1> >,Eigen::internal::evaluator<Eigen::Matrix<float,1800,1,0,1800,1> >,Eigen::internal::swap_assign_op<float>,0>,2,0>::run
PUBLIC	??1?$evaluator_base@V?$Matrix@M$01$0DIE@$0A@$01$0DIE@@Eigen@@@internal@Eigen@@QEAA@XZ ; Eigen::internal::evaluator_base<Eigen::Matrix<float,2,900,0,2,900> >::~evaluator_base<Eigen::Matrix<float,2,900,0,2,900> >
PUBLIC	??0?$evaluator@V?$Matrix@M$01$0DIE@$0A@$01$0DIE@@Eigen@@@internal@Eigen@@QEAA@AEBV?$Matrix@M$01$0DIE@$0A@$01$0DIE@@2@@Z ; Eigen::internal::evaluator<Eigen::Matrix<float,2,900,0,2,900> >::evaluator<Eigen::Matrix<float,2,900,0,2,900> >
PUBLIC	??0?$generic_dense_assignment_kernel@U?$evaluator@V?$Matrix@M$01$0DIE@$0A@$01$0DIE@@Eigen@@@internal@Eigen@@U123@U?$swap_assign_op@M@23@$0A@@internal@Eigen@@QEAA@AEAU?$evaluator@V?$Matrix@M$01$0DIE@$0A@$01$0DIE@@Eigen@@@12@AEBU312@AEBU?$swap_assign_op@M@12@AEAV?$Matrix@M$01$0DIE@$0A@$01$0DIE@@2@@Z ; Eigen::internal::generic_dense_assignment_kernel<Eigen::internal::evaluator<Eigen::Matrix<float,2,900,0,2,900> >,Eigen::internal::evaluator<Eigen::Matrix<float,2,900,0,2,900> >,Eigen::internal::swap_assign_op<float>,0>::generic_dense_assignment_kernel<Eigen::internal::evaluator<Eigen::Matrix<float,2,900,0,2,900> >,Eigen::internal::evaluator<Eigen::Matrix<float,2,900,0,2,900> >,Eigen::internal::swap_assign_op<float>,0>
PUBLIC	?run@?$dense_assignment_loop@V?$generic_dense_assignment_kernel@U?$evaluator@V?$Matrix@M$01$0DIE@$0A@$01$0DIE@@Eigen@@@internal@Eigen@@U123@U?$swap_assign_op@M@23@$0A@@internal@Eigen@@$02$0A@@internal@Eigen@@SAXAEAV?$generic_dense_assignment_kernel@U?$evaluator@V?$Matrix@M$01$0DIE@$0A@$01$0DIE@@Eigen@@@internal@Eigen@@U123@U?$swap_assign_op@M@23@$0A@@23@@Z ; Eigen::internal::dense_assignment_loop<Eigen::internal::generic_dense_assignment_kernel<Eigen::internal::evaluator<Eigen::Matrix<float,2,900,0,2,900> >,Eigen::internal::evaluator<Eigen::Matrix<float,2,900,0,2,900> >,Eigen::internal::swap_assign_op<float>,0>,3,0>::run
PUBLIC	??1?$evaluator_base@V?$Matrix@M$0OBA@$00$0A@$0OBA@$00@Eigen@@@internal@Eigen@@QEAA@XZ ; Eigen::internal::evaluator_base<Eigen::Matrix<float,3600,1,0,3600,1> >::~evaluator_base<Eigen::Matrix<float,3600,1,0,3600,1> >
PUBLIC	??0?$evaluator@V?$Matrix@M$0OBA@$00$0A@$0OBA@$00@Eigen@@@internal@Eigen@@QEAA@AEBV?$Matrix@M$0OBA@$00$0A@$0OBA@$00@2@@Z ; Eigen::internal::evaluator<Eigen::Matrix<float,3600,1,0,3600,1> >::evaluator<Eigen::Matrix<float,3600,1,0,3600,1> >
PUBLIC	??0?$generic_dense_assignment_kernel@U?$evaluator@V?$Matrix@M$0OBA@$00$0A@$0OBA@$00@Eigen@@@internal@Eigen@@U123@U?$swap_assign_op@M@23@$0A@@internal@Eigen@@QEAA@AEAU?$evaluator@V?$Matrix@M$0OBA@$00$0A@$0OBA@$00@Eigen@@@12@AEBU312@AEBU?$swap_assign_op@M@12@AEAV?$Matrix@M$0OBA@$00$0A@$0OBA@$00@2@@Z ; Eigen::internal::generic_dense_assignment_kernel<Eigen::internal::evaluator<Eigen::Matrix<float,3600,1,0,3600,1> >,Eigen::internal::evaluator<Eigen::Matrix<float,3600,1,0,3600,1> >,Eigen::internal::swap_assign_op<float>,0>::generic_dense_assignment_kernel<Eigen::internal::evaluator<Eigen::Matrix<float,3600,1,0,3600,1> >,Eigen::internal::evaluator<Eigen::Matrix<float,3600,1,0,3600,1> >,Eigen::internal::swap_assign_op<float>,0>
PUBLIC	?run@?$dense_assignment_loop@V?$generic_dense_assignment_kernel@U?$evaluator@V?$Matrix@M$0OBA@$00$0A@$0OBA@$00@Eigen@@@internal@Eigen@@U123@U?$swap_assign_op@M@23@$0A@@internal@Eigen@@$01$0A@@internal@Eigen@@SAXAEAV?$generic_dense_assignment_kernel@U?$evaluator@V?$Matrix@M$0OBA@$00$0A@$0OBA@$00@Eigen@@@internal@Eigen@@U123@U?$swap_assign_op@M@23@$0A@@23@@Z ; Eigen::internal::dense_assignment_loop<Eigen::internal::generic_dense_assignment_kernel<Eigen::internal::evaluator<Eigen::Matrix<float,3600,1,0,3600,1> >,Eigen::internal::evaluator<Eigen::Matrix<float,3600,1,0,3600,1> >,Eigen::internal::swap_assign_op<float>,0>,2,0>::run
PUBLIC	??1?$evaluator_base@V?$Matrix@M$02$0ELA@$0A@$02$0ELA@@Eigen@@@internal@Eigen@@QEAA@XZ ; Eigen::internal::evaluator_base<Eigen::Matrix<float,3,1200,0,3,1200> >::~evaluator_base<Eigen::Matrix<float,3,1200,0,3,1200> >
PUBLIC	??0?$evaluator@V?$Matrix@M$02$0ELA@$0A@$02$0ELA@@Eigen@@@internal@Eigen@@QEAA@AEBV?$Matrix@M$02$0ELA@$0A@$02$0ELA@@2@@Z ; Eigen::internal::evaluator<Eigen::Matrix<float,3,1200,0,3,1200> >::evaluator<Eigen::Matrix<float,3,1200,0,3,1200> >
PUBLIC	??0?$generic_dense_assignment_kernel@U?$evaluator@V?$Matrix@M$02$0ELA@$0A@$02$0ELA@@Eigen@@@internal@Eigen@@U123@U?$swap_assign_op@M@23@$0A@@internal@Eigen@@QEAA@AEAU?$evaluator@V?$Matrix@M$02$0ELA@$0A@$02$0ELA@@Eigen@@@12@AEBU312@AEBU?$swap_assign_op@M@12@AEAV?$Matrix@M$02$0ELA@$0A@$02$0ELA@@2@@Z ; Eigen::internal::generic_dense_assignment_kernel<Eigen::internal::evaluator<Eigen::Matrix<float,3,1200,0,3,1200> >,Eigen::internal::evaluator<Eigen::Matrix<float,3,1200,0,3,1200> >,Eigen::internal::swap_assign_op<float>,0>::generic_dense_assignment_kernel<Eigen::internal::evaluator<Eigen::Matrix<float,3,1200,0,3,1200> >,Eigen::internal::evaluator<Eigen::Matrix<float,3,1200,0,3,1200> >,Eigen::internal::swap_assign_op<float>,0>
PUBLIC	?run@?$dense_assignment_loop@V?$generic_dense_assignment_kernel@U?$evaluator@V?$Matrix@M$02$0ELA@$0A@$02$0ELA@@Eigen@@@internal@Eigen@@U123@U?$swap_assign_op@M@23@$0A@@internal@Eigen@@$02$0A@@internal@Eigen@@SAXAEAV?$generic_dense_assignment_kernel@U?$evaluator@V?$Matrix@M$02$0ELA@$0A@$02$0ELA@@Eigen@@@internal@Eigen@@U123@U?$swap_assign_op@M@23@$0A@@23@@Z ; Eigen::internal::dense_assignment_loop<Eigen::internal::generic_dense_assignment_kernel<Eigen::internal::evaluator<Eigen::Matrix<float,3,1200,0,3,1200> >,Eigen::internal::evaluator<Eigen::Matrix<float,3,1200,0,3,1200> >,Eigen::internal::swap_assign_op<float>,0>,3,0>::run
PUBLIC	??1?$evaluator_base@V?$Matrix@M$0BHHA@$00$0A@$0BHHA@$00@Eigen@@@internal@Eigen@@QEAA@XZ ; Eigen::internal::evaluator_base<Eigen::Matrix<float,6000,1,0,6000,1> >::~evaluator_base<Eigen::Matrix<float,6000,1,0,6000,1> >
PUBLIC	??0?$evaluator@V?$Matrix@M$0BHHA@$00$0A@$0BHHA@$00@Eigen@@@internal@Eigen@@QEAA@AEBV?$Matrix@M$0BHHA@$00$0A@$0BHHA@$00@2@@Z ; Eigen::internal::evaluator<Eigen::Matrix<float,6000,1,0,6000,1> >::evaluator<Eigen::Matrix<float,6000,1,0,6000,1> >
PUBLIC	??0?$generic_dense_assignment_kernel@U?$evaluator@V?$Matrix@M$0BHHA@$00$0A@$0BHHA@$00@Eigen@@@internal@Eigen@@U123@U?$swap_assign_op@M@23@$0A@@internal@Eigen@@QEAA@AEAU?$evaluator@V?$Matrix@M$0BHHA@$00$0A@$0BHHA@$00@Eigen@@@12@AEBU312@AEBU?$swap_assign_op@M@12@AEAV?$Matrix@M$0BHHA@$00$0A@$0BHHA@$00@2@@Z ; Eigen::internal::generic_dense_assignment_kernel<Eigen::internal::evaluator<Eigen::Matrix<float,6000,1,0,6000,1> >,Eigen::internal::evaluator<Eigen::Matrix<float,6000,1,0,6000,1> >,Eigen::internal::swap_assign_op<float>,0>::generic_dense_assignment_kernel<Eigen::internal::evaluator<Eigen::Matrix<float,6000,1,0,6000,1> >,Eigen::internal::evaluator<Eigen::Matrix<float,6000,1,0,6000,1> >,Eigen::internal::swap_assign_op<float>,0>
PUBLIC	?run@?$dense_assignment_loop@V?$generic_dense_assignment_kernel@U?$evaluator@V?$Matrix@M$0BHHA@$00$0A@$0BHHA@$00@Eigen@@@internal@Eigen@@U123@U?$swap_assign_op@M@23@$0A@@internal@Eigen@@$01$0A@@internal@Eigen@@SAXAEAV?$generic_dense_assignment_kernel@U?$evaluator@V?$Matrix@M$0BHHA@$00$0A@$0BHHA@$00@Eigen@@@internal@Eigen@@U123@U?$swap_assign_op@M@23@$0A@@23@@Z ; Eigen::internal::dense_assignment_loop<Eigen::internal::generic_dense_assignment_kernel<Eigen::internal::evaluator<Eigen::Matrix<float,6000,1,0,6000,1> >,Eigen::internal::evaluator<Eigen::Matrix<float,6000,1,0,6000,1> >,Eigen::internal::swap_assign_op<float>,0>,2,0>::run
PUBLIC	??1?$evaluator_base@V?$Matrix@M$03$0FNM@$0A@$03$0FNM@@Eigen@@@internal@Eigen@@QEAA@XZ ; Eigen::internal::evaluator_base<Eigen::Matrix<float,4,1500,0,4,1500> >::~evaluator_base<Eigen::Matrix<float,4,1500,0,4,1500> >
PUBLIC	??0?$evaluator@V?$Matrix@M$03$0FNM@$0A@$03$0FNM@@Eigen@@@internal@Eigen@@QEAA@AEBV?$Matrix@M$03$0FNM@$0A@$03$0FNM@@2@@Z ; Eigen::internal::evaluator<Eigen::Matrix<float,4,1500,0,4,1500> >::evaluator<Eigen::Matrix<float,4,1500,0,4,1500> >
PUBLIC	??0?$generic_dense_assignment_kernel@U?$evaluator@V?$Matrix@M$03$0FNM@$0A@$03$0FNM@@Eigen@@@internal@Eigen@@U123@U?$swap_assign_op@M@23@$0A@@internal@Eigen@@QEAA@AEAU?$evaluator@V?$Matrix@M$03$0FNM@$0A@$03$0FNM@@Eigen@@@12@AEBU312@AEBU?$swap_assign_op@M@12@AEAV?$Matrix@M$03$0FNM@$0A@$03$0FNM@@2@@Z ; Eigen::internal::generic_dense_assignment_kernel<Eigen::internal::evaluator<Eigen::Matrix<float,4,1500,0,4,1500> >,Eigen::internal::evaluator<Eigen::Matrix<float,4,1500,0,4,1500> >,Eigen::internal::swap_assign_op<float>,0>::generic_dense_assignment_kernel<Eigen::internal::evaluator<Eigen::Matrix<float,4,1500,0,4,1500> >,Eigen::internal::evaluator<Eigen::Matrix<float,4,1500,0,4,1500> >,Eigen::internal::swap_assign_op<float>,0>
PUBLIC	?run@?$dense_assignment_loop@V?$generic_dense_assignment_kernel@U?$evaluator@V?$Matrix@M$03$0FNM@$0A@$03$0FNM@@Eigen@@@internal@Eigen@@U123@U?$swap_assign_op@M@23@$0A@@internal@Eigen@@$01$00@internal@Eigen@@SAXAEAV?$generic_dense_assignment_kernel@U?$evaluator@V?$Matrix@M$03$0FNM@$0A@$03$0FNM@@Eigen@@@internal@Eigen@@U123@U?$swap_assign_op@M@23@$0A@@23@@Z ; Eigen::internal::dense_assignment_loop<Eigen::internal::generic_dense_assignment_kernel<Eigen::internal::evaluator<Eigen::Matrix<float,4,1500,0,4,1500> >,Eigen::internal::evaluator<Eigen::Matrix<float,4,1500,0,4,1500> >,Eigen::internal::swap_assign_op<float>,0>,2,1>::run
PUBLIC	??1?$evaluator_base@V?$Matrix@M$0CDCI@$00$0A@$0CDCI@$00@Eigen@@@internal@Eigen@@QEAA@XZ ; Eigen::internal::evaluator_base<Eigen::Matrix<float,9000,1,0,9000,1> >::~evaluator_base<Eigen::Matrix<float,9000,1,0,9000,1> >
PUBLIC	??0?$evaluator@V?$Matrix@M$0CDCI@$00$0A@$0CDCI@$00@Eigen@@@internal@Eigen@@QEAA@AEBV?$Matrix@M$0CDCI@$00$0A@$0CDCI@$00@2@@Z ; Eigen::internal::evaluator<Eigen::Matrix<float,9000,1,0,9000,1> >::evaluator<Eigen::Matrix<float,9000,1,0,9000,1> >
PUBLIC	??0?$generic_dense_assignment_kernel@U?$evaluator@V?$Matrix@M$0CDCI@$00$0A@$0CDCI@$00@Eigen@@@internal@Eigen@@U123@U?$swap_assign_op@M@23@$0A@@internal@Eigen@@QEAA@AEAU?$evaluator@V?$Matrix@M$0CDCI@$00$0A@$0CDCI@$00@Eigen@@@12@AEBU312@AEBU?$swap_assign_op@M@12@AEAV?$Matrix@M$0CDCI@$00$0A@$0CDCI@$00@2@@Z ; Eigen::internal::generic_dense_assignment_kernel<Eigen::internal::evaluator<Eigen::Matrix<float,9000,1,0,9000,1> >,Eigen::internal::evaluator<Eigen::Matrix<float,9000,1,0,9000,1> >,Eigen::internal::swap_assign_op<float>,0>::generic_dense_assignment_kernel<Eigen::internal::evaluator<Eigen::Matrix<float,9000,1,0,9000,1> >,Eigen::internal::evaluator<Eigen::Matrix<float,9000,1,0,9000,1> >,Eigen::internal::swap_assign_op<float>,0>
PUBLIC	?run@?$dense_assignment_loop@V?$generic_dense_assignment_kernel@U?$evaluator@V?$Matrix@M$0CDCI@$00$0A@$0CDCI@$00@Eigen@@@internal@Eigen@@U123@U?$swap_assign_op@M@23@$0A@@internal@Eigen@@$01$0A@@internal@Eigen@@SAXAEAV?$generic_dense_assignment_kernel@U?$evaluator@V?$Matrix@M$0CDCI@$00$0A@$0CDCI@$00@Eigen@@@internal@Eigen@@U123@U?$swap_assign_op@M@23@$0A@@23@@Z ; Eigen::internal::dense_assignment_loop<Eigen::internal::generic_dense_assignment_kernel<Eigen::internal::evaluator<Eigen::Matrix<float,9000,1,0,9000,1> >,Eigen::internal::evaluator<Eigen::Matrix<float,9000,1,0,9000,1> >,Eigen::internal::swap_assign_op<float>,0>,2,0>::run
PUBLIC	??1?$evaluator_base@V?$Matrix@M$01$01$0A@$01$01@Eigen@@@internal@Eigen@@QEAA@XZ ; Eigen::internal::evaluator_base<Eigen::Matrix<float,2,2,0,2,2> >::~evaluator_base<Eigen::Matrix<float,2,2,0,2,2> >
PUBLIC	??0?$evaluator@V?$Matrix@M$01$01$0A@$01$01@Eigen@@@internal@Eigen@@QEAA@AEBV?$Matrix@M$01$01$0A@$01$01@2@@Z ; Eigen::internal::evaluator<Eigen::Matrix<float,2,2,0,2,2> >::evaluator<Eigen::Matrix<float,2,2,0,2,2> >
PUBLIC	??0?$generic_dense_assignment_kernel@U?$evaluator@V?$Matrix@M$01$01$0A@$01$01@Eigen@@@internal@Eigen@@U123@U?$swap_assign_op@M@23@$0A@@internal@Eigen@@QEAA@AEAU?$evaluator@V?$Matrix@M$01$01$0A@$01$01@Eigen@@@12@AEBU312@AEBU?$swap_assign_op@M@12@AEAV?$Matrix@M$01$01$0A@$01$01@2@@Z ; Eigen::internal::generic_dense_assignment_kernel<Eigen::internal::evaluator<Eigen::Matrix<float,2,2,0,2,2> >,Eigen::internal::evaluator<Eigen::Matrix<float,2,2,0,2,2> >,Eigen::internal::swap_assign_op<float>,0>::generic_dense_assignment_kernel<Eigen::internal::evaluator<Eigen::Matrix<float,2,2,0,2,2> >,Eigen::internal::evaluator<Eigen::Matrix<float,2,2,0,2,2> >,Eigen::internal::swap_assign_op<float>,0>
PUBLIC	?run@?$dense_assignment_loop@V?$generic_dense_assignment_kernel@U?$evaluator@V?$Matrix@M$01$01$0A@$01$01@Eigen@@@internal@Eigen@@U123@U?$swap_assign_op@M@23@$0A@@internal@Eigen@@$02$01@internal@Eigen@@SAXAEAV?$generic_dense_assignment_kernel@U?$evaluator@V?$Matrix@M$01$01$0A@$01$01@Eigen@@@internal@Eigen@@U123@U?$swap_assign_op@M@23@$0A@@23@@Z ; Eigen::internal::dense_assignment_loop<Eigen::internal::generic_dense_assignment_kernel<Eigen::internal::evaluator<Eigen::Matrix<float,2,2,0,2,2> >,Eigen::internal::evaluator<Eigen::Matrix<float,2,2,0,2,2> >,Eigen::internal::swap_assign_op<float>,0>,3,2>::run
PUBLIC	??1?$evaluator_base@V?$Matrix@M$04$0HAI@$0A@$04$0HAI@@Eigen@@@internal@Eigen@@QEAA@XZ ; Eigen::internal::evaluator_base<Eigen::Matrix<float,5,1800,0,5,1800> >::~evaluator_base<Eigen::Matrix<float,5,1800,0,5,1800> >
PUBLIC	??0?$evaluator@V?$Matrix@M$04$0HAI@$0A@$04$0HAI@@Eigen@@@internal@Eigen@@QEAA@AEBV?$Matrix@M$04$0HAI@$0A@$04$0HAI@@2@@Z ; Eigen::internal::evaluator<Eigen::Matrix<float,5,1800,0,5,1800> >::evaluator<Eigen::Matrix<float,5,1800,0,5,1800> >
PUBLIC	??0?$generic_dense_assignment_kernel@U?$evaluator@V?$Matrix@M$04$0HAI@$0A@$04$0HAI@@Eigen@@@internal@Eigen@@U123@U?$swap_assign_op@M@23@$0A@@internal@Eigen@@QEAA@AEAU?$evaluator@V?$Matrix@M$04$0HAI@$0A@$04$0HAI@@Eigen@@@12@AEBU312@AEBU?$swap_assign_op@M@12@AEAV?$Matrix@M$04$0HAI@$0A@$04$0HAI@@2@@Z ; Eigen::internal::generic_dense_assignment_kernel<Eigen::internal::evaluator<Eigen::Matrix<float,5,1800,0,5,1800> >,Eigen::internal::evaluator<Eigen::Matrix<float,5,1800,0,5,1800> >,Eigen::internal::swap_assign_op<float>,0>::generic_dense_assignment_kernel<Eigen::internal::evaluator<Eigen::Matrix<float,5,1800,0,5,1800> >,Eigen::internal::evaluator<Eigen::Matrix<float,5,1800,0,5,1800> >,Eigen::internal::swap_assign_op<float>,0>
PUBLIC	?run@?$dense_assignment_loop@V?$generic_dense_assignment_kernel@U?$evaluator@V?$Matrix@M$04$0HAI@$0A@$04$0HAI@@Eigen@@@internal@Eigen@@U123@U?$swap_assign_op@M@23@$0A@@internal@Eigen@@$02$0A@@internal@Eigen@@SAXAEAV?$generic_dense_assignment_kernel@U?$evaluator@V?$Matrix@M$04$0HAI@$0A@$04$0HAI@@Eigen@@@internal@Eigen@@U123@U?$swap_assign_op@M@23@$0A@@23@@Z ; Eigen::internal::dense_assignment_loop<Eigen::internal::generic_dense_assignment_kernel<Eigen::internal::evaluator<Eigen::Matrix<float,5,1800,0,5,1800> >,Eigen::internal::evaluator<Eigen::Matrix<float,5,1800,0,5,1800> >,Eigen::internal::swap_assign_op<float>,0>,3,0>::run
PUBLIC	??1?$evaluator@V?$PlainObjectBase@V?$Matrix@M$04$0HAI@$0A@$04$0HAI@@Eigen@@@Eigen@@@internal@Eigen@@QEAA@XZ ; Eigen::internal::evaluator<Eigen::PlainObjectBase<Eigen::Matrix<float,5,1800,0,5,1800> > >::~evaluator<Eigen::PlainObjectBase<Eigen::Matrix<float,5,1800,0,5,1800> > >
PUBLIC	??1?$evaluator@V?$PlainObjectBase@V?$Matrix@M$01$01$0A@$01$01@Eigen@@@Eigen@@@internal@Eigen@@QEAA@XZ ; Eigen::internal::evaluator<Eigen::PlainObjectBase<Eigen::Matrix<float,2,2,0,2,2> > >::~evaluator<Eigen::PlainObjectBase<Eigen::Matrix<float,2,2,0,2,2> > >
PUBLIC	??1?$evaluator@V?$PlainObjectBase@V?$Matrix@M$0CDCI@$00$0A@$0CDCI@$00@Eigen@@@Eigen@@@internal@Eigen@@QEAA@XZ ; Eigen::internal::evaluator<Eigen::PlainObjectBase<Eigen::Matrix<float,9000,1,0,9000,1> > >::~evaluator<Eigen::PlainObjectBase<Eigen::Matrix<float,9000,1,0,9000,1> > >
PUBLIC	??1?$evaluator@V?$PlainObjectBase@V?$Matrix@M$03$0FNM@$0A@$03$0FNM@@Eigen@@@Eigen@@@internal@Eigen@@QEAA@XZ ; Eigen::internal::evaluator<Eigen::PlainObjectBase<Eigen::Matrix<float,4,1500,0,4,1500> > >::~evaluator<Eigen::PlainObjectBase<Eigen::Matrix<float,4,1500,0,4,1500> > >
PUBLIC	??1?$evaluator@V?$PlainObjectBase@V?$Matrix@M$0BHHA@$00$0A@$0BHHA@$00@Eigen@@@Eigen@@@internal@Eigen@@QEAA@XZ ; Eigen::internal::evaluator<Eigen::PlainObjectBase<Eigen::Matrix<float,6000,1,0,6000,1> > >::~evaluator<Eigen::PlainObjectBase<Eigen::Matrix<float,6000,1,0,6000,1> > >
PUBLIC	??1?$evaluator@V?$PlainObjectBase@V?$Matrix@M$02$0ELA@$0A@$02$0ELA@@Eigen@@@Eigen@@@internal@Eigen@@QEAA@XZ ; Eigen::internal::evaluator<Eigen::PlainObjectBase<Eigen::Matrix<float,3,1200,0,3,1200> > >::~evaluator<Eigen::PlainObjectBase<Eigen::Matrix<float,3,1200,0,3,1200> > >
PUBLIC	??1?$evaluator@V?$PlainObjectBase@V?$Matrix@M$0OBA@$00$0A@$0OBA@$00@Eigen@@@Eigen@@@internal@Eigen@@QEAA@XZ ; Eigen::internal::evaluator<Eigen::PlainObjectBase<Eigen::Matrix<float,3600,1,0,3600,1> > >::~evaluator<Eigen::PlainObjectBase<Eigen::Matrix<float,3600,1,0,3600,1> > >
PUBLIC	??1?$evaluator@V?$PlainObjectBase@V?$Matrix@M$01$0DIE@$0A@$01$0DIE@@Eigen@@@Eigen@@@internal@Eigen@@QEAA@XZ ; Eigen::internal::evaluator<Eigen::PlainObjectBase<Eigen::Matrix<float,2,900,0,2,900> > >::~evaluator<Eigen::PlainObjectBase<Eigen::Matrix<float,2,900,0,2,900> > >
PUBLIC	??1?$evaluator@V?$PlainObjectBase@V?$Matrix@M$0HAI@$00$0A@$0HAI@$00@Eigen@@@Eigen@@@internal@Eigen@@QEAA@XZ ; Eigen::internal::evaluator<Eigen::PlainObjectBase<Eigen::Matrix<float,1800,1,0,1800,1> > >::~evaluator<Eigen::PlainObjectBase<Eigen::Matrix<float,1800,1,0,1800,1> > >
PUBLIC	??1?$evaluator@V?$PlainObjectBase@V?$Matrix@M$00$0CFI@$00$00$0CFI@@Eigen@@@Eigen@@@internal@Eigen@@QEAA@XZ ; Eigen::internal::evaluator<Eigen::PlainObjectBase<Eigen::Matrix<float,1,600,1,1,600> > >::~evaluator<Eigen::PlainObjectBase<Eigen::Matrix<float,1,600,1,1,600> > >
PUBLIC	??1?$evaluator@V?$PlainObjectBase@V?$Matrix@M$0CFI@$00$0A@$0CFI@$00@Eigen@@@Eigen@@@internal@Eigen@@QEAA@XZ ; Eigen::internal::evaluator<Eigen::PlainObjectBase<Eigen::Matrix<float,600,1,0,600,1> > >::~evaluator<Eigen::PlainObjectBase<Eigen::Matrix<float,600,1,0,600,1> > >
PUBLIC	??1?$evaluator@V?$PlainObjectBase@V?$Matrix@M$00$00$0A@$00$00@Eigen@@@Eigen@@@internal@Eigen@@QEAA@XZ ; Eigen::internal::evaluator<Eigen::PlainObjectBase<Eigen::Matrix<float,1,1,0,1,1> > >::~evaluator<Eigen::PlainObjectBase<Eigen::Matrix<float,1,1,0,1,1> > >
PUBLIC	??1?$evaluator@V?$PlainObjectBase@V?$Matrix@M$0CFI@$0CFI@$0A@$0CFI@$0CFI@@Eigen@@@Eigen@@@internal@Eigen@@QEAA@XZ ; Eigen::internal::evaluator<Eigen::PlainObjectBase<Eigen::Matrix<float,600,600,0,600,600> > >::~evaluator<Eigen::PlainObjectBase<Eigen::Matrix<float,600,600,0,600,600> > >
PUBLIC	??1?$evaluator@V?$Matrix@M$04$0HAI@$0A@$04$0HAI@@Eigen@@@internal@Eigen@@QEAA@XZ ; Eigen::internal::evaluator<Eigen::Matrix<float,5,1800,0,5,1800> >::~evaluator<Eigen::Matrix<float,5,1800,0,5,1800> >
PUBLIC	??1?$evaluator@V?$Matrix@M$01$01$0A@$01$01@Eigen@@@internal@Eigen@@QEAA@XZ ; Eigen::internal::evaluator<Eigen::Matrix<float,2,2,0,2,2> >::~evaluator<Eigen::Matrix<float,2,2,0,2,2> >
PUBLIC	??1?$evaluator@V?$Matrix@M$0CDCI@$00$0A@$0CDCI@$00@Eigen@@@internal@Eigen@@QEAA@XZ ; Eigen::internal::evaluator<Eigen::Matrix<float,9000,1,0,9000,1> >::~evaluator<Eigen::Matrix<float,9000,1,0,9000,1> >
PUBLIC	??1?$evaluator@V?$Matrix@M$03$0FNM@$0A@$03$0FNM@@Eigen@@@internal@Eigen@@QEAA@XZ ; Eigen::internal::evaluator<Eigen::Matrix<float,4,1500,0,4,1500> >::~evaluator<Eigen::Matrix<float,4,1500,0,4,1500> >
PUBLIC	??1?$evaluator@V?$Matrix@M$0BHHA@$00$0A@$0BHHA@$00@Eigen@@@internal@Eigen@@QEAA@XZ ; Eigen::internal::evaluator<Eigen::Matrix<float,6000,1,0,6000,1> >::~evaluator<Eigen::Matrix<float,6000,1,0,6000,1> >
PUBLIC	??1?$evaluator@V?$Matrix@M$02$0ELA@$0A@$02$0ELA@@Eigen@@@internal@Eigen@@QEAA@XZ ; Eigen::internal::evaluator<Eigen::Matrix<float,3,1200,0,3,1200> >::~evaluator<Eigen::Matrix<float,3,1200,0,3,1200> >
PUBLIC	??1?$evaluator@V?$Matrix@M$0OBA@$00$0A@$0OBA@$00@Eigen@@@internal@Eigen@@QEAA@XZ ; Eigen::internal::evaluator<Eigen::Matrix<float,3600,1,0,3600,1> >::~evaluator<Eigen::Matrix<float,3600,1,0,3600,1> >
PUBLIC	??1?$evaluator@V?$Matrix@M$01$0DIE@$0A@$01$0DIE@@Eigen@@@internal@Eigen@@QEAA@XZ ; Eigen::internal::evaluator<Eigen::Matrix<float,2,900,0,2,900> >::~evaluator<Eigen::Matrix<float,2,900,0,2,900> >
PUBLIC	??1?$evaluator@V?$Matrix@M$0HAI@$00$0A@$0HAI@$00@Eigen@@@internal@Eigen@@QEAA@XZ ; Eigen::internal::evaluator<Eigen::Matrix<float,1800,1,0,1800,1> >::~evaluator<Eigen::Matrix<float,1800,1,0,1800,1> >
PUBLIC	??1?$evaluator@V?$Matrix@M$00$0CFI@$00$00$0CFI@@Eigen@@@internal@Eigen@@QEAA@XZ ; Eigen::internal::evaluator<Eigen::Matrix<float,1,600,1,1,600> >::~evaluator<Eigen::Matrix<float,1,600,1,1,600> >
PUBLIC	??1?$evaluator@V?$Matrix@M$0CFI@$00$0A@$0CFI@$00@Eigen@@@internal@Eigen@@QEAA@XZ ; Eigen::internal::evaluator<Eigen::Matrix<float,600,1,0,600,1> >::~evaluator<Eigen::Matrix<float,600,1,0,600,1> >
PUBLIC	??1?$evaluator@V?$Matrix@M$00$00$0A@$00$00@Eigen@@@internal@Eigen@@QEAA@XZ ; Eigen::internal::evaluator<Eigen::Matrix<float,1,1,0,1,1> >::~evaluator<Eigen::Matrix<float,1,1,0,1,1> >
PUBLIC	??1?$evaluator@V?$Matrix@M$0CFI@$0CFI@$0A@$0CFI@$0CFI@@Eigen@@@internal@Eigen@@QEAA@XZ ; Eigen::internal::evaluator<Eigen::Matrix<float,600,600,0,600,600> >::~evaluator<Eigen::Matrix<float,600,600,0,600,600> >
PUBLIC	??$call_dense_assignment_loop@V?$Matrix@M$04$0HAI@$0A@$04$0HAI@@Eigen@@V12@U?$swap_assign_op@M@internal@2@@internal@Eigen@@YAXAEAV?$Matrix@M$04$0HAI@$0A@$04$0HAI@@1@AEBV21@AEBU?$swap_assign_op@M@01@@Z ; Eigen::internal::call_dense_assignment_loop<Eigen::Matrix<float,5,1800,0,5,1800>,Eigen::Matrix<float,5,1800,0,5,1800>,Eigen::internal::swap_assign_op<float> >
PUBLIC	??$call_dense_assignment_loop@V?$Matrix@M$01$01$0A@$01$01@Eigen@@V12@U?$swap_assign_op@M@internal@2@@internal@Eigen@@YAXAEAV?$Matrix@M$01$01$0A@$01$01@1@AEBV21@AEBU?$swap_assign_op@M@01@@Z ; Eigen::internal::call_dense_assignment_loop<Eigen::Matrix<float,2,2,0,2,2>,Eigen::Matrix<float,2,2,0,2,2>,Eigen::internal::swap_assign_op<float> >
PUBLIC	??$call_dense_assignment_loop@V?$Matrix@M$0CDCI@$00$0A@$0CDCI@$00@Eigen@@V12@U?$swap_assign_op@M@internal@2@@internal@Eigen@@YAXAEAV?$Matrix@M$0CDCI@$00$0A@$0CDCI@$00@1@AEBV21@AEBU?$swap_assign_op@M@01@@Z ; Eigen::internal::call_dense_assignment_loop<Eigen::Matrix<float,9000,1,0,9000,1>,Eigen::Matrix<float,9000,1,0,9000,1>,Eigen::internal::swap_assign_op<float> >
PUBLIC	??$call_dense_assignment_loop@V?$Matrix@M$03$0FNM@$0A@$03$0FNM@@Eigen@@V12@U?$swap_assign_op@M@internal@2@@internal@Eigen@@YAXAEAV?$Matrix@M$03$0FNM@$0A@$03$0FNM@@1@AEBV21@AEBU?$swap_assign_op@M@01@@Z ; Eigen::internal::call_dense_assignment_loop<Eigen::Matrix<float,4,1500,0,4,1500>,Eigen::Matrix<float,4,1500,0,4,1500>,Eigen::internal::swap_assign_op<float> >
PUBLIC	??$call_dense_assignment_loop@V?$Matrix@M$0BHHA@$00$0A@$0BHHA@$00@Eigen@@V12@U?$swap_assign_op@M@internal@2@@internal@Eigen@@YAXAEAV?$Matrix@M$0BHHA@$00$0A@$0BHHA@$00@1@AEBV21@AEBU?$swap_assign_op@M@01@@Z ; Eigen::internal::call_dense_assignment_loop<Eigen::Matrix<float,6000,1,0,6000,1>,Eigen::Matrix<float,6000,1,0,6000,1>,Eigen::internal::swap_assign_op<float> >
PUBLIC	??$call_dense_assignment_loop@V?$Matrix@M$02$0ELA@$0A@$02$0ELA@@Eigen@@V12@U?$swap_assign_op@M@internal@2@@internal@Eigen@@YAXAEAV?$Matrix@M$02$0ELA@$0A@$02$0ELA@@1@AEBV21@AEBU?$swap_assign_op@M@01@@Z ; Eigen::internal::call_dense_assignment_loop<Eigen::Matrix<float,3,1200,0,3,1200>,Eigen::Matrix<float,3,1200,0,3,1200>,Eigen::internal::swap_assign_op<float> >
PUBLIC	??$call_dense_assignment_loop@V?$Matrix@M$0OBA@$00$0A@$0OBA@$00@Eigen@@V12@U?$swap_assign_op@M@internal@2@@internal@Eigen@@YAXAEAV?$Matrix@M$0OBA@$00$0A@$0OBA@$00@1@AEBV21@AEBU?$swap_assign_op@M@01@@Z ; Eigen::internal::call_dense_assignment_loop<Eigen::Matrix<float,3600,1,0,3600,1>,Eigen::Matrix<float,3600,1,0,3600,1>,Eigen::internal::swap_assign_op<float> >
PUBLIC	??$call_dense_assignment_loop@V?$Matrix@M$01$0DIE@$0A@$01$0DIE@@Eigen@@V12@U?$swap_assign_op@M@internal@2@@internal@Eigen@@YAXAEAV?$Matrix@M$01$0DIE@$0A@$01$0DIE@@1@AEBV21@AEBU?$swap_assign_op@M@01@@Z ; Eigen::internal::call_dense_assignment_loop<Eigen::Matrix<float,2,900,0,2,900>,Eigen::Matrix<float,2,900,0,2,900>,Eigen::internal::swap_assign_op<float> >
PUBLIC	??$call_dense_assignment_loop@V?$Matrix@M$0HAI@$00$0A@$0HAI@$00@Eigen@@V12@U?$swap_assign_op@M@internal@2@@internal@Eigen@@YAXAEAV?$Matrix@M$0HAI@$00$0A@$0HAI@$00@1@AEBV21@AEBU?$swap_assign_op@M@01@@Z ; Eigen::internal::call_dense_assignment_loop<Eigen::Matrix<float,1800,1,0,1800,1>,Eigen::Matrix<float,1800,1,0,1800,1>,Eigen::internal::swap_assign_op<float> >
PUBLIC	??$call_dense_assignment_loop@V?$Matrix@M$00$0CFI@$00$00$0CFI@@Eigen@@V12@U?$swap_assign_op@M@internal@2@@internal@Eigen@@YAXAEAV?$Matrix@M$00$0CFI@$00$00$0CFI@@1@AEBV21@AEBU?$swap_assign_op@M@01@@Z ; Eigen::internal::call_dense_assignment_loop<Eigen::Matrix<float,1,600,1,1,600>,Eigen::Matrix<float,1,600,1,1,600>,Eigen::internal::swap_assign_op<float> >
PUBLIC	??$call_dense_assignment_loop@V?$Matrix@M$0CFI@$00$0A@$0CFI@$00@Eigen@@V12@U?$swap_assign_op@M@internal@2@@internal@Eigen@@YAXAEAV?$Matrix@M$0CFI@$00$0A@$0CFI@$00@1@AEBV21@AEBU?$swap_assign_op@M@01@@Z ; Eigen::internal::call_dense_assignment_loop<Eigen::Matrix<float,600,1,0,600,1>,Eigen::Matrix<float,600,1,0,600,1>,Eigen::internal::swap_assign_op<float> >
PUBLIC	??$call_dense_assignment_loop@V?$Matrix@M$00$00$0A@$00$00@Eigen@@V12@U?$swap_assign_op@M@internal@2@@internal@Eigen@@YAXAEAV?$Matrix@M$00$00$0A@$00$00@1@AEBV21@AEBU?$swap_assign_op@M@01@@Z ; Eigen::internal::call_dense_assignment_loop<Eigen::Matrix<float,1,1,0,1,1>,Eigen::Matrix<float,1,1,0,1,1>,Eigen::internal::swap_assign_op<float> >
PUBLIC	??$call_dense_assignment_loop@V?$Matrix@M$0CFI@$0CFI@$0A@$0CFI@$0CFI@@Eigen@@V12@U?$swap_assign_op@M@internal@2@@internal@Eigen@@YAXAEAV?$Matrix@M$0CFI@$0CFI@$0A@$0CFI@$0CFI@@1@AEBV21@AEBU?$swap_assign_op@M@01@@Z ; Eigen::internal::call_dense_assignment_loop<Eigen::Matrix<float,600,600,0,600,600>,Eigen::Matrix<float,600,600,0,600,600>,Eigen::internal::swap_assign_op<float> >
PUBLIC	??$?0V?$tuple@AEB_K@std@@V?$tuple@$$V@1@$0A@$$Z$S@?$pair@$$CB_KH@std@@QEAA@AEAV?$tuple@AEB_K@1@AEAV?$tuple@$$V@1@U?$integer_sequence@_K$0A@@1@U?$integer_sequence@_K$S@1@@Z ; std::pair<unsigned __int64 const ,int>::pair<unsigned __int64 const ,int><std::tuple<unsigned __int64 const &>,std::tuple<>,0>
PUBLIC	??$?0AEB_K@?$_Tuple_val@AEB_K@std@@QEAA@AEB_K@Z	; std::_Tuple_val<unsigned __int64 const &>::_Tuple_val<unsigned __int64 const &><unsigned __int64 const &>
PUBLIC	??$forward@AEAPEAV?$tuple@P6AXXZ@std@@@std@@YAAEAPEAV?$tuple@P6AXXZ@0@AEAPEAV10@@Z ; std::forward<std::tuple<void (__cdecl*)(void)> * &>
PUBLIC	??$?0AEBQ6AXXZ@?$_Tuple_val@P6AXXZ@std@@QEAA@AEBQ6AXXZ@Z ; std::_Tuple_val<void (__cdecl*)(void)>::_Tuple_val<void (__cdecl*)(void)><void (__cdecl*const &)(void)>
PUBLIC	??$?0U_Exact_args_t@std@@$0A@@?$tuple@$$V@std@@QEAA@U_Exact_args_t@1@@Z ; std::tuple<>::tuple<><std::_Exact_args_t,0>
PUBLIC	??$forward@AEBQ6AXXZ@std@@YAAEBQ6AXXZAEBQ6AXXZ@Z ; std::forward<void (__cdecl*const &)(void)>
PUBLIC	??$forward@AEAPEAV?$tuple@P6AXHAEAV?$vector@UGame@uci@@V?$allocator@UGame@uci@@@std@@@std@@AEAV?$vector@MV?$allocator@M@std@@@2@AEAHAEAVNN@@@ZHV?$reference_wrapper@V?$vector@UGame@uci@@V?$allocator@UGame@uci@@@std@@@std@@@2@V?$reference_wrapper@V?$vector@MV?$allocator@M@std@@@std@@@2@V?$reference_wrapper@H@2@V?$reference_wrapper@VNN@@@2@@std@@@std@@YAAEAPEAV?$tuple@P6AXHAEAV?$vector@UGame@uci@@V?$allocator@UGame@uci@@@std@@@std@@AEAV?$vector@MV?$allocator@M@std@@@2@AEAHAEAVNN@@@ZHV?$reference_wrapper@V?$vector@UGame@uci@@V?$allocator@UGame@uci@@@std@@@std@@@2@V?$reference_wrapper@V?$vector@MV?$allocator@M@std@@@std@@@2@V?$reference_wrapper@H@2@V?$reference_wrapper@VNN@@@2@@0@AEAPEAV10@@Z ; std::forward<std::tuple<void (__cdecl*)(int,std::vector<uci::Game,std::allocator<uci::Game> > &,std::vector<float,std::allocator<float> > &,int &,NN &),int,std::reference_wrapper<std::vector<uci::Game,std::allocator<uci::Game> > >,std::reference_wrapper<std::vector<float,std::allocator<float> > >,std::reference_wrapper<int>,std::reference_wrapper<NN> > * &>
PUBLIC	??$?0A6AXHAEAV?$vector@UGame@uci@@V?$allocator@UGame@uci@@@std@@@std@@AEAV?$vector@MV?$allocator@M@std@@@1@AEAHAEAVNN@@@Z@?$_Tuple_val@P6AXHAEAV?$vector@UGame@uci@@V?$allocator@UGame@uci@@@std@@@std@@AEAV?$vector@MV?$allocator@M@std@@@2@AEAHAEAVNN@@@Z@std@@QEAA@A6AXHAEAV?$vector@UGame@uci@@V?$allocator@UGame@uci@@@std@@@1@AEAV?$vector@MV?$allocator@M@std@@@1@AEAHAEAVNN@@@Z@Z ; std::_Tuple_val<void (__cdecl*)(int,std::vector<uci::Game,std::allocator<uci::Game> > &,std::vector<float,std::allocator<float> > &,int &,NN &)>::_Tuple_val<void (__cdecl*)(int,std::vector<uci::Game,std::allocator<uci::Game> > &,std::vector<float,std::allocator<float> > &,int &,NN &)><void (__cdecl&)(int,std::vector<uci::Game,std::allocator<uci::Game> > &,std::vector<float,std::allocator<float> > &,int &,NN &)>
PUBLIC	??$?0U_Exact_args_t@std@@AEAHV?$reference_wrapper@V?$vector@UGame@uci@@V?$allocator@UGame@uci@@@std@@@std@@@1@V?$reference_wrapper@V?$vector@MV?$allocator@M@std@@@std@@@1@V?$reference_wrapper@H@1@V?$reference_wrapper@VNN@@@1@$0A@@?$tuple@HV?$reference_wrapper@V?$vector@UGame@uci@@V?$allocator@UGame@uci@@@std@@@std@@@std@@V?$reference_wrapper@V?$vector@MV?$allocator@M@std@@@std@@@2@V?$reference_wrapper@H@2@V?$reference_wrapper@VNN@@@2@@std@@QEAA@U_Exact_args_t@1@AEAH$$QEAV?$reference_wrapper@V?$vector@UGame@uci@@V?$allocator@UGame@uci@@@std@@@std@@@1@$$QEAV?$reference_wrapper@V?$vector@MV?$allocator@M@std@@@std@@@1@$$QEAV?$reference_wrapper@H@1@$$QEAV?$reference_wrapper@VNN@@@1@@Z ; std::tuple<int,std::reference_wrapper<std::vector<uci::Game,std::allocator<uci::Game> > >,std::reference_wrapper<std::vector<float,std::allocator<float> > >,std::reference_wrapper<int>,std::reference_wrapper<NN> >::tuple<int,std::reference_wrapper<std::vector<uci::Game,std::allocator<uci::Game> > >,std::reference_wrapper<std::vector<float,std::allocator<float> > >,std::reference_wrapper<int>,std::reference_wrapper<NN> ><std::_Exact_args_t,int &,std::reference_wrapper<std::vector<uci::Game,std::allocator<uci::Game> > >,std::reference_wrapper<std::vector<float,std::allocator<float> > >,std::reference_wrapper<int>,std::reference_wrapper<NN>,0>
PUBLIC	??$?0_JU?$ratio@$00$0DLJKMKAA@@std@@$0A@@?$duration@NU?$ratio@$00$0DLJKMKAA@@std@@@chrono@std@@QEAA@AEBV?$duration@_JU?$ratio@$00$0DLJKMKAA@@std@@@12@@Z ; std::chrono::duration<double,std::ratio<1,1000000000> >::duration<double,std::ratio<1,1000000000> ><__int64,std::ratio<1,1000000000>,0>
PUBLIC	??$?0NU?$ratio@$00$00@std@@$0A@@?$duration@NU?$ratio@$00$0DLJKMKAA@@std@@@chrono@std@@QEAA@AEBV?$duration@NU?$ratio@$00$00@std@@@12@@Z ; std::chrono::duration<double,std::ratio<1,1000000000> >::duration<double,std::ratio<1,1000000000> ><double,std::ratio<1,1>,0>
PUBLIC	??$duration_cast@V?$duration@_JU?$ratio@$00$0DLJKMKAA@@std@@@chrono@std@@_JU?$ratio@$00$0JIJGIA@@3@$0A@@chrono@std@@YA?AV?$duration@_JU?$ratio@$00$0DLJKMKAA@@std@@@01@AEBV?$duration@_JU?$ratio@$00$0JIJGIA@@std@@@01@@Z ; std::chrono::duration_cast<std::chrono::duration<__int64,std::ratio<1,1000000000> >,__int64,std::ratio<1,10000000>,0>
PUBLIC	??$?M_JU?$ratio@$00$0DLJKMKAA@@std@@_JU01@@chrono@std@@YA_NAEBV?$duration@_JU?$ratio@$00$0DLJKMKAA@@std@@@01@0@Z ; std::chrono::operator<<__int64,std::ratio<1,1000000000>,__int64,std::ratio<1,1000000000> >
PUBLIC	??$duration_cast@V?$duration@_JU?$ratio@$00$0DLJKMKAA@@std@@@chrono@std@@_JU?$ratio@$00$00@3@$0A@@chrono@std@@YA?AV?$duration@_JU?$ratio@$00$0DLJKMKAA@@std@@@01@AEBV?$duration@_JU?$ratio@$00$00@std@@@01@@Z ; std::chrono::duration_cast<std::chrono::duration<__int64,std::ratio<1,1000000000> >,__int64,std::ratio<1,1>,0>
PUBLIC	??$?0_J$0A@@?$duration@_JU?$ratio@$00$00@std@@@chrono@std@@QEAA@AEB_J@Z ; std::chrono::duration<__int64,std::ratio<1,1> >::duration<__int64,std::ratio<1,1> ><__int64,0>
PUBLIC	??0?$DenseBase@V?$Matrix@M$04$0HAI@$0A@$04$0HAI@@Eigen@@@Eigen@@IEAA@XZ ; Eigen::DenseBase<Eigen::Matrix<float,5,1800,0,5,1800> >::DenseBase<Eigen::Matrix<float,5,1800,0,5,1800> >
PUBLIC	??0?$DenseStorage@M$0CDCI@$04$0HAI@$0A@@Eigen@@QEAA@AEBV01@@Z ; Eigen::DenseStorage<float,9000,5,1800,0>::DenseStorage<float,9000,5,1800,0>
PUBLIC	??0?$DenseBase@V?$Matrix@M$01$01$0A@$01$01@Eigen@@@Eigen@@IEAA@XZ ; Eigen::DenseBase<Eigen::Matrix<float,2,2,0,2,2> >::DenseBase<Eigen::Matrix<float,2,2,0,2,2> >
PUBLIC	??0?$DenseStorage@M$03$01$01$0A@@Eigen@@QEAA@AEBV01@@Z ; Eigen::DenseStorage<float,4,2,2,0>::DenseStorage<float,4,2,2,0>
PUBLIC	??0?$DenseBase@V?$Matrix@M$0CDCI@$00$0A@$0CDCI@$00@Eigen@@@Eigen@@IEAA@XZ ; Eigen::DenseBase<Eigen::Matrix<float,9000,1,0,9000,1> >::DenseBase<Eigen::Matrix<float,9000,1,0,9000,1> >
PUBLIC	??0?$DenseStorage@M$0CDCI@$0CDCI@$00$0A@@Eigen@@QEAA@AEBV01@@Z ; Eigen::DenseStorage<float,9000,9000,1,0>::DenseStorage<float,9000,9000,1,0>
PUBLIC	??0?$DenseBase@V?$Matrix@M$03$0FNM@$0A@$03$0FNM@@Eigen@@@Eigen@@IEAA@XZ ; Eigen::DenseBase<Eigen::Matrix<float,4,1500,0,4,1500> >::DenseBase<Eigen::Matrix<float,4,1500,0,4,1500> >
PUBLIC	??0?$DenseStorage@M$0BHHA@$03$0FNM@$0A@@Eigen@@QEAA@AEBV01@@Z ; Eigen::DenseStorage<float,6000,4,1500,0>::DenseStorage<float,6000,4,1500,0>
PUBLIC	??0?$DenseBase@V?$Matrix@M$0BHHA@$00$0A@$0BHHA@$00@Eigen@@@Eigen@@IEAA@XZ ; Eigen::DenseBase<Eigen::Matrix<float,6000,1,0,6000,1> >::DenseBase<Eigen::Matrix<float,6000,1,0,6000,1> >
PUBLIC	??0?$DenseStorage@M$0BHHA@$0BHHA@$00$0A@@Eigen@@QEAA@AEBV01@@Z ; Eigen::DenseStorage<float,6000,6000,1,0>::DenseStorage<float,6000,6000,1,0>
PUBLIC	??0?$DenseBase@V?$Matrix@M$02$0ELA@$0A@$02$0ELA@@Eigen@@@Eigen@@IEAA@XZ ; Eigen::DenseBase<Eigen::Matrix<float,3,1200,0,3,1200> >::DenseBase<Eigen::Matrix<float,3,1200,0,3,1200> >
PUBLIC	??0?$DenseStorage@M$0OBA@$02$0ELA@$0A@@Eigen@@QEAA@AEBV01@@Z ; Eigen::DenseStorage<float,3600,3,1200,0>::DenseStorage<float,3600,3,1200,0>
PUBLIC	??0?$DenseBase@V?$Matrix@M$0OBA@$00$0A@$0OBA@$00@Eigen@@@Eigen@@IEAA@XZ ; Eigen::DenseBase<Eigen::Matrix<float,3600,1,0,3600,1> >::DenseBase<Eigen::Matrix<float,3600,1,0,3600,1> >
PUBLIC	??0?$DenseStorage@M$0OBA@$0OBA@$00$0A@@Eigen@@QEAA@AEBV01@@Z ; Eigen::DenseStorage<float,3600,3600,1,0>::DenseStorage<float,3600,3600,1,0>
PUBLIC	??0?$DenseBase@V?$Matrix@M$01$0DIE@$0A@$01$0DIE@@Eigen@@@Eigen@@IEAA@XZ ; Eigen::DenseBase<Eigen::Matrix<float,2,900,0,2,900> >::DenseBase<Eigen::Matrix<float,2,900,0,2,900> >
PUBLIC	??0?$DenseStorage@M$0HAI@$01$0DIE@$0A@@Eigen@@QEAA@AEBV01@@Z ; Eigen::DenseStorage<float,1800,2,900,0>::DenseStorage<float,1800,2,900,0>
PUBLIC	??0?$DenseBase@V?$Matrix@M$0HAI@$00$0A@$0HAI@$00@Eigen@@@Eigen@@IEAA@XZ ; Eigen::DenseBase<Eigen::Matrix<float,1800,1,0,1800,1> >::DenseBase<Eigen::Matrix<float,1800,1,0,1800,1> >
PUBLIC	??0?$DenseStorage@M$0HAI@$0HAI@$00$0A@@Eigen@@QEAA@AEBV01@@Z ; Eigen::DenseStorage<float,1800,1800,1,0>::DenseStorage<float,1800,1800,1,0>
PUBLIC	??0?$DenseBase@V?$Matrix@M$00$0CFI@$00$00$0CFI@@Eigen@@@Eigen@@IEAA@XZ ; Eigen::DenseBase<Eigen::Matrix<float,1,600,1,1,600> >::DenseBase<Eigen::Matrix<float,1,600,1,1,600> >
PUBLIC	??0?$DenseStorage@M$0CFI@$00$0CFI@$00@Eigen@@QEAA@AEBV01@@Z ; Eigen::DenseStorage<float,600,1,600,1>::DenseStorage<float,600,1,600,1>
PUBLIC	??0?$DenseBase@V?$Matrix@M$0CFI@$00$0A@$0CFI@$00@Eigen@@@Eigen@@IEAA@XZ ; Eigen::DenseBase<Eigen::Matrix<float,600,1,0,600,1> >::DenseBase<Eigen::Matrix<float,600,1,0,600,1> >
PUBLIC	??0?$DenseStorage@M$0CFI@$0CFI@$00$0A@@Eigen@@QEAA@AEBV01@@Z ; Eigen::DenseStorage<float,600,600,1,0>::DenseStorage<float,600,600,1,0>
PUBLIC	??0?$DenseBase@V?$Matrix@M$00$00$0A@$00$00@Eigen@@@Eigen@@IEAA@XZ ; Eigen::DenseBase<Eigen::Matrix<float,1,1,0,1,1> >::DenseBase<Eigen::Matrix<float,1,1,0,1,1> >
PUBLIC	??0?$DenseStorage@M$00$00$00$0A@@Eigen@@QEAA@AEBV01@@Z ; Eigen::DenseStorage<float,1,1,1,0>::DenseStorage<float,1,1,1,0>
PUBLIC	??0?$DenseBase@V?$Matrix@M$0CFI@$0CFI@$0A@$0CFI@$0CFI@@Eigen@@@Eigen@@IEAA@XZ ; Eigen::DenseBase<Eigen::Matrix<float,600,600,0,600,600> >::DenseBase<Eigen::Matrix<float,600,600,0,600,600> >
PUBLIC	??0?$DenseStorage@M$0FHOEA@$0CFI@$0CFI@$0A@@Eigen@@QEAA@AEBV01@@Z ; Eigen::DenseStorage<float,360000,600,600,0>::DenseStorage<float,360000,600,600,0>
PUBLIC	??0?$MatrixBase@V?$Matrix@M$04$0HAI@$0A@$04$0HAI@@Eigen@@@Eigen@@IEAA@XZ ; Eigen::MatrixBase<Eigen::Matrix<float,5,1800,0,5,1800> >::MatrixBase<Eigen::Matrix<float,5,1800,0,5,1800> >
PUBLIC	??0?$MatrixBase@V?$Matrix@M$01$01$0A@$01$01@Eigen@@@Eigen@@IEAA@XZ ; Eigen::MatrixBase<Eigen::Matrix<float,2,2,0,2,2> >::MatrixBase<Eigen::Matrix<float,2,2,0,2,2> >
PUBLIC	??0?$MatrixBase@V?$Matrix@M$0CDCI@$00$0A@$0CDCI@$00@Eigen@@@Eigen@@IEAA@XZ ; Eigen::MatrixBase<Eigen::Matrix<float,9000,1,0,9000,1> >::MatrixBase<Eigen::Matrix<float,9000,1,0,9000,1> >
PUBLIC	??0?$MatrixBase@V?$Matrix@M$03$0FNM@$0A@$03$0FNM@@Eigen@@@Eigen@@IEAA@XZ ; Eigen::MatrixBase<Eigen::Matrix<float,4,1500,0,4,1500> >::MatrixBase<Eigen::Matrix<float,4,1500,0,4,1500> >
PUBLIC	??0?$MatrixBase@V?$Matrix@M$0BHHA@$00$0A@$0BHHA@$00@Eigen@@@Eigen@@IEAA@XZ ; Eigen::MatrixBase<Eigen::Matrix<float,6000,1,0,6000,1> >::MatrixBase<Eigen::Matrix<float,6000,1,0,6000,1> >
PUBLIC	??0?$MatrixBase@V?$Matrix@M$02$0ELA@$0A@$02$0ELA@@Eigen@@@Eigen@@IEAA@XZ ; Eigen::MatrixBase<Eigen::Matrix<float,3,1200,0,3,1200> >::MatrixBase<Eigen::Matrix<float,3,1200,0,3,1200> >
PUBLIC	??0?$MatrixBase@V?$Matrix@M$0OBA@$00$0A@$0OBA@$00@Eigen@@@Eigen@@IEAA@XZ ; Eigen::MatrixBase<Eigen::Matrix<float,3600,1,0,3600,1> >::MatrixBase<Eigen::Matrix<float,3600,1,0,3600,1> >
PUBLIC	??0?$MatrixBase@V?$Matrix@M$01$0DIE@$0A@$01$0DIE@@Eigen@@@Eigen@@IEAA@XZ ; Eigen::MatrixBase<Eigen::Matrix<float,2,900,0,2,900> >::MatrixBase<Eigen::Matrix<float,2,900,0,2,900> >
PUBLIC	??0?$MatrixBase@V?$Matrix@M$0HAI@$00$0A@$0HAI@$00@Eigen@@@Eigen@@IEAA@XZ ; Eigen::MatrixBase<Eigen::Matrix<float,1800,1,0,1800,1> >::MatrixBase<Eigen::Matrix<float,1800,1,0,1800,1> >
PUBLIC	??0?$MatrixBase@V?$Matrix@M$00$0CFI@$00$00$0CFI@@Eigen@@@Eigen@@IEAA@XZ ; Eigen::MatrixBase<Eigen::Matrix<float,1,600,1,1,600> >::MatrixBase<Eigen::Matrix<float,1,600,1,1,600> >
PUBLIC	??0?$MatrixBase@V?$Matrix@M$0CFI@$00$0A@$0CFI@$00@Eigen@@@Eigen@@IEAA@XZ ; Eigen::MatrixBase<Eigen::Matrix<float,600,1,0,600,1> >::MatrixBase<Eigen::Matrix<float,600,1,0,600,1> >
PUBLIC	??0?$MatrixBase@V?$Matrix@M$00$00$0A@$00$00@Eigen@@@Eigen@@IEAA@XZ ; Eigen::MatrixBase<Eigen::Matrix<float,1,1,0,1,1> >::MatrixBase<Eigen::Matrix<float,1,1,0,1,1> >
PUBLIC	??0?$MatrixBase@V?$Matrix@M$0CFI@$0CFI@$0A@$0CFI@$0CFI@@Eigen@@@Eigen@@IEAA@XZ ; Eigen::MatrixBase<Eigen::Matrix<float,600,600,0,600,600> >::MatrixBase<Eigen::Matrix<float,600,600,0,600,600> >
PUBLIC	??0?$PlainObjectBase@V?$Matrix@M$04$0HAI@$0A@$04$0HAI@@Eigen@@@Eigen@@IEAA@AEBV01@@Z ; Eigen::PlainObjectBase<Eigen::Matrix<float,5,1800,0,5,1800> >::PlainObjectBase<Eigen::Matrix<float,5,1800,0,5,1800> >
PUBLIC	??0?$PlainObjectBase@V?$Matrix@M$01$01$0A@$01$01@Eigen@@@Eigen@@IEAA@AEBV01@@Z ; Eigen::PlainObjectBase<Eigen::Matrix<float,2,2,0,2,2> >::PlainObjectBase<Eigen::Matrix<float,2,2,0,2,2> >
PUBLIC	??0?$_Func_class@XAEAV?$Matrix@M$04$0HAI@$0A@$04$0HAI@@Eigen@@@std@@QEAA@XZ ; std::_Func_class<void,Eigen::Matrix<float,5,1800,0,5,1800> &>::_Func_class<void,Eigen::Matrix<float,5,1800,0,5,1800> &>
PUBLIC	?_Reset_copy@?$_Func_class@XAEAV?$Matrix@M$04$0HAI@$0A@$04$0HAI@@Eigen@@@std@@IEAAXAEBV12@@Z ; std::_Func_class<void,Eigen::Matrix<float,5,1800,0,5,1800> &>::_Reset_copy
PUBLIC	??0?$PlainObjectBase@V?$Matrix@M$0CDCI@$00$0A@$0CDCI@$00@Eigen@@@Eigen@@IEAA@AEBV01@@Z ; Eigen::PlainObjectBase<Eigen::Matrix<float,9000,1,0,9000,1> >::PlainObjectBase<Eigen::Matrix<float,9000,1,0,9000,1> >
PUBLIC	??0?$PlainObjectBase@V?$Matrix@M$03$0FNM@$0A@$03$0FNM@@Eigen@@@Eigen@@IEAA@AEBV01@@Z ; Eigen::PlainObjectBase<Eigen::Matrix<float,4,1500,0,4,1500> >::PlainObjectBase<Eigen::Matrix<float,4,1500,0,4,1500> >
PUBLIC	??0?$_Func_class@XAEAV?$Matrix@M$03$0FNM@$0A@$03$0FNM@@Eigen@@@std@@QEAA@XZ ; std::_Func_class<void,Eigen::Matrix<float,4,1500,0,4,1500> &>::_Func_class<void,Eigen::Matrix<float,4,1500,0,4,1500> &>
PUBLIC	?_Reset_copy@?$_Func_class@XAEAV?$Matrix@M$03$0FNM@$0A@$03$0FNM@@Eigen@@@std@@IEAAXAEBV12@@Z ; std::_Func_class<void,Eigen::Matrix<float,4,1500,0,4,1500> &>::_Reset_copy
PUBLIC	??0?$PlainObjectBase@V?$Matrix@M$0BHHA@$00$0A@$0BHHA@$00@Eigen@@@Eigen@@IEAA@AEBV01@@Z ; Eigen::PlainObjectBase<Eigen::Matrix<float,6000,1,0,6000,1> >::PlainObjectBase<Eigen::Matrix<float,6000,1,0,6000,1> >
PUBLIC	??0?$PlainObjectBase@V?$Matrix@M$02$0ELA@$0A@$02$0ELA@@Eigen@@@Eigen@@IEAA@AEBV01@@Z ; Eigen::PlainObjectBase<Eigen::Matrix<float,3,1200,0,3,1200> >::PlainObjectBase<Eigen::Matrix<float,3,1200,0,3,1200> >
PUBLIC	??0?$_Func_class@XAEAV?$Matrix@M$02$0ELA@$0A@$02$0ELA@@Eigen@@@std@@QEAA@XZ ; std::_Func_class<void,Eigen::Matrix<float,3,1200,0,3,1200> &>::_Func_class<void,Eigen::Matrix<float,3,1200,0,3,1200> &>
PUBLIC	?_Reset_copy@?$_Func_class@XAEAV?$Matrix@M$02$0ELA@$0A@$02$0ELA@@Eigen@@@std@@IEAAXAEBV12@@Z ; std::_Func_class<void,Eigen::Matrix<float,3,1200,0,3,1200> &>::_Reset_copy
PUBLIC	??0?$PlainObjectBase@V?$Matrix@M$0OBA@$00$0A@$0OBA@$00@Eigen@@@Eigen@@IEAA@AEBV01@@Z ; Eigen::PlainObjectBase<Eigen::Matrix<float,3600,1,0,3600,1> >::PlainObjectBase<Eigen::Matrix<float,3600,1,0,3600,1> >
PUBLIC	??0?$PlainObjectBase@V?$Matrix@M$01$0DIE@$0A@$01$0DIE@@Eigen@@@Eigen@@IEAA@AEBV01@@Z ; Eigen::PlainObjectBase<Eigen::Matrix<float,2,900,0,2,900> >::PlainObjectBase<Eigen::Matrix<float,2,900,0,2,900> >
PUBLIC	??0?$_Func_class@XAEAV?$Matrix@M$01$0DIE@$0A@$01$0DIE@@Eigen@@@std@@QEAA@XZ ; std::_Func_class<void,Eigen::Matrix<float,2,900,0,2,900> &>::_Func_class<void,Eigen::Matrix<float,2,900,0,2,900> &>
PUBLIC	?_Reset_copy@?$_Func_class@XAEAV?$Matrix@M$01$0DIE@$0A@$01$0DIE@@Eigen@@@std@@IEAAXAEBV12@@Z ; std::_Func_class<void,Eigen::Matrix<float,2,900,0,2,900> &>::_Reset_copy
PUBLIC	??0?$PlainObjectBase@V?$Matrix@M$0HAI@$00$0A@$0HAI@$00@Eigen@@@Eigen@@IEAA@AEBV01@@Z ; Eigen::PlainObjectBase<Eigen::Matrix<float,1800,1,0,1800,1> >::PlainObjectBase<Eigen::Matrix<float,1800,1,0,1800,1> >
PUBLIC	??0?$PlainObjectBase@V?$Matrix@M$00$0CFI@$00$00$0CFI@@Eigen@@@Eigen@@IEAA@AEBV01@@Z ; Eigen::PlainObjectBase<Eigen::Matrix<float,1,600,1,1,600> >::PlainObjectBase<Eigen::Matrix<float,1,600,1,1,600> >
PUBLIC	??0?$_Func_class@XAEAV?$Matrix@M$00$0CFI@$00$00$0CFI@@Eigen@@@std@@QEAA@XZ ; std::_Func_class<void,Eigen::Matrix<float,1,600,1,1,600> &>::_Func_class<void,Eigen::Matrix<float,1,600,1,1,600> &>
PUBLIC	?_Reset_copy@?$_Func_class@XAEAV?$Matrix@M$00$0CFI@$00$00$0CFI@@Eigen@@@std@@IEAAXAEBV12@@Z ; std::_Func_class<void,Eigen::Matrix<float,1,600,1,1,600> &>::_Reset_copy
PUBLIC	??0?$PlainObjectBase@V?$Matrix@M$0CFI@$00$0A@$0CFI@$00@Eigen@@@Eigen@@IEAA@AEBV01@@Z ; Eigen::PlainObjectBase<Eigen::Matrix<float,600,1,0,600,1> >::PlainObjectBase<Eigen::Matrix<float,600,1,0,600,1> >
PUBLIC	??0?$PlainObjectBase@V?$Matrix@M$00$00$0A@$00$00@Eigen@@@Eigen@@IEAA@AEBV01@@Z ; Eigen::PlainObjectBase<Eigen::Matrix<float,1,1,0,1,1> >::PlainObjectBase<Eigen::Matrix<float,1,1,0,1,1> >
PUBLIC	??0?$PlainObjectBase@V?$Matrix@M$0CFI@$0CFI@$0A@$0CFI@$0CFI@@Eigen@@@Eigen@@IEAA@AEBV01@@Z ; Eigen::PlainObjectBase<Eigen::Matrix<float,600,600,0,600,600> >::PlainObjectBase<Eigen::Matrix<float,600,600,0,600,600> >
PUBLIC	??0?$_Func_class@XAEAV?$Matrix@M$0CFI@$00$0A@$0CFI@$00@Eigen@@@std@@QEAA@XZ ; std::_Func_class<void,Eigen::Matrix<float,600,1,0,600,1> &>::_Func_class<void,Eigen::Matrix<float,600,1,0,600,1> &>
PUBLIC	?_Reset_copy@?$_Func_class@XAEAV?$Matrix@M$0CFI@$00$0A@$0CFI@$00@Eigen@@@std@@IEAAXAEBV12@@Z ; std::_Func_class<void,Eigen::Matrix<float,600,1,0,600,1> &>::_Reset_copy
PUBLIC	??0?$_Func_class@XAEAV?$Matrix@M$00$00$0A@$00$00@Eigen@@@std@@QEAA@XZ ; std::_Func_class<void,Eigen::Matrix<float,1,1,0,1,1> &>::_Func_class<void,Eigen::Matrix<float,1,1,0,1,1> &>
PUBLIC	?_Reset_copy@?$_Func_class@XAEAV?$Matrix@M$00$00$0A@$00$00@Eigen@@@std@@IEAAXAEBV12@@Z ; std::_Func_class<void,Eigen::Matrix<float,1,1,0,1,1> &>::_Reset_copy
PUBLIC	?count@?$duration@NU?$ratio@$00$0DLJKMKAA@@std@@@chrono@std@@QEBANXZ ; std::chrono::duration<double,std::ratio<1,1000000000> >::count
PUBLIC	??0?$Matrix@M$04$0HAI@$0A@$04$0HAI@@Eigen@@QEAA@AEBV01@@Z ; Eigen::Matrix<float,5,1800,0,5,1800>::Matrix<float,5,1800,0,5,1800>
PUBLIC	??0?$Matrix@M$01$01$0A@$01$01@Eigen@@QEAA@AEBV01@@Z ; Eigen::Matrix<float,2,2,0,2,2>::Matrix<float,2,2,0,2,2>
PUBLIC	??0?$function@$$A6AXAEAV?$Matrix@M$04$0HAI@$0A@$04$0HAI@@Eigen@@@Z@std@@QEAA@AEBV01@@Z ; std::function<void __cdecl(Eigen::Matrix<float,5,1800,0,5,1800> &)>::function<void __cdecl(Eigen::Matrix<float,5,1800,0,5,1800> &)>
PUBLIC	??0?$Matrix@M$0CDCI@$00$0A@$0CDCI@$00@Eigen@@QEAA@AEBV01@@Z ; Eigen::Matrix<float,9000,1,0,9000,1>::Matrix<float,9000,1,0,9000,1>
PUBLIC	??0?$Matrix@M$03$0FNM@$0A@$03$0FNM@@Eigen@@QEAA@AEBV01@@Z ; Eigen::Matrix<float,4,1500,0,4,1500>::Matrix<float,4,1500,0,4,1500>
PUBLIC	??0?$function@$$A6AXAEAV?$Matrix@M$03$0FNM@$0A@$03$0FNM@@Eigen@@@Z@std@@QEAA@AEBV01@@Z ; std::function<void __cdecl(Eigen::Matrix<float,4,1500,0,4,1500> &)>::function<void __cdecl(Eigen::Matrix<float,4,1500,0,4,1500> &)>
PUBLIC	??0?$Matrix@M$0BHHA@$00$0A@$0BHHA@$00@Eigen@@QEAA@AEBV01@@Z ; Eigen::Matrix<float,6000,1,0,6000,1>::Matrix<float,6000,1,0,6000,1>
PUBLIC	??0?$Matrix@M$02$0ELA@$0A@$02$0ELA@@Eigen@@QEAA@AEBV01@@Z ; Eigen::Matrix<float,3,1200,0,3,1200>::Matrix<float,3,1200,0,3,1200>
PUBLIC	??0?$function@$$A6AXAEAV?$Matrix@M$02$0ELA@$0A@$02$0ELA@@Eigen@@@Z@std@@QEAA@AEBV01@@Z ; std::function<void __cdecl(Eigen::Matrix<float,3,1200,0,3,1200> &)>::function<void __cdecl(Eigen::Matrix<float,3,1200,0,3,1200> &)>
PUBLIC	??0?$Matrix@M$0OBA@$00$0A@$0OBA@$00@Eigen@@QEAA@AEBV01@@Z ; Eigen::Matrix<float,3600,1,0,3600,1>::Matrix<float,3600,1,0,3600,1>
PUBLIC	??0?$Matrix@M$01$0DIE@$0A@$01$0DIE@@Eigen@@QEAA@AEBV01@@Z ; Eigen::Matrix<float,2,900,0,2,900>::Matrix<float,2,900,0,2,900>
PUBLIC	??0?$function@$$A6AXAEAV?$Matrix@M$01$0DIE@$0A@$01$0DIE@@Eigen@@@Z@std@@QEAA@AEBV01@@Z ; std::function<void __cdecl(Eigen::Matrix<float,2,900,0,2,900> &)>::function<void __cdecl(Eigen::Matrix<float,2,900,0,2,900> &)>
PUBLIC	??0?$Matrix@M$0HAI@$00$0A@$0HAI@$00@Eigen@@QEAA@AEBV01@@Z ; Eigen::Matrix<float,1800,1,0,1800,1>::Matrix<float,1800,1,0,1800,1>
PUBLIC	??0?$Matrix@M$00$0CFI@$00$00$0CFI@@Eigen@@QEAA@AEBV01@@Z ; Eigen::Matrix<float,1,600,1,1,600>::Matrix<float,1,600,1,1,600>
PUBLIC	??0?$function@$$A6AXAEAV?$Matrix@M$00$0CFI@$00$00$0CFI@@Eigen@@@Z@std@@QEAA@AEBV01@@Z ; std::function<void __cdecl(Eigen::Matrix<float,1,600,1,1,600> &)>::function<void __cdecl(Eigen::Matrix<float,1,600,1,1,600> &)>
PUBLIC	??0?$Matrix@M$0CFI@$00$0A@$0CFI@$00@Eigen@@QEAA@AEBV01@@Z ; Eigen::Matrix<float,600,1,0,600,1>::Matrix<float,600,1,0,600,1>
PUBLIC	??0?$Matrix@M$00$00$0A@$00$00@Eigen@@QEAA@AEBV01@@Z ; Eigen::Matrix<float,1,1,0,1,1>::Matrix<float,1,1,0,1,1>
PUBLIC	??0?$Matrix@M$0CFI@$0CFI@$0A@$0CFI@$0CFI@@Eigen@@QEAA@AEBV01@@Z ; Eigen::Matrix<float,600,600,0,600,600>::Matrix<float,600,600,0,600,600>
PUBLIC	??0?$function@$$A6AXAEAV?$Matrix@M$0CFI@$00$0A@$0CFI@$00@Eigen@@@Z@std@@QEAA@AEBV01@@Z ; std::function<void __cdecl(Eigen::Matrix<float,600,1,0,600,1> &)>::function<void __cdecl(Eigen::Matrix<float,600,1,0,600,1> &)>
PUBLIC	??0?$function@$$A6AXAEAV?$Matrix@M$00$00$0A@$00$00@Eigen@@@Z@std@@QEAA@AEBV01@@Z ; std::function<void __cdecl(Eigen::Matrix<float,1,1,0,1,1> &)>::function<void __cdecl(Eigen::Matrix<float,1,1,0,1,1> &)>
PUBLIC	?run@?$Assignment@V?$Matrix@M$04$0HAI@$0A@$04$0HAI@@Eigen@@V12@U?$swap_assign_op@M@internal@2@UDense2Dense@42@X@internal@Eigen@@SAXAEAV?$Matrix@M$04$0HAI@$0A@$04$0HAI@@3@AEBV43@AEBU?$swap_assign_op@M@23@@Z ; Eigen::internal::Assignment<Eigen::Matrix<float,5,1800,0,5,1800>,Eigen::Matrix<float,5,1800,0,5,1800>,Eigen::internal::swap_assign_op<float>,Eigen::internal::Dense2Dense,void>::run
PUBLIC	?run@?$Assignment@V?$Matrix@M$01$01$0A@$01$01@Eigen@@V12@U?$swap_assign_op@M@internal@2@UDense2Dense@42@X@internal@Eigen@@SAXAEAV?$Matrix@M$01$01$0A@$01$01@3@AEBV43@AEBU?$swap_assign_op@M@23@@Z ; Eigen::internal::Assignment<Eigen::Matrix<float,2,2,0,2,2>,Eigen::Matrix<float,2,2,0,2,2>,Eigen::internal::swap_assign_op<float>,Eigen::internal::Dense2Dense,void>::run
PUBLIC	?run@?$Assignment@V?$Matrix@M$0CDCI@$00$0A@$0CDCI@$00@Eigen@@V12@U?$swap_assign_op@M@internal@2@UDense2Dense@42@X@internal@Eigen@@SAXAEAV?$Matrix@M$0CDCI@$00$0A@$0CDCI@$00@3@AEBV43@AEBU?$swap_assign_op@M@23@@Z ; Eigen::internal::Assignment<Eigen::Matrix<float,9000,1,0,9000,1>,Eigen::Matrix<float,9000,1,0,9000,1>,Eigen::internal::swap_assign_op<float>,Eigen::internal::Dense2Dense,void>::run
PUBLIC	?run@?$Assignment@V?$Matrix@M$03$0FNM@$0A@$03$0FNM@@Eigen@@V12@U?$swap_assign_op@M@internal@2@UDense2Dense@42@X@internal@Eigen@@SAXAEAV?$Matrix@M$03$0FNM@$0A@$03$0FNM@@3@AEBV43@AEBU?$swap_assign_op@M@23@@Z ; Eigen::internal::Assignment<Eigen::Matrix<float,4,1500,0,4,1500>,Eigen::Matrix<float,4,1500,0,4,1500>,Eigen::internal::swap_assign_op<float>,Eigen::internal::Dense2Dense,void>::run
PUBLIC	?run@?$Assignment@V?$Matrix@M$0BHHA@$00$0A@$0BHHA@$00@Eigen@@V12@U?$swap_assign_op@M@internal@2@UDense2Dense@42@X@internal@Eigen@@SAXAEAV?$Matrix@M$0BHHA@$00$0A@$0BHHA@$00@3@AEBV43@AEBU?$swap_assign_op@M@23@@Z ; Eigen::internal::Assignment<Eigen::Matrix<float,6000,1,0,6000,1>,Eigen::Matrix<float,6000,1,0,6000,1>,Eigen::internal::swap_assign_op<float>,Eigen::internal::Dense2Dense,void>::run
PUBLIC	?run@?$Assignment@V?$Matrix@M$02$0ELA@$0A@$02$0ELA@@Eigen@@V12@U?$swap_assign_op@M@internal@2@UDense2Dense@42@X@internal@Eigen@@SAXAEAV?$Matrix@M$02$0ELA@$0A@$02$0ELA@@3@AEBV43@AEBU?$swap_assign_op@M@23@@Z ; Eigen::internal::Assignment<Eigen::Matrix<float,3,1200,0,3,1200>,Eigen::Matrix<float,3,1200,0,3,1200>,Eigen::internal::swap_assign_op<float>,Eigen::internal::Dense2Dense,void>::run
PUBLIC	?run@?$Assignment@V?$Matrix@M$0OBA@$00$0A@$0OBA@$00@Eigen@@V12@U?$swap_assign_op@M@internal@2@UDense2Dense@42@X@internal@Eigen@@SAXAEAV?$Matrix@M$0OBA@$00$0A@$0OBA@$00@3@AEBV43@AEBU?$swap_assign_op@M@23@@Z ; Eigen::internal::Assignment<Eigen::Matrix<float,3600,1,0,3600,1>,Eigen::Matrix<float,3600,1,0,3600,1>,Eigen::internal::swap_assign_op<float>,Eigen::internal::Dense2Dense,void>::run
PUBLIC	?run@?$Assignment@V?$Matrix@M$01$0DIE@$0A@$01$0DIE@@Eigen@@V12@U?$swap_assign_op@M@internal@2@UDense2Dense@42@X@internal@Eigen@@SAXAEAV?$Matrix@M$01$0DIE@$0A@$01$0DIE@@3@AEBV43@AEBU?$swap_assign_op@M@23@@Z ; Eigen::internal::Assignment<Eigen::Matrix<float,2,900,0,2,900>,Eigen::Matrix<float,2,900,0,2,900>,Eigen::internal::swap_assign_op<float>,Eigen::internal::Dense2Dense,void>::run
PUBLIC	?run@?$Assignment@V?$Matrix@M$0HAI@$00$0A@$0HAI@$00@Eigen@@V12@U?$swap_assign_op@M@internal@2@UDense2Dense@42@X@internal@Eigen@@SAXAEAV?$Matrix@M$0HAI@$00$0A@$0HAI@$00@3@AEBV43@AEBU?$swap_assign_op@M@23@@Z ; Eigen::internal::Assignment<Eigen::Matrix<float,1800,1,0,1800,1>,Eigen::Matrix<float,1800,1,0,1800,1>,Eigen::internal::swap_assign_op<float>,Eigen::internal::Dense2Dense,void>::run
PUBLIC	?run@?$Assignment@V?$Matrix@M$00$0CFI@$00$00$0CFI@@Eigen@@V12@U?$swap_assign_op@M@internal@2@UDense2Dense@42@X@internal@Eigen@@SAXAEAV?$Matrix@M$00$0CFI@$00$00$0CFI@@3@AEBV43@AEBU?$swap_assign_op@M@23@@Z ; Eigen::internal::Assignment<Eigen::Matrix<float,1,600,1,1,600>,Eigen::Matrix<float,1,600,1,1,600>,Eigen::internal::swap_assign_op<float>,Eigen::internal::Dense2Dense,void>::run
PUBLIC	?run@?$Assignment@V?$Matrix@M$0CFI@$00$0A@$0CFI@$00@Eigen@@V12@U?$swap_assign_op@M@internal@2@UDense2Dense@42@X@internal@Eigen@@SAXAEAV?$Matrix@M$0CFI@$00$0A@$0CFI@$00@3@AEBV43@AEBU?$swap_assign_op@M@23@@Z ; Eigen::internal::Assignment<Eigen::Matrix<float,600,1,0,600,1>,Eigen::Matrix<float,600,1,0,600,1>,Eigen::internal::swap_assign_op<float>,Eigen::internal::Dense2Dense,void>::run
PUBLIC	?run@?$Assignment@V?$Matrix@M$00$00$0A@$00$00@Eigen@@V12@U?$swap_assign_op@M@internal@2@UDense2Dense@42@X@internal@Eigen@@SAXAEAV?$Matrix@M$00$00$0A@$00$00@3@AEBV43@AEBU?$swap_assign_op@M@23@@Z ; Eigen::internal::Assignment<Eigen::Matrix<float,1,1,0,1,1>,Eigen::Matrix<float,1,1,0,1,1>,Eigen::internal::swap_assign_op<float>,Eigen::internal::Dense2Dense,void>::run
PUBLIC	?run@?$Assignment@V?$Matrix@M$0CFI@$0CFI@$0A@$0CFI@$0CFI@@Eigen@@V12@U?$swap_assign_op@M@internal@2@UDense2Dense@42@X@internal@Eigen@@SAXAEAV?$Matrix@M$0CFI@$0CFI@$0A@$0CFI@$0CFI@@3@AEBV43@AEBU?$swap_assign_op@M@23@@Z ; Eigen::internal::Assignment<Eigen::Matrix<float,600,600,0,600,600>,Eigen::Matrix<float,600,600,0,600,600>,Eigen::internal::swap_assign_op<float>,Eigen::internal::Dense2Dense,void>::run
PUBLIC	??__G@YAXPEAX0_K1P6APEAX00@Z@Z			; `vector copy constructor iterator'
PUBLIC	??0?$DenseLayer@V?$Matrix@M$0CFI@$00$0A@$0CFI@$00@Eigen@@V?$Matrix@M$00$00$0A@$00$00@2@V?$Matrix@M$00$0CFI@$00$00$0CFI@@2@V32@$0?0@@QEAA@AEBV0@@Z ; DenseLayer<Eigen::Matrix<float,600,1,0,600,1>,Eigen::Matrix<float,1,1,0,1,1>,Eigen::Matrix<float,1,600,1,1,600>,Eigen::Matrix<float,1,1,0,1,1>,-1>::DenseLayer<Eigen::Matrix<float,600,1,0,600,1>,Eigen::Matrix<float,1,1,0,1,1>,Eigen::Matrix<float,1,600,1,1,600>,Eigen::Matrix<float,1,1,0,1,1>,-1>
PUBLIC	??0?$DenseLayer@V?$Matrix@M$0CFI@$00$0A@$0CFI@$00@Eigen@@V12@V?$Matrix@M$0CFI@$0CFI@$0A@$0CFI@$0CFI@@2@V12@$0BCM@@@QEAA@AEBV0@@Z ; DenseLayer<Eigen::Matrix<float,600,1,0,600,1>,Eigen::Matrix<float,600,1,0,600,1>,Eigen::Matrix<float,600,600,0,600,600>,Eigen::Matrix<float,600,1,0,600,1>,300>::DenseLayer<Eigen::Matrix<float,600,1,0,600,1>,Eigen::Matrix<float,600,1,0,600,1>,Eigen::Matrix<float,600,600,0,600,600>,Eigen::Matrix<float,600,1,0,600,1>,300>
PUBLIC	??0?$ConvLayer@V?$Matrix@M$00$0CFI@$00$00$0CFI@@Eigen@@V12@V?$Matrix@M$00$00$0A@$00$00@2@M$00$01$0BCM@$00$00$01$00$0BCM@$0CFI@@@QEAA@AEBV0@@Z ; ConvLayer<Eigen::Matrix<float,1,600,1,1,600>,Eigen::Matrix<float,1,600,1,1,600>,Eigen::Matrix<float,1,1,0,1,1>,float,1,2,300,1,1,2,1,300,600>::ConvLayer<Eigen::Matrix<float,1,600,1,1,600>,Eigen::Matrix<float,1,600,1,1,600>,Eigen::Matrix<float,1,1,0,1,1>,float,1,2,300,1,1,2,1,300,600>
PUBLIC	??0?$ConvLayer@V?$Matrix@M$01$0DIE@$0A@$01$0DIE@@Eigen@@V?$Matrix@M$00$0CFI@$00$00$0CFI@@2@V?$Matrix@M$01$01$0A@$01$01@2@M$01$02$0BCM@$01$01$01$00$0BCM@$0CFI@@@QEAA@AEBV0@@Z ; ConvLayer<Eigen::Matrix<float,2,900,0,2,900>,Eigen::Matrix<float,1,600,1,1,600>,Eigen::Matrix<float,2,2,0,2,2>,float,2,3,300,2,2,2,1,300,600>::ConvLayer<Eigen::Matrix<float,2,900,0,2,900>,Eigen::Matrix<float,1,600,1,1,600>,Eigen::Matrix<float,2,2,0,2,2>,float,2,3,300,2,2,2,1,300,600>
PUBLIC	??0?$ConvLayer@V?$Matrix@M$02$0ELA@$0A@$02$0ELA@@Eigen@@V?$Matrix@M$01$0DIE@$0A@$01$0DIE@@2@V?$Matrix@M$01$01$0A@$01$01@2@M$02$03$0BCM@$01$01$02$01$0BCM@$0HAI@@@QEAA@AEBV0@@Z ; ConvLayer<Eigen::Matrix<float,3,1200,0,3,1200>,Eigen::Matrix<float,2,900,0,2,900>,Eigen::Matrix<float,2,2,0,2,2>,float,3,4,300,2,2,3,2,300,1800>::ConvLayer<Eigen::Matrix<float,3,1200,0,3,1200>,Eigen::Matrix<float,2,900,0,2,900>,Eigen::Matrix<float,2,2,0,2,2>,float,3,4,300,2,2,3,2,300,1800>
PUBLIC	??0?$ConvLayer@V?$Matrix@M$03$0FNM@$0A@$03$0FNM@@Eigen@@V?$Matrix@M$02$0ELA@$0A@$02$0ELA@@2@V?$Matrix@M$01$01$0A@$01$01@2@M$03$04$0BCM@$01$01$03$02$0BCM@$0OBA@@@QEAA@AEBV0@@Z ; ConvLayer<Eigen::Matrix<float,4,1500,0,4,1500>,Eigen::Matrix<float,3,1200,0,3,1200>,Eigen::Matrix<float,2,2,0,2,2>,float,4,5,300,2,2,4,3,300,3600>::ConvLayer<Eigen::Matrix<float,4,1500,0,4,1500>,Eigen::Matrix<float,3,1200,0,3,1200>,Eigen::Matrix<float,2,2,0,2,2>,float,4,5,300,2,2,4,3,300,3600>
PUBLIC	??0?$ConvLayer@V?$Matrix@M$04$0HAI@$0A@$04$0HAI@@Eigen@@V?$Matrix@M$03$0FNM@$0A@$03$0FNM@@2@V?$Matrix@M$01$01$0A@$01$01@2@M$04$05$0BCM@$01$01$04$03$0BCM@$0BHHA@@@QEAA@AEBV0@@Z ; ConvLayer<Eigen::Matrix<float,5,1800,0,5,1800>,Eigen::Matrix<float,4,1500,0,4,1500>,Eigen::Matrix<float,2,2,0,2,2>,float,5,6,300,2,2,5,4,300,6000>::ConvLayer<Eigen::Matrix<float,5,1800,0,5,1800>,Eigen::Matrix<float,4,1500,0,4,1500>,Eigen::Matrix<float,2,2,0,2,2>,float,5,6,300,2,2,5,4,300,6000>
PUBLIC	??0?$ConvLayer@V?$Matrix@M$05$0BF@$0A@$05$0BF@@Eigen@@V?$Matrix@M$04$0HAI@$0A@$04$0HAI@@2@V?$Matrix@M$01$01$0A@$01$01@2@M$05$06$02$01$01$05$04$0BCM@$0CDCI@@@QEAA@AEBV0@@Z ; ConvLayer<Eigen::Matrix<float,6,21,0,6,21>,Eigen::Matrix<float,5,1800,0,5,1800>,Eigen::Matrix<float,2,2,0,2,2>,float,6,7,3,2,2,6,5,300,9000>::ConvLayer<Eigen::Matrix<float,6,21,0,6,21>,Eigen::Matrix<float,5,1800,0,5,1800>,Eigen::Matrix<float,2,2,0,2,2>,float,6,7,3,2,2,6,5,300,9000>
PUBLIC	??0NN@@QEAA@AEBV0@@Z				; NN::NN
PUBLIC	??$construct@VNN@@AEBV1@@?$_Default_allocator_traits@V?$allocator@VNN@@@std@@@std@@SAXAEAV?$allocator@VNN@@@1@QEAVNN@@AEBV3@@Z ; std::_Default_allocator_traits<std::allocator<NN> >::construct<NN,NN const &>
PUBLIC	??$forward@AEBVNN@@@std@@YAAEBVNN@@AEBV1@@Z	; std::forward<NN const &>
PUBLIC	??$call_assignment_no_alias@V?$Matrix@M$0CFI@$0CFI@$0A@$0CFI@$0CFI@@Eigen@@V12@U?$swap_assign_op@M@internal@2@@internal@Eigen@@YAXAEAV?$Matrix@M$0CFI@$0CFI@$0A@$0CFI@$0CFI@@1@AEBV21@AEBU?$swap_assign_op@M@01@@Z ; Eigen::internal::call_assignment_no_alias<Eigen::Matrix<float,600,600,0,600,600>,Eigen::Matrix<float,600,600,0,600,600>,Eigen::internal::swap_assign_op<float> >
PUBLIC	??$call_assignment_no_alias@V?$Matrix@M$00$00$0A@$00$00@Eigen@@V12@U?$swap_assign_op@M@internal@2@@internal@Eigen@@YAXAEAV?$Matrix@M$00$00$0A@$00$00@1@AEBV21@AEBU?$swap_assign_op@M@01@@Z ; Eigen::internal::call_assignment_no_alias<Eigen::Matrix<float,1,1,0,1,1>,Eigen::Matrix<float,1,1,0,1,1>,Eigen::internal::swap_assign_op<float> >
PUBLIC	??$call_assignment_no_alias@V?$Matrix@M$0CFI@$00$0A@$0CFI@$00@Eigen@@V12@U?$swap_assign_op@M@internal@2@@internal@Eigen@@YAXAEAV?$Matrix@M$0CFI@$00$0A@$0CFI@$00@1@AEBV21@AEBU?$swap_assign_op@M@01@@Z ; Eigen::internal::call_assignment_no_alias<Eigen::Matrix<float,600,1,0,600,1>,Eigen::Matrix<float,600,1,0,600,1>,Eigen::internal::swap_assign_op<float> >
PUBLIC	??$call_assignment_no_alias@V?$Matrix@M$00$0CFI@$00$00$0CFI@@Eigen@@V12@U?$swap_assign_op@M@internal@2@@internal@Eigen@@YAXAEAV?$Matrix@M$00$0CFI@$00$00$0CFI@@1@AEBV21@AEBU?$swap_assign_op@M@01@@Z ; Eigen::internal::call_assignment_no_alias<Eigen::Matrix<float,1,600,1,1,600>,Eigen::Matrix<float,1,600,1,1,600>,Eigen::internal::swap_assign_op<float> >
PUBLIC	??$call_assignment_no_alias@V?$Matrix@M$0HAI@$00$0A@$0HAI@$00@Eigen@@V12@U?$swap_assign_op@M@internal@2@@internal@Eigen@@YAXAEAV?$Matrix@M$0HAI@$00$0A@$0HAI@$00@1@AEBV21@AEBU?$swap_assign_op@M@01@@Z ; Eigen::internal::call_assignment_no_alias<Eigen::Matrix<float,1800,1,0,1800,1>,Eigen::Matrix<float,1800,1,0,1800,1>,Eigen::internal::swap_assign_op<float> >
PUBLIC	??$call_assignment_no_alias@V?$Matrix@M$01$0DIE@$0A@$01$0DIE@@Eigen@@V12@U?$swap_assign_op@M@internal@2@@internal@Eigen@@YAXAEAV?$Matrix@M$01$0DIE@$0A@$01$0DIE@@1@AEBV21@AEBU?$swap_assign_op@M@01@@Z ; Eigen::internal::call_assignment_no_alias<Eigen::Matrix<float,2,900,0,2,900>,Eigen::Matrix<float,2,900,0,2,900>,Eigen::internal::swap_assign_op<float> >
PUBLIC	??$call_assignment_no_alias@V?$Matrix@M$0OBA@$00$0A@$0OBA@$00@Eigen@@V12@U?$swap_assign_op@M@internal@2@@internal@Eigen@@YAXAEAV?$Matrix@M$0OBA@$00$0A@$0OBA@$00@1@AEBV21@AEBU?$swap_assign_op@M@01@@Z ; Eigen::internal::call_assignment_no_alias<Eigen::Matrix<float,3600,1,0,3600,1>,Eigen::Matrix<float,3600,1,0,3600,1>,Eigen::internal::swap_assign_op<float> >
PUBLIC	??$call_assignment_no_alias@V?$Matrix@M$02$0ELA@$0A@$02$0ELA@@Eigen@@V12@U?$swap_assign_op@M@internal@2@@internal@Eigen@@YAXAEAV?$Matrix@M$02$0ELA@$0A@$02$0ELA@@1@AEBV21@AEBU?$swap_assign_op@M@01@@Z ; Eigen::internal::call_assignment_no_alias<Eigen::Matrix<float,3,1200,0,3,1200>,Eigen::Matrix<float,3,1200,0,3,1200>,Eigen::internal::swap_assign_op<float> >
PUBLIC	??$call_assignment_no_alias@V?$Matrix@M$0BHHA@$00$0A@$0BHHA@$00@Eigen@@V12@U?$swap_assign_op@M@internal@2@@internal@Eigen@@YAXAEAV?$Matrix@M$0BHHA@$00$0A@$0BHHA@$00@1@AEBV21@AEBU?$swap_assign_op@M@01@@Z ; Eigen::internal::call_assignment_no_alias<Eigen::Matrix<float,6000,1,0,6000,1>,Eigen::Matrix<float,6000,1,0,6000,1>,Eigen::internal::swap_assign_op<float> >
PUBLIC	??$call_assignment_no_alias@V?$Matrix@M$03$0FNM@$0A@$03$0FNM@@Eigen@@V12@U?$swap_assign_op@M@internal@2@@internal@Eigen@@YAXAEAV?$Matrix@M$03$0FNM@$0A@$03$0FNM@@1@AEBV21@AEBU?$swap_assign_op@M@01@@Z ; Eigen::internal::call_assignment_no_alias<Eigen::Matrix<float,4,1500,0,4,1500>,Eigen::Matrix<float,4,1500,0,4,1500>,Eigen::internal::swap_assign_op<float> >
PUBLIC	??$call_assignment_no_alias@V?$Matrix@M$0CDCI@$00$0A@$0CDCI@$00@Eigen@@V12@U?$swap_assign_op@M@internal@2@@internal@Eigen@@YAXAEAV?$Matrix@M$0CDCI@$00$0A@$0CDCI@$00@1@AEBV21@AEBU?$swap_assign_op@M@01@@Z ; Eigen::internal::call_assignment_no_alias<Eigen::Matrix<float,9000,1,0,9000,1>,Eigen::Matrix<float,9000,1,0,9000,1>,Eigen::internal::swap_assign_op<float> >
PUBLIC	??$call_assignment_no_alias@V?$Matrix@M$01$01$0A@$01$01@Eigen@@V12@U?$swap_assign_op@M@internal@2@@internal@Eigen@@YAXAEAV?$Matrix@M$01$01$0A@$01$01@1@AEBV21@AEBU?$swap_assign_op@M@01@@Z ; Eigen::internal::call_assignment_no_alias<Eigen::Matrix<float,2,2,0,2,2>,Eigen::Matrix<float,2,2,0,2,2>,Eigen::internal::swap_assign_op<float> >
PUBLIC	??$call_assignment_no_alias@V?$Matrix@M$04$0HAI@$0A@$04$0HAI@@Eigen@@V12@U?$swap_assign_op@M@internal@2@@internal@Eigen@@YAXAEAV?$Matrix@M$04$0HAI@$0A@$04$0HAI@@1@AEBV21@AEBU?$swap_assign_op@M@01@@Z ; Eigen::internal::call_assignment_no_alias<Eigen::Matrix<float,5,1800,0,5,1800>,Eigen::Matrix<float,5,1800,0,5,1800>,Eigen::internal::swap_assign_op<float> >
PUBLIC	??$forward@AEAPEAU?$_Tree_node@U?$pair@$$CB_KH@std@@PEAX@std@@@std@@YAAEAPEAU?$_Tree_node@U?$pair@$$CB_KH@std@@PEAX@0@AEAPEAU10@@Z ; std::forward<std::_Tree_node<std::pair<unsigned __int64 const ,int>,void *> * &>
PUBLIC	??$?0AEB_K$$Z$$V@?$pair@$$CB_KH@std@@QEAA@Upiecewise_construct_t@1@V?$tuple@AEB_K@1@V?$tuple@$$V@1@@Z ; std::pair<unsigned __int64 const ,int>::pair<unsigned __int64 const ,int><unsigned __int64 const &>
PUBLIC	??$?0U_Exact_args_t@std@@AEB_K$$V$0A@@?$tuple@AEB_K@std@@QEAA@U_Exact_args_t@1@AEB_K@Z ; std::tuple<unsigned __int64 const &>::tuple<unsigned __int64 const &><std::_Exact_args_t,unsigned __int64 const &,0>
PUBLIC	??$?0AEAPEAV?$tuple@P6AXXZ@std@@@?$_Compressed_pair@U?$default_delete@V?$tuple@P6AXXZ@std@@@std@@PEAV?$tuple@P6AXXZ@2@$00@std@@QEAA@U_Zero_then_variadic_args_t@1@AEAPEAV?$tuple@P6AXXZ@1@@Z ; std::_Compressed_pair<std::default_delete<std::tuple<void (__cdecl*)(void)> >,std::tuple<void (__cdecl*)(void)> *,1>::_Compressed_pair<std::default_delete<std::tuple<void (__cdecl*)(void)> >,std::tuple<void (__cdecl*)(void)> *,1><std::tuple<void (__cdecl*)(void)> * &>
PUBLIC	??$?0U_Exact_args_t@std@@AEBQ6AXXZ$$V$0A@@?$tuple@P6AXXZ@std@@QEAA@U_Exact_args_t@1@AEBQ6AXXZ@Z ; std::tuple<void (__cdecl*)(void)>::tuple<void (__cdecl*)(void)><std::_Exact_args_t,void (__cdecl*const &)(void),0>
PUBLIC	??$?0AEAPEAV?$tuple@P6AXHAEAV?$vector@UGame@uci@@V?$allocator@UGame@uci@@@std@@@std@@AEAV?$vector@MV?$allocator@M@std@@@2@AEAHAEAVNN@@@ZHV?$reference_wrapper@V?$vector@UGame@uci@@V?$allocator@UGame@uci@@@std@@@std@@@2@V?$reference_wrapper@V?$vector@MV?$allocator@M@std@@@std@@@2@V?$reference_wrapper@H@2@V?$reference_wrapper@VNN@@@2@@std@@@?$_Compressed_pair@U?$default_delete@V?$tuple@P6AXHAEAV?$vector@UGame@uci@@V?$allocator@UGame@uci@@@std@@@std@@AEAV?$vector@MV?$allocator@M@std@@@2@AEAHAEAVNN@@@ZHV?$reference_wrapper@V?$vector@UGame@uci@@V?$allocator@UGame@uci@@@std@@@std@@@2@V?$reference_wrapper@V?$vector@MV?$allocator@M@std@@@std@@@2@V?$reference_wrapper@H@2@V?$reference_wrapper@VNN@@@2@@std@@@std@@PEAV?$tuple@P6AXHAEAV?$vector@UGame@uci@@V?$allocator@UGame@uci@@@std@@@std@@AEAV?$vector@MV?$allocator@M@std@@@2@AEAHAEAVNN@@@ZHV?$reference_wrapper@V?$vector@UGame@uci@@V?$allocator@UGame@uci@@@std@@@std@@@2@V?$reference_wrapper@V?$vector@MV?$allocator@M@std@@@std@@@2@V?$reference_wrapper@H@2@V?$reference_wrapper@VNN@@@2@@2@$00@std@@QEAA@U_Zero_then_variadic_args_t@1@AEAPEAV?$tuple@P6AXHAEAV?$vector@UGame@uci@@V?$allocator@UGame@uci@@@std@@@std@@AEAV?$vector@MV?$allocator@M@std@@@2@AEAHAEAVNN@@@ZHV?$reference_wrapper@V?$vector@UGame@uci@@V?$allocator@UGame@uci@@@std@@@std@@@2@V?$reference_wrapper@V?$vector@MV?$allocator@M@std@@@std@@@2@V?$reference_wrapper@H@2@V?$reference_wrapper@VNN@@@2@@1@@Z ; std::_Compressed_pair<std::default_delete<std::tuple<void (__cdecl*)(int,std::vector<uci::Game,std::allocator<uci::Game> > &,std::vector<float,std::allocator<float> > &,int &,NN &),int,std::reference_wrapper<std::vector<uci::Game,std::allocator<uci::Game> > >,std::reference_wrapper<std::vector<float,std::allocator<float> > >,std::reference_wrapper<int>,std::reference_wrapper<NN> > >,std::tuple<void (__cdecl*)(int,std::vector<uci::Game,std::allocator<uci::Game> > &,std::vector<float,std::allocator<float> > &,int &,NN &),int,std::reference_wrapper<std::vector<uci::Game,std::allocator<uci::Game> > >,std::reference_wrapper<std::vector<float,std::allocator<float> > >,std::reference_wrapper<int>,std::reference_wrapper<NN> > *,1>::_Compressed_pair<std::default_delete<std::tuple<void (__cdecl*)(int,std::vector<uci::Game,std::allocator<uci::Game> > &,std::vector<float,std::allocator<float> > &,int &,NN &),int,std::reference_wrapper<std::vector<uci::Game,std::allocator<uci::Game> > >,std::reference_wrapper<std::vector<float,std::allocator<float> > >,std::reference_wrapper<int>,std::reference_wrapper<NN> > >,std::tuple<void (__cdecl*)(int,std::vector<uci::Game,std::allocator<uci::Game> > &,std::vector<float,std::allocator<float> > &,int &,NN &),int,std::reference_wrapper<std::vector<uci::Game,std::allocator<uci::Game> > >,std::reference_wrapper<std::vector<float,std::allocator<float> > >,std::reference_wrapper<int>,std::reference_wrapper<NN> > *,1><std::tuple<void (__cdecl*)(int,std::vector<uci::Game,std::allocator<uci::Game> > &,std::vector<float,std::allocator<float> > &,int &,NN &),int,std::reference_wrapper<std::vector<uci::Game,std::allocator<uci::Game> > >,std::reference_wrapper<std::vector<float,std::allocator<float> > >,std::reference_wrapper<int>,std::reference_wrapper<NN> > * &>
PUBLIC	??$?0U_Exact_args_t@std@@A6AXHAEAV?$vector@UGame@uci@@V?$allocator@UGame@uci@@@std@@@1@AEAV?$vector@MV?$allocator@M@std@@@1@AEAHAEAVNN@@@ZAEAHV?$reference_wrapper@V?$vector@UGame@uci@@V?$allocator@UGame@uci@@@std@@@std@@@1@V?$reference_wrapper@V?$vector@MV?$allocator@M@std@@@std@@@1@V?$reference_wrapper@H@1@V?$reference_wrapper@VNN@@@1@$0A@@?$tuple@P6AXHAEAV?$vector@UGame@uci@@V?$allocator@UGame@uci@@@std@@@std@@AEAV?$vector@MV?$allocator@M@std@@@2@AEAHAEAVNN@@@ZHV?$reference_wrapper@V?$vector@UGame@uci@@V?$allocator@UGame@uci@@@std@@@std@@@2@V?$reference_wrapper@V?$vector@MV?$allocator@M@std@@@std@@@2@V?$reference_wrapper@H@2@V?$reference_wrapper@VNN@@@2@@std@@QEAA@U_Exact_args_t@1@A6AXHAEAV?$vector@UGame@uci@@V?$allocator@UGame@uci@@@std@@@1@AEAV?$vector@MV?$allocator@M@std@@@1@AEAHAEAVNN@@@Z3$$QEAV?$reference_wrapper@V?$vector@UGame@uci@@V?$allocator@UGame@uci@@@std@@@std@@@1@$$QEAV?$reference_wrapper@V?$vector@MV?$allocator@M@std@@@std@@@1@$$QEAV?$reference_wrapper@H@1@$$QEAV?$reference_wrapper@VNN@@@1@@Z ; std::tuple<void (__cdecl*)(int,std::vector<uci::Game,std::allocator<uci::Game> > &,std::vector<float,std::allocator<float> > &,int &,NN &),int,std::reference_wrapper<std::vector<uci::Game,std::allocator<uci::Game> > >,std::reference_wrapper<std::vector<float,std::allocator<float> > >,std::reference_wrapper<int>,std::reference_wrapper<NN> >::tuple<void (__cdecl*)(int,std::vector<uci::Game,std::allocator<uci::Game> > &,std::vector<float,std::allocator<float> > &,int &,NN &),int,std::reference_wrapper<std::vector<uci::Game,std::allocator<uci::Game> > >,std::reference_wrapper<std::vector<float,std::allocator<float> > >,std::reference_wrapper<int>,std::reference_wrapper<NN> ><std::_Exact_args_t,void (__cdecl&)(int,std::vector<uci::Game,std::allocator<uci::Game> > &,std::vector<float,std::allocator<float> > &,int &,NN &),int &,std::reference_wrapper<std::vector<uci::Game,std::allocator<uci::Game> > >,std::reference_wrapper<std::vector<float,std::allocator<float> > >,std::reference_wrapper<int>,std::reference_wrapper<NN>,0>
PUBLIC	??$duration_cast@V?$duration@_JU?$ratio@$00$0DLJKMKAA@@std@@@chrono@std@@_JU?$ratio@$00$0DLJKMKAA@@3@$0A@@chrono@std@@YA?AV?$duration@_JU?$ratio@$00$0DLJKMKAA@@std@@@01@AEBV201@@Z ; std::chrono::duration_cast<std::chrono::duration<__int64,std::ratio<1,1000000000> >,__int64,std::ratio<1,1000000000>,0>
PUBLIC	??$?MNU?$ratio@$00$00@std@@_JU?$ratio@$00$0DLJKMKAA@@1@@chrono@std@@YA_NAEBV?$duration@NU?$ratio@$00$00@std@@@01@AEBV?$duration@_JU?$ratio@$00$0DLJKMKAA@@std@@@01@@Z ; std::chrono::operator<<double,std::ratio<1,1>,__int64,std::ratio<1,1000000000> >
PUBLIC	??$?0_JU?$ratio@$00$0JIJGIA@@std@@$0A@@?$duration@_JU?$ratio@$00$0DLJKMKAA@@std@@@chrono@std@@QEAA@AEBV?$duration@_JU?$ratio@$00$0JIJGIA@@std@@@12@@Z ; std::chrono::duration<__int64,std::ratio<1,1000000000> >::duration<__int64,std::ratio<1,1000000000> ><__int64,std::ratio<1,10000000>,0>
PUBLIC	??$?MUsteady_clock@chrono@std@@V?$duration@_JU?$ratio@$00$0DLJKMKAA@@std@@@12@V312@@chrono@std@@YA_NAEBV?$time_point@Usteady_clock@chrono@std@@V?$duration@_JU?$ratio@$00$0DLJKMKAA@@std@@@23@@01@0@Z ; std::chrono::operator<<std::chrono::steady_clock,std::chrono::duration<__int64,std::ratio<1,1000000000> >,std::chrono::duration<__int64,std::ratio<1,1000000000> > >
PUBLIC	??$forward@AEAPEAV_Facet_base@std@@@std@@YAAEAPEAV_Facet_base@0@AEAPEAV10@@Z ; std::forward<std::_Facet_base * &>
PUBLIC	??$?0_JU?$ratio@$00$00@std@@$0A@@?$duration@_JU?$ratio@$00$0DLJKMKAA@@std@@@chrono@std@@QEAA@AEBV?$duration@_JU?$ratio@$00$00@std@@@12@@Z ; std::chrono::duration<__int64,std::ratio<1,1000000000> >::duration<__int64,std::ratio<1,1000000000> ><__int64,std::ratio<1,1>,0>
PUBLIC	??$duration_cast@V?$duration@_JU?$ratio@$00$00@std@@@chrono@std@@_JU?$ratio@$00$0DLJKMKAA@@3@$0A@@chrono@std@@YA?AV?$duration@_JU?$ratio@$00$00@std@@@01@AEBV?$duration@_JU?$ratio@$00$0DLJKMKAA@@std@@@01@@Z ; std::chrono::duration_cast<std::chrono::duration<__int64,std::ratio<1,1> >,__int64,std::ratio<1,1000000000>,0>
PUBLIC	??Y?$duration@_JU?$ratio@$00$0DLJKMKAA@@std@@@chrono@std@@QEAAAEAV012@AEBV012@@Z ; std::chrono::duration<__int64,std::ratio<1,1000000000> >::operator+=
PUBLIC	??Z?$duration@_JU?$ratio@$00$0DLJKMKAA@@std@@@chrono@std@@QEAAAEAV012@AEBV012@@Z ; std::chrono::duration<__int64,std::ratio<1,1000000000> >::operator-=
PUBLIC	?count@?$duration@_JU?$ratio@$00$00@std@@@chrono@std@@QEBA_JXZ ; std::chrono::duration<__int64,std::ratio<1,1> >::count
PUBLIC	??B?$reference_wrapper@V?$vector@UGame@uci@@V?$allocator@UGame@uci@@@std@@@std@@@std@@QEBAAEAV?$vector@UGame@uci@@V?$allocator@UGame@uci@@@std@@@1@XZ ; std::reference_wrapper<std::vector<uci::Game,std::allocator<uci::Game> > >::operator std::vector<uci::Game,std::allocator<uci::Game> > &
PUBLIC	??B?$reference_wrapper@V?$vector@MV?$allocator@M@std@@@std@@@std@@QEBAAEAV?$vector@MV?$allocator@M@std@@@1@XZ ; std::reference_wrapper<std::vector<float,std::allocator<float> > >::operator std::vector<float,std::allocator<float> > &
PUBLIC	??B?$reference_wrapper@H@std@@QEBAAEAHXZ	; std::reference_wrapper<int>::operator int &
PUBLIC	??0?$tuple@AEB_K@std@@QEAA@$$QEAV01@@Z		; std::tuple<unsigned __int64 const &>::tuple<unsigned __int64 const &>
PUBLIC	??$forward@AEAV?$allocator@D@std@@@std@@YAAEAV?$allocator@D@0@AEAV10@@Z ; std::forward<std::allocator<char> &>
PUBLIC	??$_Emplace_back@AEBVNN@@@?$_Uninitialized_backout_al@V?$allocator@VNN@@@std@@@std@@QEAAXAEBVNN@@@Z ; std::_Uninitialized_backout_al<std::allocator<NN> >::_Emplace_back<NN const &>
PUBLIC	??$_Emplace_back@Vthread@std@@@?$_Uninitialized_backout_al@V?$allocator@Vthread@std@@@std@@@std@@QEAAX$$QEAVthread@1@@Z ; std::_Uninitialized_backout_al<std::allocator<std::thread> >::_Emplace_back<std::thread>
PUBLIC	??$move@AEAVthread@std@@@std@@YA$$QEAVthread@0@AEAV10@@Z ; std::move<std::thread &>
PUBLIC	??$call_assignment@V?$Matrix@M$0CFI@$0CFI@$0A@$0CFI@$0CFI@@Eigen@@V12@U?$swap_assign_op@M@internal@2@@internal@Eigen@@YAXAEAV?$Matrix@M$0CFI@$0CFI@$0A@$0CFI@$0CFI@@1@AEBV21@AEBU?$swap_assign_op@M@01@PEAX@Z ; Eigen::internal::call_assignment<Eigen::Matrix<float,600,600,0,600,600>,Eigen::Matrix<float,600,600,0,600,600>,Eigen::internal::swap_assign_op<float> >
PUBLIC	??$call_assignment@V?$Matrix@M$00$00$0A@$00$00@Eigen@@V12@U?$swap_assign_op@M@internal@2@@internal@Eigen@@YAXAEAV?$Matrix@M$00$00$0A@$00$00@1@AEBV21@AEBU?$swap_assign_op@M@01@PEAX@Z ; Eigen::internal::call_assignment<Eigen::Matrix<float,1,1,0,1,1>,Eigen::Matrix<float,1,1,0,1,1>,Eigen::internal::swap_assign_op<float> >
PUBLIC	??$call_assignment@V?$Matrix@M$0CFI@$00$0A@$0CFI@$00@Eigen@@V12@U?$swap_assign_op@M@internal@2@@internal@Eigen@@YAXAEAV?$Matrix@M$0CFI@$00$0A@$0CFI@$00@1@AEBV21@AEBU?$swap_assign_op@M@01@PEAX@Z ; Eigen::internal::call_assignment<Eigen::Matrix<float,600,1,0,600,1>,Eigen::Matrix<float,600,1,0,600,1>,Eigen::internal::swap_assign_op<float> >
PUBLIC	??$call_assignment@V?$Matrix@M$00$0CFI@$00$00$0CFI@@Eigen@@V12@U?$swap_assign_op@M@internal@2@@internal@Eigen@@YAXAEAV?$Matrix@M$00$0CFI@$00$00$0CFI@@1@AEBV21@AEBU?$swap_assign_op@M@01@PEAX@Z ; Eigen::internal::call_assignment<Eigen::Matrix<float,1,600,1,1,600>,Eigen::Matrix<float,1,600,1,1,600>,Eigen::internal::swap_assign_op<float> >
PUBLIC	??$call_assignment@V?$Matrix@M$0HAI@$00$0A@$0HAI@$00@Eigen@@V12@U?$swap_assign_op@M@internal@2@@internal@Eigen@@YAXAEAV?$Matrix@M$0HAI@$00$0A@$0HAI@$00@1@AEBV21@AEBU?$swap_assign_op@M@01@PEAX@Z ; Eigen::internal::call_assignment<Eigen::Matrix<float,1800,1,0,1800,1>,Eigen::Matrix<float,1800,1,0,1800,1>,Eigen::internal::swap_assign_op<float> >
PUBLIC	??$call_assignment@V?$Matrix@M$01$0DIE@$0A@$01$0DIE@@Eigen@@V12@U?$swap_assign_op@M@internal@2@@internal@Eigen@@YAXAEAV?$Matrix@M$01$0DIE@$0A@$01$0DIE@@1@AEBV21@AEBU?$swap_assign_op@M@01@PEAX@Z ; Eigen::internal::call_assignment<Eigen::Matrix<float,2,900,0,2,900>,Eigen::Matrix<float,2,900,0,2,900>,Eigen::internal::swap_assign_op<float> >
PUBLIC	??$call_assignment@V?$Matrix@M$0OBA@$00$0A@$0OBA@$00@Eigen@@V12@U?$swap_assign_op@M@internal@2@@internal@Eigen@@YAXAEAV?$Matrix@M$0OBA@$00$0A@$0OBA@$00@1@AEBV21@AEBU?$swap_assign_op@M@01@PEAX@Z ; Eigen::internal::call_assignment<Eigen::Matrix<float,3600,1,0,3600,1>,Eigen::Matrix<float,3600,1,0,3600,1>,Eigen::internal::swap_assign_op<float> >
PUBLIC	??$call_assignment@V?$Matrix@M$02$0ELA@$0A@$02$0ELA@@Eigen@@V12@U?$swap_assign_op@M@internal@2@@internal@Eigen@@YAXAEAV?$Matrix@M$02$0ELA@$0A@$02$0ELA@@1@AEBV21@AEBU?$swap_assign_op@M@01@PEAX@Z ; Eigen::internal::call_assignment<Eigen::Matrix<float,3,1200,0,3,1200>,Eigen::Matrix<float,3,1200,0,3,1200>,Eigen::internal::swap_assign_op<float> >
PUBLIC	??$call_assignment@V?$Matrix@M$0BHHA@$00$0A@$0BHHA@$00@Eigen@@V12@U?$swap_assign_op@M@internal@2@@internal@Eigen@@YAXAEAV?$Matrix@M$0BHHA@$00$0A@$0BHHA@$00@1@AEBV21@AEBU?$swap_assign_op@M@01@PEAX@Z ; Eigen::internal::call_assignment<Eigen::Matrix<float,6000,1,0,6000,1>,Eigen::Matrix<float,6000,1,0,6000,1>,Eigen::internal::swap_assign_op<float> >
PUBLIC	??$call_assignment@V?$Matrix@M$03$0FNM@$0A@$03$0FNM@@Eigen@@V12@U?$swap_assign_op@M@internal@2@@internal@Eigen@@YAXAEAV?$Matrix@M$03$0FNM@$0A@$03$0FNM@@1@AEBV21@AEBU?$swap_assign_op@M@01@PEAX@Z ; Eigen::internal::call_assignment<Eigen::Matrix<float,4,1500,0,4,1500>,Eigen::Matrix<float,4,1500,0,4,1500>,Eigen::internal::swap_assign_op<float> >
PUBLIC	??$call_assignment@V?$Matrix@M$0CDCI@$00$0A@$0CDCI@$00@Eigen@@V12@U?$swap_assign_op@M@internal@2@@internal@Eigen@@YAXAEAV?$Matrix@M$0CDCI@$00$0A@$0CDCI@$00@1@AEBV21@AEBU?$swap_assign_op@M@01@PEAX@Z ; Eigen::internal::call_assignment<Eigen::Matrix<float,9000,1,0,9000,1>,Eigen::Matrix<float,9000,1,0,9000,1>,Eigen::internal::swap_assign_op<float> >
PUBLIC	??$call_assignment@V?$Matrix@M$01$01$0A@$01$01@Eigen@@V12@U?$swap_assign_op@M@internal@2@@internal@Eigen@@YAXAEAV?$Matrix@M$01$01$0A@$01$01@1@AEBV21@AEBU?$swap_assign_op@M@01@PEAX@Z ; Eigen::internal::call_assignment<Eigen::Matrix<float,2,2,0,2,2>,Eigen::Matrix<float,2,2,0,2,2>,Eigen::internal::swap_assign_op<float> >
PUBLIC	??$call_assignment@V?$Matrix@M$04$0HAI@$0A@$04$0HAI@@Eigen@@V12@U?$swap_assign_op@M@internal@2@@internal@Eigen@@YAXAEAV?$Matrix@M$04$0HAI@$0A@$04$0HAI@@1@AEBV21@AEBU?$swap_assign_op@M@01@PEAX@Z ; Eigen::internal::call_assignment<Eigen::Matrix<float,5,1800,0,5,1800>,Eigen::Matrix<float,5,1800,0,5,1800>,Eigen::internal::swap_assign_op<float> >
