; Listing generated by Microsoft (R) Optimizing Compiler Version 19.27.29112.0 

include listing.inc

INCLUDELIB OLDNAMES

PUBLIC	??_R2Layer@@8					; Layer::`RTTI Base Class Array'
PUBLIC	??_R0?AVLayer@@@8				; Layer `RTTI Type Descriptor'
PUBLIC	??_R4Layer@@6B@					; Layer::`RTTI Complete Object Locator'
PUBLIC	??_R3ConvLayer@@8				; ConvLayer::`RTTI Class Hierarchy Descriptor'
PUBLIC	??_R0?AVConvLayer@@@8				; ConvLayer `RTTI Type Descriptor'
PUBLIC	??_R4ConvLayer@@6B@				; ConvLayer::`RTTI Complete Object Locator'
PUBLIC	??_7Layer@@6B@					; Layer::`vftable'
PUBLIC	??_C@_02PHMGELLB@?6?6@				; `string'
PUBLIC	??_R2ConvLayer@@8				; ConvLayer::`RTTI Base Class Array'
PUBLIC	??_R1A@?0A@EA@ConvLayer@@8			; ConvLayer::`RTTI Base Class Descriptor at (0,-1,0,64)'
PUBLIC	??_7ConvLayer@@6B@				; ConvLayer::`vftable'
PUBLIC	??_R1A@?0A@EA@Layer@@8				; Layer::`RTTI Base Class Descriptor at (0,-1,0,64)'
PUBLIC	??_R3Layer@@8					; Layer::`RTTI Class Hierarchy Descriptor'
EXTRN	__imp__purecall:PROC
EXTRN	__imp_?_Xbad_function_call@std@@YAXXZ:PROC
EXTRN	_purecall:PROC
;	COMDAT ??_R3Layer@@8
rdata$r	SEGMENT
??_R3Layer@@8 DD 00H					; Layer::`RTTI Class Hierarchy Descriptor'
	DD	00H
	DD	01H
	DD	imagerel ??_R2Layer@@8
rdata$r	ENDS
;	COMDAT ??_R1A@?0A@EA@Layer@@8
rdata$r	SEGMENT
??_R1A@?0A@EA@Layer@@8 DD imagerel ??_R0?AVLayer@@@8	; Layer::`RTTI Base Class Descriptor at (0,-1,0,64)'
	DD	00H
	DD	00H
	DD	0ffffffffH
	DD	00H
	DD	040H
	DD	imagerel ??_R3Layer@@8
rdata$r	ENDS
;	COMDAT ??_7ConvLayer@@6B@
CONST	SEGMENT
??_7ConvLayer@@6B@ DQ FLAT:??_R4ConvLayer@@6B@		; ConvLayer::`vftable'
	DQ	FLAT:?forward@ConvLayer@@UEAAAEBV?$Matrix@M$0?0$0?0$0A@$0?0$0?0@Eigen@@AEBV23@@Z
	DQ	FLAT:?layerType@ConvLayer@@UEAADXZ
	DQ	FLAT:?printWeights@ConvLayer@@UEAAXXZ
CONST	ENDS
;	COMDAT ??_R1A@?0A@EA@ConvLayer@@8
rdata$r	SEGMENT
??_R1A@?0A@EA@ConvLayer@@8 DD imagerel ??_R0?AVConvLayer@@@8 ; ConvLayer::`RTTI Base Class Descriptor at (0,-1,0,64)'
	DD	01H
	DD	00H
	DD	0ffffffffH
	DD	00H
	DD	040H
	DD	imagerel ??_R3ConvLayer@@8
rdata$r	ENDS
;	COMDAT ??_R2ConvLayer@@8
rdata$r	SEGMENT
??_R2ConvLayer@@8 DD imagerel ??_R1A@?0A@EA@ConvLayer@@8 ; ConvLayer::`RTTI Base Class Array'
	DD	imagerel ??_R1A@?0A@EA@Layer@@8
	ORG $+3
rdata$r	ENDS
;	COMDAT ??_C@_02PHMGELLB@?6?6@
CONST	SEGMENT
??_C@_02PHMGELLB@?6?6@ DB 0aH, 0aH, 00H			; `string'
CONST	ENDS
;	COMDAT ??_7Layer@@6B@
CONST	SEGMENT
??_7Layer@@6B@ DQ FLAT:??_R4Layer@@6B@			; Layer::`vftable'
	DQ	FLAT:_purecall
	DQ	FLAT:_purecall
	DQ	FLAT:_purecall
CONST	ENDS
;	COMDAT ??_R4ConvLayer@@6B@
rdata$r	SEGMENT
??_R4ConvLayer@@6B@ DD 01H				; ConvLayer::`RTTI Complete Object Locator'
	DD	00H
	DD	00H
	DD	imagerel ??_R0?AVConvLayer@@@8
	DD	imagerel ??_R3ConvLayer@@8
	DD	imagerel ??_R4ConvLayer@@6B@
rdata$r	ENDS
;	COMDAT ??_R0?AVConvLayer@@@8
data$r	SEGMENT
??_R0?AVConvLayer@@@8 DQ FLAT:??_7type_info@@6B@	; ConvLayer `RTTI Type Descriptor'
	DQ	0000000000000000H
	DB	'.?AVConvLayer@@', 00H
data$r	ENDS
;	COMDAT ??_R3ConvLayer@@8
rdata$r	SEGMENT
??_R3ConvLayer@@8 DD 00H				; ConvLayer::`RTTI Class Hierarchy Descriptor'
	DD	00H
	DD	02H
	DD	imagerel ??_R2ConvLayer@@8
rdata$r	ENDS
;	COMDAT ??_R4Layer@@6B@
rdata$r	SEGMENT
??_R4Layer@@6B@ DD 01H					; Layer::`RTTI Complete Object Locator'
	DD	00H
	DD	00H
	DD	imagerel ??_R0?AVLayer@@@8
	DD	imagerel ??_R3Layer@@8
	DD	imagerel ??_R4Layer@@6B@
rdata$r	ENDS
;	COMDAT ??_R0?AVLayer@@@8
data$r	SEGMENT
??_R0?AVLayer@@@8 DQ FLAT:??_7type_info@@6B@		; Layer `RTTI Type Descriptor'
	DQ	0000000000000000H
	DB	'.?AVLayer@@', 00H
data$r	ENDS
;	COMDAT ??_R2Layer@@8
rdata$r	SEGMENT
??_R2Layer@@8 DD imagerel ??_R1A@?0A@EA@Layer@@8	; Layer::`RTTI Base Class Array'
	ORG $+3
PUBLIC	??$ploadt@T__m128@@$0A@@internal@Eigen@@YA?AT__m128@@PEBM@Z ; Eigen::internal::ploadt<__m128,0>
PUBLIC	??$packetOp@T__m128@@@?$scalar_product_op@MM@internal@Eigen@@QEBA?AT__m128@@AEBT3@0@Z ; Eigen::internal::scalar_product_op<float,float>::packetOp<__m128>
PUBLIC	??$packet@$0A@T__m128@@@?$mapbase_evaluator@V?$Block@$$CBV?$Matrix@M$0?0$0?0$0A@$0?0$0?0@Eigen@@$0?0$0?0$0A@@Eigen@@V?$Matrix@M$0?0$0?0$0A@$0?0$0?0@2@@internal@Eigen@@QEBA?AT__m128@@_J0@Z ; Eigen::internal::mapbase_evaluator<Eigen::Block<Eigen::Matrix<float,-1,-1,0,-1,-1> const ,-1,-1,0>,Eigen::Matrix<float,-1,-1,0,-1,-1> >::packet<0,__m128>
PUBLIC	??$packet@$0A@T__m128@@@?$evaluator@V?$PlainObjectBase@V?$Matrix@M$0?0$0?0$0A@$0?0$0?0@Eigen@@@Eigen@@@internal@Eigen@@QEBA?AT__m128@@_J0@Z ; Eigen::internal::evaluator<Eigen::PlainObjectBase<Eigen::Matrix<float,-1,-1,0,-1,-1> > >::packet<0,__m128>
PUBLIC	??$construct@V?$Matrix@M$0?0$0?0$0A@$0?0$0?0@Eigen@@AEAV12@@?$_Default_allocator_traits@V?$allocator@V?$Matrix@M$0?0$0?0$0A@$0?0$0?0@Eigen@@@std@@@std@@SAXAEAV?$allocator@V?$Matrix@M$0?0$0?0$0A@$0?0$0?0@Eigen@@@1@QEAV?$Matrix@M$0?0$0?0$0A@$0?0$0?0@Eigen@@AEAV34@@Z ; std::_Default_allocator_traits<std::allocator<Eigen::Matrix<float,-1,-1,0,-1,-1> > >::construct<Eigen::Matrix<float,-1,-1,0,-1,-1>,Eigen::Matrix<float,-1,-1,0,-1,-1> &>
PUBLIC	??$run@V?$CwiseBinaryOp@U?$scalar_product_op@MM@internal@Eigen@@$$CBV?$Matrix@M$0?0$0?0$0A@$0?0$0?0@3@$$CBV?$Block@$$CBV?$Matrix@M$0?0$0?0$0A@$0?0$0?0@Eigen@@$0?0$0?0$0A@@3@@Eigen@@@?$redux_impl@U?$scalar_sum_op@MM@internal@Eigen@@V?$redux_evaluator@V?$CwiseBinaryOp@U?$scalar_product_op@MM@internal@Eigen@@$$CBV?$Matrix@M$0?0$0?0$0A@$0?0$0?0@3@$$CBV?$Block@$$CBV?$Matrix@M$0?0$0?0$0A@$0?0$0?0@Eigen@@$0?0$0?0$0A@@3@@Eigen@@@23@$0A@$0A@@internal@Eigen@@SAMAEBV?$redux_evaluator@V?$CwiseBinaryOp@U?$scalar_product_op@MM@internal@Eigen@@$$CBV?$Matrix@M$0?0$0?0$0A@$0?0$0?0@3@$$CBV?$Block@$$CBV?$Matrix@M$0?0$0?0$0A@$0?0$0?0@Eigen@@$0?0$0?0$0A@@3@@Eigen@@@12@AEBU?$scalar_sum_op@MM@12@AEBV?$CwiseBinaryOp@U?$scalar_product_op@MM@internal@Eigen@@$$CBV?$Matrix@M$0?0$0?0$0A@$0?0$0?0@3@$$CBV?$Block@$$CBV?$Matrix@M$0?0$0?0$0A@$0?0$0?0@Eigen@@$0?0$0?0$0A@@3@@2@@Z ; Eigen::internal::redux_impl<Eigen::internal::scalar_sum_op<float,float>,Eigen::internal::redux_evaluator<Eigen::CwiseBinaryOp<Eigen::internal::scalar_product_op<float,float>,Eigen::Matrix<float,-1,-1,0,-1,-1> const ,Eigen::Block<Eigen::Matrix<float,-1,-1,0,-1,-1> const ,-1,-1,0> const > >,0,0>::run<Eigen::CwiseBinaryOp<Eigen::internal::scalar_product_op<float,float>,Eigen::Matrix<float,-1,-1,0,-1,-1> const ,Eigen::Block<Eigen::Matrix<float,-1,-1,0,-1,-1> const ,-1,-1,0> const > >
PUBLIC	??$predux@T__m128@@@?$scalar_sum_op@MM@internal@Eigen@@QEBAMAEBT__m128@@@Z ; Eigen::internal::scalar_sum_op<float,float>::predux<__m128>
PUBLIC	??$packetOp@T__m128@@@?$scalar_sum_op@MM@internal@Eigen@@QEBA?AT__m128@@AEBT3@0@Z ; Eigen::internal::scalar_sum_op<float,float>::packetOp<__m128>
PUBLIC	??$packetByOuterInner@$0A@T__m128@@@?$redux_evaluator@V?$CwiseBinaryOp@U?$scalar_product_op@MM@internal@Eigen@@$$CBV?$Matrix@M$0?0$0?0$0A@$0?0$0?0@3@$$CBV?$Block@$$CBV?$Matrix@M$0?0$0?0$0A@$0?0$0?0@Eigen@@$0?0$0?0$0A@@3@@Eigen@@@internal@Eigen@@QEBA?AT__m128@@_J0@Z ; Eigen::internal::redux_evaluator<Eigen::CwiseBinaryOp<Eigen::internal::scalar_product_op<float,float>,Eigen::Matrix<float,-1,-1,0,-1,-1> const ,Eigen::Block<Eigen::Matrix<float,-1,-1,0,-1,-1> const ,-1,-1,0> const > >::packetByOuterInner<0,__m128>
PUBLIC	??$packet@$0A@T__m128@@@?$binary_evaluator@V?$CwiseBinaryOp@U?$scalar_product_op@MM@internal@Eigen@@$$CBV?$Matrix@M$0?0$0?0$0A@$0?0$0?0@3@$$CBV?$Block@$$CBV?$Matrix@M$0?0$0?0$0A@$0?0$0?0@Eigen@@$0?0$0?0$0A@@3@@Eigen@@UIndexBased@internal@2@U342@MM@internal@Eigen@@QEBA?AT__m128@@_J0@Z ; Eigen::internal::binary_evaluator<Eigen::CwiseBinaryOp<Eigen::internal::scalar_product_op<float,float>,Eigen::Matrix<float,-1,-1,0,-1,-1> const ,Eigen::Block<Eigen::Matrix<float,-1,-1,0,-1,-1> const ,-1,-1,0> const >,Eigen::internal::IndexBased,Eigen::internal::IndexBased,float,float>::packet<0,__m128>
PUBLIC	?rowStride@?$mapbase_evaluator@V?$Block@$$CBV?$Matrix@M$0?0$0?0$0A@$0?0$0?0@Eigen@@$0?0$0?0$0A@@Eigen@@V?$Matrix@M$0?0$0?0$0A@$0?0$0?0@2@@internal@Eigen@@IEBA_JXZ ; Eigen::internal::mapbase_evaluator<Eigen::Block<Eigen::Matrix<float,-1,-1,0,-1,-1> const ,-1,-1,0>,Eigen::Matrix<float,-1,-1,0,-1,-1> >::rowStride
PUBLIC	?colStride@?$mapbase_evaluator@V?$Block@$$CBV?$Matrix@M$0?0$0?0$0A@$0?0$0?0@Eigen@@$0?0$0?0$0A@@Eigen@@V?$Matrix@M$0?0$0?0$0A@$0?0$0?0@2@@internal@Eigen@@IEBA_JXZ ; Eigen::internal::mapbase_evaluator<Eigen::Block<Eigen::Matrix<float,-1,-1,0,-1,-1> const ,-1,-1,0>,Eigen::Matrix<float,-1,-1,0,-1,-1> >::colStride
PUBLIC	?coeff@?$evaluator@V?$PlainObjectBase@V?$Matrix@M$0?0$0?0$0A@$0?0$0?0@Eigen@@@Eigen@@@internal@Eigen@@QEBAAEBM_J0@Z ; Eigen::internal::evaluator<Eigen::PlainObjectBase<Eigen::Matrix<float,-1,-1,0,-1,-1> > >::coeff
PUBLIC	??R?$scalar_product_op@MM@internal@Eigen@@QEBAMAEBM0@Z ; Eigen::internal::scalar_product_op<float,float>::operator()
PUBLIC	?coeff@?$mapbase_evaluator@V?$Block@$$CBV?$Matrix@M$0?0$0?0$0A@$0?0$0?0@Eigen@@$0?0$0?0$0A@@Eigen@@V?$Matrix@M$0?0$0?0$0A@$0?0$0?0@2@@internal@Eigen@@QEBAM_J0@Z ; Eigen::internal::mapbase_evaluator<Eigen::Block<Eigen::Matrix<float,-1,-1,0,-1,-1> const ,-1,-1,0>,Eigen::Matrix<float,-1,-1,0,-1,-1> >::coeff
PUBLIC	?func@Data@?$binary_evaluator@V?$CwiseBinaryOp@U?$scalar_product_op@MM@internal@Eigen@@$$CBV?$Matrix@M$0?0$0?0$0A@$0?0$0?0@3@$$CBV?$Block@$$CBV?$Matrix@M$0?0$0?0$0A@$0?0$0?0@Eigen@@$0?0$0?0$0A@@3@@Eigen@@UIndexBased@internal@2@U342@MM@internal@Eigen@@QEBAAEBU?$scalar_product_op@MM@34@XZ ; Eigen::internal::binary_evaluator<Eigen::CwiseBinaryOp<Eigen::internal::scalar_product_op<float,float>,Eigen::Matrix<float,-1,-1,0,-1,-1> const ,Eigen::Block<Eigen::Matrix<float,-1,-1,0,-1,-1> const ,-1,-1,0> const >,Eigen::internal::IndexBased,Eigen::internal::IndexBased,float,float>::Data::func
PUBLIC	?coeff@?$binary_evaluator@V?$CwiseBinaryOp@U?$scalar_product_op@MM@internal@Eigen@@$$CBV?$Matrix@M$0?0$0?0$0A@$0?0$0?0@3@$$CBV?$Block@$$CBV?$Matrix@M$0?0$0?0$0A@$0?0$0?0@Eigen@@$0?0$0?0$0A@@3@@Eigen@@UIndexBased@internal@2@U342@MM@internal@Eigen@@QEBAM_J0@Z ; Eigen::internal::binary_evaluator<Eigen::CwiseBinaryOp<Eigen::internal::scalar_product_op<float,float>,Eigen::Matrix<float,-1,-1,0,-1,-1> const ,Eigen::Block<Eigen::Matrix<float,-1,-1,0,-1,-1> const ,-1,-1,0> const >,Eigen::internal::IndexBased,Eigen::internal::IndexBased,float,float>::coeff
PUBLIC	?outerSize@?$DenseBase@V?$CwiseBinaryOp@U?$scalar_product_op@MM@internal@Eigen@@$$CBV?$Matrix@M$0?0$0?0$0A@$0?0$0?0@3@$$CBV?$Block@$$CBV?$Matrix@M$0?0$0?0$0A@$0?0$0?0@Eigen@@$0?0$0?0$0A@@3@@Eigen@@@Eigen@@QEBA_JXZ ; Eigen::DenseBase<Eigen::CwiseBinaryOp<Eigen::internal::scalar_product_op<float,float>,Eigen::Matrix<float,-1,-1,0,-1,-1> const ,Eigen::Block<Eigen::Matrix<float,-1,-1,0,-1,-1> const ,-1,-1,0> const > >::outerSize
PUBLIC	?innerSize@?$DenseBase@V?$CwiseBinaryOp@U?$scalar_product_op@MM@internal@Eigen@@$$CBV?$Matrix@M$0?0$0?0$0A@$0?0$0?0@3@$$CBV?$Block@$$CBV?$Matrix@M$0?0$0?0$0A@$0?0$0?0@Eigen@@$0?0$0?0$0A@@3@@Eigen@@@Eigen@@QEBA_JXZ ; Eigen::DenseBase<Eigen::CwiseBinaryOp<Eigen::internal::scalar_product_op<float,float>,Eigen::Matrix<float,-1,-1,0,-1,-1> const ,Eigen::Block<Eigen::Matrix<float,-1,-1,0,-1,-1> const ,-1,-1,0> const > >::innerSize
PUBLIC	??R?$scalar_sum_op@MM@internal@Eigen@@QEBAMAEBM0@Z ; Eigen::internal::scalar_sum_op<float,float>::operator()
PUBLIC	?coeffByOuterInner@?$redux_evaluator@V?$CwiseBinaryOp@U?$scalar_product_op@MM@internal@Eigen@@$$CBV?$Matrix@M$0?0$0?0$0A@$0?0$0?0@3@$$CBV?$Block@$$CBV?$Matrix@M$0?0$0?0$0A@$0?0$0?0@Eigen@@$0?0$0?0$0A@@3@@Eigen@@@internal@Eigen@@QEBAM_J0@Z ; Eigen::internal::redux_evaluator<Eigen::CwiseBinaryOp<Eigen::internal::scalar_product_op<float,float>,Eigen::Matrix<float,-1,-1,0,-1,-1> const ,Eigen::Block<Eigen::Matrix<float,-1,-1,0,-1,-1> const ,-1,-1,0> const > >::coeffByOuterInner
PUBLIC	??$_Emplace_back@AEAV?$Matrix@M$0?0$0?0$0A@$0?0$0?0@Eigen@@@?$_Uninitialized_backout_al@V?$allocator@V?$Matrix@M$0?0$0?0$0A@$0?0$0?0@Eigen@@@std@@@std@@QEAAXAEAV?$Matrix@M$0?0$0?0$0A@$0?0$0?0@Eigen@@@Z ; std::_Uninitialized_backout_al<std::allocator<Eigen::Matrix<float,-1,-1,0,-1,-1> > >::_Emplace_back<Eigen::Matrix<float,-1,-1,0,-1,-1> &>
PUBLIC	??$run@V?$CwiseBinaryOp@U?$scalar_product_op@MM@internal@Eigen@@$$CBV?$Matrix@M$0?0$0?0$0A@$0?0$0?0@3@$$CBV?$Block@$$CBV?$Matrix@M$0?0$0?0$0A@$0?0$0?0@Eigen@@$0?0$0?0$0A@@3@@Eigen@@@?$redux_impl@U?$scalar_sum_op@MM@internal@Eigen@@V?$redux_evaluator@V?$CwiseBinaryOp@U?$scalar_product_op@MM@internal@Eigen@@$$CBV?$Matrix@M$0?0$0?0$0A@$0?0$0?0@3@$$CBV?$Block@$$CBV?$Matrix@M$0?0$0?0$0A@$0?0$0?0@Eigen@@$0?0$0?0$0A@@3@@Eigen@@@23@$03$0A@@internal@Eigen@@SAMAEBV?$redux_evaluator@V?$CwiseBinaryOp@U?$scalar_product_op@MM@internal@Eigen@@$$CBV?$Matrix@M$0?0$0?0$0A@$0?0$0?0@3@$$CBV?$Block@$$CBV?$Matrix@M$0?0$0?0$0A@$0?0$0?0@Eigen@@$0?0$0?0$0A@@3@@Eigen@@@12@AEBU?$scalar_sum_op@MM@12@AEBV?$CwiseBinaryOp@U?$scalar_product_op@MM@internal@Eigen@@$$CBV?$Matrix@M$0?0$0?0$0A@$0?0$0?0@3@$$CBV?$Block@$$CBV?$Matrix@M$0?0$0?0$0A@$0?0$0?0@Eigen@@$0?0$0?0$0A@@3@@2@@Z ; Eigen::internal::redux_impl<Eigen::internal::scalar_sum_op<float,float>,Eigen::internal::redux_evaluator<Eigen::CwiseBinaryOp<Eigen::internal::scalar_product_op<float,float>,Eigen::Matrix<float,-1,-1,0,-1,-1> const ,Eigen::Block<Eigen::Matrix<float,-1,-1,0,-1,-1> const ,-1,-1,0> const > >,4,0>::run<Eigen::CwiseBinaryOp<Eigen::internal::scalar_product_op<float,float>,Eigen::Matrix<float,-1,-1,0,-1,-1> const ,Eigen::Block<Eigen::Matrix<float,-1,-1,0,-1,-1> const ,-1,-1,0> const > >
PUBLIC	?data@?$MapBase@V?$Block@$$CBV?$Matrix@M$0?0$0?0$0A@$0?0$0?0@Eigen@@$0?0$0?0$0A@@Eigen@@$0A@@Eigen@@QEBAPEBMXZ ; Eigen::MapBase<Eigen::Block<Eigen::Matrix<float,-1,-1,0,-1,-1> const ,-1,-1,0>,0>::data
PUBLIC	?innerStride@?$BlockImpl_dense@$$CBV?$Matrix@M$0?0$0?0$0A@$0?0$0?0@Eigen@@$0?0$0?0$0A@$00@internal@Eigen@@QEBA_JXZ ; Eigen::internal::BlockImpl_dense<Eigen::Matrix<float,-1,-1,0,-1,-1> const ,-1,-1,0,1>::innerStride
PUBLIC	?outerStride@?$BlockImpl_dense@$$CBV?$Matrix@M$0?0$0?0$0A@$0?0$0?0@Eigen@@$0?0$0?0$0A@$00@internal@Eigen@@QEBA_JXZ ; Eigen::internal::BlockImpl_dense<Eigen::Matrix<float,-1,-1,0,-1,-1> const ,-1,-1,0,1>::outerStride
PUBLIC	??0?$evaluator_base@V?$Block@$$CBV?$Matrix@M$0?0$0?0$0A@$0?0$0?0@Eigen@@$0?0$0?0$0A@@Eigen@@@internal@Eigen@@QEAA@XZ ; Eigen::internal::evaluator_base<Eigen::Block<Eigen::Matrix<float,-1,-1,0,-1,-1> const ,-1,-1,0> >::evaluator_base<Eigen::Block<Eigen::Matrix<float,-1,-1,0,-1,-1> const ,-1,-1,0> >
PUBLIC	??0?$mapbase_evaluator@V?$Block@$$CBV?$Matrix@M$0?0$0?0$0A@$0?0$0?0@Eigen@@$0?0$0?0$0A@@Eigen@@V?$Matrix@M$0?0$0?0$0A@$0?0$0?0@2@@internal@Eigen@@QEAA@AEBV?$Block@$$CBV?$Matrix@M$0?0$0?0$0A@$0?0$0?0@Eigen@@$0?0$0?0$0A@@2@@Z ; Eigen::internal::mapbase_evaluator<Eigen::Block<Eigen::Matrix<float,-1,-1,0,-1,-1> const ,-1,-1,0>,Eigen::Matrix<float,-1,-1,0,-1,-1> >::mapbase_evaluator<Eigen::Block<Eigen::Matrix<float,-1,-1,0,-1,-1> const ,-1,-1,0>,Eigen::Matrix<float,-1,-1,0,-1,-1> >
PUBLIC	??0?$block_evaluator@$$CBV?$Matrix@M$0?0$0?0$0A@$0?0$0?0@Eigen@@$0?0$0?0$0A@$00@internal@Eigen@@QEAA@AEBV?$Block@$$CBV?$Matrix@M$0?0$0?0$0A@$0?0$0?0@Eigen@@$0?0$0?0$0A@@2@@Z ; Eigen::internal::block_evaluator<Eigen::Matrix<float,-1,-1,0,-1,-1> const ,-1,-1,0,1>::block_evaluator<Eigen::Matrix<float,-1,-1,0,-1,-1> const ,-1,-1,0,1>
PUBLIC	??0?$evaluator@V?$Block@$$CBV?$Matrix@M$0?0$0?0$0A@$0?0$0?0@Eigen@@$0?0$0?0$0A@@Eigen@@@internal@Eigen@@QEAA@AEBV?$Block@$$CBV?$Matrix@M$0?0$0?0$0A@$0?0$0?0@Eigen@@$0?0$0?0$0A@@2@@Z ; Eigen::internal::evaluator<Eigen::Block<Eigen::Matrix<float,-1,-1,0,-1,-1> const ,-1,-1,0> >::evaluator<Eigen::Block<Eigen::Matrix<float,-1,-1,0,-1,-1> const ,-1,-1,0> >
PUBLIC	?lhs@?$CwiseBinaryOp@U?$scalar_product_op@MM@internal@Eigen@@$$CBV?$Matrix@M$0?0$0?0$0A@$0?0$0?0@3@$$CBV?$Block@$$CBV?$Matrix@M$0?0$0?0$0A@$0?0$0?0@Eigen@@$0?0$0?0$0A@@3@@Eigen@@QEBAAEBV?$Matrix@M$0?0$0?0$0A@$0?0$0?0@2@XZ ; Eigen::CwiseBinaryOp<Eigen::internal::scalar_product_op<float,float>,Eigen::Matrix<float,-1,-1,0,-1,-1> const ,Eigen::Block<Eigen::Matrix<float,-1,-1,0,-1,-1> const ,-1,-1,0> const >::lhs
PUBLIC	?rhs@?$CwiseBinaryOp@U?$scalar_product_op@MM@internal@Eigen@@$$CBV?$Matrix@M$0?0$0?0$0A@$0?0$0?0@3@$$CBV?$Block@$$CBV?$Matrix@M$0?0$0?0$0A@$0?0$0?0@Eigen@@$0?0$0?0$0A@@3@@Eigen@@QEBAAEBV?$Block@$$CBV?$Matrix@M$0?0$0?0$0A@$0?0$0?0@Eigen@@$0?0$0?0$0A@@2@XZ ; Eigen::CwiseBinaryOp<Eigen::internal::scalar_product_op<float,float>,Eigen::Matrix<float,-1,-1,0,-1,-1> const ,Eigen::Block<Eigen::Matrix<float,-1,-1,0,-1,-1> const ,-1,-1,0> const >::rhs
PUBLIC	?functor@?$CwiseBinaryOp@U?$scalar_product_op@MM@internal@Eigen@@$$CBV?$Matrix@M$0?0$0?0$0A@$0?0$0?0@3@$$CBV?$Block@$$CBV?$Matrix@M$0?0$0?0$0A@$0?0$0?0@Eigen@@$0?0$0?0$0A@@3@@Eigen@@QEBAAEBU?$scalar_product_op@MM@internal@2@XZ ; Eigen::CwiseBinaryOp<Eigen::internal::scalar_product_op<float,float>,Eigen::Matrix<float,-1,-1,0,-1,-1> const ,Eigen::Block<Eigen::Matrix<float,-1,-1,0,-1,-1> const ,-1,-1,0> const >::functor
PUBLIC	??0?$evaluator@$$CBV?$Matrix@M$0?0$0?0$0A@$0?0$0?0@Eigen@@@internal@Eigen@@QEAA@AEBV?$Matrix@M$0?0$0?0$0A@$0?0$0?0@2@@Z ; Eigen::internal::evaluator<Eigen::Matrix<float,-1,-1,0,-1,-1> const >::evaluator<Eigen::Matrix<float,-1,-1,0,-1,-1> const >
PUBLIC	??0?$evaluator@$$CBV?$Block@$$CBV?$Matrix@M$0?0$0?0$0A@$0?0$0?0@Eigen@@$0?0$0?0$0A@@Eigen@@@internal@Eigen@@QEAA@AEBV?$Block@$$CBV?$Matrix@M$0?0$0?0$0A@$0?0$0?0@Eigen@@$0?0$0?0$0A@@2@@Z ; Eigen::internal::evaluator<Eigen::Block<Eigen::Matrix<float,-1,-1,0,-1,-1> const ,-1,-1,0> const >::evaluator<Eigen::Block<Eigen::Matrix<float,-1,-1,0,-1,-1> const ,-1,-1,0> const >
PUBLIC	??0?$evaluator_base@V?$CwiseBinaryOp@U?$scalar_product_op@MM@internal@Eigen@@$$CBV?$Matrix@M$0?0$0?0$0A@$0?0$0?0@3@$$CBV?$Block@$$CBV?$Matrix@M$0?0$0?0$0A@$0?0$0?0@Eigen@@$0?0$0?0$0A@@3@@Eigen@@@internal@Eigen@@QEAA@XZ ; Eigen::internal::evaluator_base<Eigen::CwiseBinaryOp<Eigen::internal::scalar_product_op<float,float>,Eigen::Matrix<float,-1,-1,0,-1,-1> const ,Eigen::Block<Eigen::Matrix<float,-1,-1,0,-1,-1> const ,-1,-1,0> const > >::evaluator_base<Eigen::CwiseBinaryOp<Eigen::internal::scalar_product_op<float,float>,Eigen::Matrix<float,-1,-1,0,-1,-1> const ,Eigen::Block<Eigen::Matrix<float,-1,-1,0,-1,-1> const ,-1,-1,0> const > >
PUBLIC	??0Data@?$binary_evaluator@V?$CwiseBinaryOp@U?$scalar_product_op@MM@internal@Eigen@@$$CBV?$Matrix@M$0?0$0?0$0A@$0?0$0?0@3@$$CBV?$Block@$$CBV?$Matrix@M$0?0$0?0$0A@$0?0$0?0@Eigen@@$0?0$0?0$0A@@3@@Eigen@@UIndexBased@internal@2@U342@MM@internal@Eigen@@QEAA@AEBV?$CwiseBinaryOp@U?$scalar_product_op@MM@internal@Eigen@@$$CBV?$Matrix@M$0?0$0?0$0A@$0?0$0?0@3@$$CBV?$Block@$$CBV?$Matrix@M$0?0$0?0$0A@$0?0$0?0@Eigen@@$0?0$0?0$0A@@3@@3@@Z ; Eigen::internal::binary_evaluator<Eigen::CwiseBinaryOp<Eigen::internal::scalar_product_op<float,float>,Eigen::Matrix<float,-1,-1,0,-1,-1> const ,Eigen::Block<Eigen::Matrix<float,-1,-1,0,-1,-1> const ,-1,-1,0> const >,Eigen::internal::IndexBased,Eigen::internal::IndexBased,float,float>::Data::Data
PUBLIC	??0?$binary_evaluator@V?$CwiseBinaryOp@U?$scalar_product_op@MM@internal@Eigen@@$$CBV?$Matrix@M$0?0$0?0$0A@$0?0$0?0@3@$$CBV?$Block@$$CBV?$Matrix@M$0?0$0?0$0A@$0?0$0?0@Eigen@@$0?0$0?0$0A@@3@@Eigen@@UIndexBased@internal@2@U342@MM@internal@Eigen@@QEAA@AEBV?$CwiseBinaryOp@U?$scalar_product_op@MM@internal@Eigen@@$$CBV?$Matrix@M$0?0$0?0$0A@$0?0$0?0@3@$$CBV?$Block@$$CBV?$Matrix@M$0?0$0?0$0A@$0?0$0?0@Eigen@@$0?0$0?0$0A@@3@@2@@Z ; Eigen::internal::binary_evaluator<Eigen::CwiseBinaryOp<Eigen::internal::scalar_product_op<float,float>,Eigen::Matrix<float,-1,-1,0,-1,-1> const ,Eigen::Block<Eigen::Matrix<float,-1,-1,0,-1,-1> const ,-1,-1,0> const >,Eigen::internal::IndexBased,Eigen::internal::IndexBased,float,float>::binary_evaluator<Eigen::CwiseBinaryOp<Eigen::internal::scalar_product_op<float,float>,Eigen::Matrix<float,-1,-1,0,-1,-1> const ,Eigen::Block<Eigen::Matrix<float,-1,-1,0,-1,-1> const ,-1,-1,0> const >,Eigen::internal::IndexBased,Eigen::internal::IndexBased,float,float>
PUBLIC	??0?$evaluator@V?$CwiseBinaryOp@U?$scalar_product_op@MM@internal@Eigen@@$$CBV?$Matrix@M$0?0$0?0$0A@$0?0$0?0@3@$$CBV?$Block@$$CBV?$Matrix@M$0?0$0?0$0A@$0?0$0?0@Eigen@@$0?0$0?0$0A@@3@@Eigen@@@internal@Eigen@@QEAA@AEBV?$CwiseBinaryOp@U?$scalar_product_op@MM@internal@Eigen@@$$CBV?$Matrix@M$0?0$0?0$0A@$0?0$0?0@3@$$CBV?$Block@$$CBV?$Matrix@M$0?0$0?0$0A@$0?0$0?0@Eigen@@$0?0$0?0$0A@@3@@2@@Z ; Eigen::internal::evaluator<Eigen::CwiseBinaryOp<Eigen::internal::scalar_product_op<float,float>,Eigen::Matrix<float,-1,-1,0,-1,-1> const ,Eigen::Block<Eigen::Matrix<float,-1,-1,0,-1,-1> const ,-1,-1,0> const > >::evaluator<Eigen::CwiseBinaryOp<Eigen::internal::scalar_product_op<float,float>,Eigen::Matrix<float,-1,-1,0,-1,-1> const ,Eigen::Block<Eigen::Matrix<float,-1,-1,0,-1,-1> const ,-1,-1,0> const > >
PUBLIC	??1?$evaluator_base@V?$CwiseBinaryOp@U?$scalar_product_op@MM@internal@Eigen@@$$CBV?$Matrix@M$0?0$0?0$0A@$0?0$0?0@3@$$CBV?$Block@$$CBV?$Matrix@M$0?0$0?0$0A@$0?0$0?0@Eigen@@$0?0$0?0$0A@@3@@Eigen@@@internal@Eigen@@QEAA@XZ ; Eigen::internal::evaluator_base<Eigen::CwiseBinaryOp<Eigen::internal::scalar_product_op<float,float>,Eigen::Matrix<float,-1,-1,0,-1,-1> const ,Eigen::Block<Eigen::Matrix<float,-1,-1,0,-1,-1> const ,-1,-1,0> const > >::~evaluator_base<Eigen::CwiseBinaryOp<Eigen::internal::scalar_product_op<float,float>,Eigen::Matrix<float,-1,-1,0,-1,-1> const ,Eigen::Block<Eigen::Matrix<float,-1,-1,0,-1,-1> const ,-1,-1,0> const > >
PUBLIC	??1?$evaluator_base@V?$Block@$$CBV?$Matrix@M$0?0$0?0$0A@$0?0$0?0@Eigen@@$0?0$0?0$0A@@Eigen@@@internal@Eigen@@QEAA@XZ ; Eigen::internal::evaluator_base<Eigen::Block<Eigen::Matrix<float,-1,-1,0,-1,-1> const ,-1,-1,0> >::~evaluator_base<Eigen::Block<Eigen::Matrix<float,-1,-1,0,-1,-1> const ,-1,-1,0> >
PUBLIC	??0?$redux_evaluator@V?$CwiseBinaryOp@U?$scalar_product_op@MM@internal@Eigen@@$$CBV?$Matrix@M$0?0$0?0$0A@$0?0$0?0@3@$$CBV?$Block@$$CBV?$Matrix@M$0?0$0?0$0A@$0?0$0?0@Eigen@@$0?0$0?0$0A@@3@@Eigen@@@internal@Eigen@@QEAA@AEBV?$CwiseBinaryOp@U?$scalar_product_op@MM@internal@Eigen@@$$CBV?$Matrix@M$0?0$0?0$0A@$0?0$0?0@3@$$CBV?$Block@$$CBV?$Matrix@M$0?0$0?0$0A@$0?0$0?0@Eigen@@$0?0$0?0$0A@@3@@2@@Z ; Eigen::internal::redux_evaluator<Eigen::CwiseBinaryOp<Eigen::internal::scalar_product_op<float,float>,Eigen::Matrix<float,-1,-1,0,-1,-1> const ,Eigen::Block<Eigen::Matrix<float,-1,-1,0,-1,-1> const ,-1,-1,0> const > >::redux_evaluator<Eigen::CwiseBinaryOp<Eigen::internal::scalar_product_op<float,float>,Eigen::Matrix<float,-1,-1,0,-1,-1> const ,Eigen::Block<Eigen::Matrix<float,-1,-1,0,-1,-1> const ,-1,-1,0> const > >
PUBLIC	??1?$mapbase_evaluator@V?$Block@$$CBV?$Matrix@M$0?0$0?0$0A@$0?0$0?0@Eigen@@$0?0$0?0$0A@@Eigen@@V?$Matrix@M$0?0$0?0$0A@$0?0$0?0@2@@internal@Eigen@@QEAA@XZ ; Eigen::internal::mapbase_evaluator<Eigen::Block<Eigen::Matrix<float,-1,-1,0,-1,-1> const ,-1,-1,0>,Eigen::Matrix<float,-1,-1,0,-1,-1> >::~mapbase_evaluator<Eigen::Block<Eigen::Matrix<float,-1,-1,0,-1,-1> const ,-1,-1,0>,Eigen::Matrix<float,-1,-1,0,-1,-1> >
PUBLIC	??1?$block_evaluator@$$CBV?$Matrix@M$0?0$0?0$0A@$0?0$0?0@Eigen@@$0?0$0?0$0A@$00@internal@Eigen@@QEAA@XZ ; Eigen::internal::block_evaluator<Eigen::Matrix<float,-1,-1,0,-1,-1> const ,-1,-1,0,1>::~block_evaluator<Eigen::Matrix<float,-1,-1,0,-1,-1> const ,-1,-1,0,1>
PUBLIC	??1?$evaluator@V?$Block@$$CBV?$Matrix@M$0?0$0?0$0A@$0?0$0?0@Eigen@@$0?0$0?0$0A@@Eigen@@@internal@Eigen@@QEAA@XZ ; Eigen::internal::evaluator<Eigen::Block<Eigen::Matrix<float,-1,-1,0,-1,-1> const ,-1,-1,0> >::~evaluator<Eigen::Block<Eigen::Matrix<float,-1,-1,0,-1,-1> const ,-1,-1,0> >
PUBLIC	??1?$evaluator@$$CBV?$Block@$$CBV?$Matrix@M$0?0$0?0$0A@$0?0$0?0@Eigen@@$0?0$0?0$0A@@Eigen@@@internal@Eigen@@QEAA@XZ ; Eigen::internal::evaluator<Eigen::Block<Eigen::Matrix<float,-1,-1,0,-1,-1> const ,-1,-1,0> const >::~evaluator<Eigen::Block<Eigen::Matrix<float,-1,-1,0,-1,-1> const ,-1,-1,0> const >
PUBLIC	??1?$evaluator@$$CBV?$Matrix@M$0?0$0?0$0A@$0?0$0?0@Eigen@@@internal@Eigen@@QEAA@XZ ; Eigen::internal::evaluator<Eigen::Matrix<float,-1,-1,0,-1,-1> const >::~evaluator<Eigen::Matrix<float,-1,-1,0,-1,-1> const >
PUBLIC	??1Data@?$binary_evaluator@V?$CwiseBinaryOp@U?$scalar_product_op@MM@internal@Eigen@@$$CBV?$Matrix@M$0?0$0?0$0A@$0?0$0?0@3@$$CBV?$Block@$$CBV?$Matrix@M$0?0$0?0$0A@$0?0$0?0@Eigen@@$0?0$0?0$0A@@3@@Eigen@@UIndexBased@internal@2@U342@MM@internal@Eigen@@QEAA@XZ ; Eigen::internal::binary_evaluator<Eigen::CwiseBinaryOp<Eigen::internal::scalar_product_op<float,float>,Eigen::Matrix<float,-1,-1,0,-1,-1> const ,Eigen::Block<Eigen::Matrix<float,-1,-1,0,-1,-1> const ,-1,-1,0> const >,Eigen::internal::IndexBased,Eigen::internal::IndexBased,float,float>::Data::~Data
PUBLIC	??1?$binary_evaluator@V?$CwiseBinaryOp@U?$scalar_product_op@MM@internal@Eigen@@$$CBV?$Matrix@M$0?0$0?0$0A@$0?0$0?0@3@$$CBV?$Block@$$CBV?$Matrix@M$0?0$0?0$0A@$0?0$0?0@Eigen@@$0?0$0?0$0A@@3@@Eigen@@UIndexBased@internal@2@U342@MM@internal@Eigen@@QEAA@XZ ; Eigen::internal::binary_evaluator<Eigen::CwiseBinaryOp<Eigen::internal::scalar_product_op<float,float>,Eigen::Matrix<float,-1,-1,0,-1,-1> const ,Eigen::Block<Eigen::Matrix<float,-1,-1,0,-1,-1> const ,-1,-1,0> const >,Eigen::internal::IndexBased,Eigen::internal::IndexBased,float,float>::~binary_evaluator<Eigen::CwiseBinaryOp<Eigen::internal::scalar_product_op<float,float>,Eigen::Matrix<float,-1,-1,0,-1,-1> const ,Eigen::Block<Eigen::Matrix<float,-1,-1,0,-1,-1> const ,-1,-1,0> const >,Eigen::internal::IndexBased,Eigen::internal::IndexBased,float,float>
PUBLIC	??1?$evaluator@V?$CwiseBinaryOp@U?$scalar_product_op@MM@internal@Eigen@@$$CBV?$Matrix@M$0?0$0?0$0A@$0?0$0?0@3@$$CBV?$Block@$$CBV?$Matrix@M$0?0$0?0$0A@$0?0$0?0@Eigen@@$0?0$0?0$0A@@3@@Eigen@@@internal@Eigen@@QEAA@XZ ; Eigen::internal::evaluator<Eigen::CwiseBinaryOp<Eigen::internal::scalar_product_op<float,float>,Eigen::Matrix<float,-1,-1,0,-1,-1> const ,Eigen::Block<Eigen::Matrix<float,-1,-1,0,-1,-1> const ,-1,-1,0> const > >::~evaluator<Eigen::CwiseBinaryOp<Eigen::internal::scalar_product_op<float,float>,Eigen::Matrix<float,-1,-1,0,-1,-1> const ,Eigen::Block<Eigen::Matrix<float,-1,-1,0,-1,-1> const ,-1,-1,0> const > >
PUBLIC	??_G?$vector@V?$Matrix@M$0?0$0?0$0A@$0?0$0?0@Eigen@@V?$allocator@V?$Matrix@M$0?0$0?0$0A@$0?0$0?0@Eigen@@@std@@@std@@QEAAPEAXI@Z ; std::vector<Eigen::Matrix<float,-1,-1,0,-1,-1>,std::allocator<Eigen::Matrix<float,-1,-1,0,-1,-1> > >::`scalar deleting destructor'
PUBLIC	??1?$redux_evaluator@V?$CwiseBinaryOp@U?$scalar_product_op@MM@internal@Eigen@@$$CBV?$Matrix@M$0?0$0?0$0A@$0?0$0?0@3@$$CBV?$Block@$$CBV?$Matrix@M$0?0$0?0$0A@$0?0$0?0@Eigen@@$0?0$0?0$0A@@3@@Eigen@@@internal@Eigen@@QEAA@XZ ; Eigen::internal::redux_evaluator<Eigen::CwiseBinaryOp<Eigen::internal::scalar_product_op<float,float>,Eigen::Matrix<float,-1,-1,0,-1,-1> const ,Eigen::Block<Eigen::Matrix<float,-1,-1,0,-1,-1> const ,-1,-1,0> const > >::~redux_evaluator<Eigen::CwiseBinaryOp<Eigen::internal::scalar_product_op<float,float>,Eigen::Matrix<float,-1,-1,0,-1,-1> const ,Eigen::Block<Eigen::Matrix<float,-1,-1,0,-1,-1> const ,-1,-1,0> const > >
PUBLIC	??$checkSanity@V?$Block@$$CBV?$Matrix@M$0?0$0?0$0A@$0?0$0?0@Eigen@@$0?0$0?0$0A@@Eigen@@@?$MapBase@V?$Block@$$CBV?$Matrix@M$0?0$0?0$0A@$0?0$0?0@Eigen@@$0?0$0?0$0A@@Eigen@@$0A@@Eigen@@IEBAXPEAX@Z ; Eigen::MapBase<Eigen::Block<Eigen::Matrix<float,-1,-1,0,-1,-1> const ,-1,-1,0>,0>::checkSanity<Eigen::Block<Eigen::Matrix<float,-1,-1,0,-1,-1> const ,-1,-1,0> >
PUBLIC	??$destroy@V?$vector@V?$Matrix@M$0?0$0?0$0A@$0?0$0?0@Eigen@@V?$allocator@V?$Matrix@M$0?0$0?0$0A@$0?0$0?0@Eigen@@@std@@@std@@@?$_Default_allocator_traits@V?$allocator@V?$vector@V?$Matrix@M$0?0$0?0$0A@$0?0$0?0@Eigen@@V?$allocator@V?$Matrix@M$0?0$0?0$0A@$0?0$0?0@Eigen@@@std@@@std@@@std@@@std@@SAXAEAV?$allocator@V?$vector@V?$Matrix@M$0?0$0?0$0A@$0?0$0?0@Eigen@@V?$allocator@V?$Matrix@M$0?0$0?0$0A@$0?0$0?0@Eigen@@@std@@@std@@@1@QEAV?$vector@V?$Matrix@M$0?0$0?0$0A@$0?0$0?0@Eigen@@V?$allocator@V?$Matrix@M$0?0$0?0$0A@$0?0$0?0@Eigen@@@std@@@1@@Z ; std::_Default_allocator_traits<std::allocator<std::vector<Eigen::Matrix<float,-1,-1,0,-1,-1>,std::allocator<Eigen::Matrix<float,-1,-1,0,-1,-1> > > > >::destroy<std::vector<Eigen::Matrix<float,-1,-1,0,-1,-1>,std::allocator<Eigen::Matrix<float,-1,-1,0,-1,-1> > > >
PUBLIC	??$_Unfancy@V?$vector@V?$Matrix@M$0?0$0?0$0A@$0?0$0?0@Eigen@@V?$allocator@V?$Matrix@M$0?0$0?0$0A@$0?0$0?0@Eigen@@@std@@@std@@@std@@YAPEAV?$vector@V?$Matrix@M$0?0$0?0$0A@$0?0$0?0@Eigen@@V?$allocator@V?$Matrix@M$0?0$0?0$0A@$0?0$0?0@Eigen@@@std@@@0@PEAV10@@Z ; std::_Unfancy<std::vector<Eigen::Matrix<float,-1,-1,0,-1,-1>,std::allocator<Eigen::Matrix<float,-1,-1,0,-1,-1> > > >
PUBLIC	??$move@AEAV?$allocator@V?$vector@V?$Matrix@M$0?0$0?0$0A@$0?0$0?0@Eigen@@V?$allocator@V?$Matrix@M$0?0$0?0$0A@$0?0$0?0@Eigen@@@std@@@std@@@std@@@std@@YA$$QEAV?$allocator@V?$vector@V?$Matrix@M$0?0$0?0$0A@$0?0$0?0@Eigen@@V?$allocator@V?$Matrix@M$0?0$0?0$0A@$0?0$0?0@Eigen@@@std@@@std@@@0@AEAV10@@Z ; std::move<std::allocator<std::vector<Eigen::Matrix<float,-1,-1,0,-1,-1>,std::allocator<Eigen::Matrix<float,-1,-1,0,-1,-1> > > > &>
PUBLIC	??$move@AEAV?$allocator@M@std@@@std@@YA$$QEAV?$allocator@M@0@AEAV10@@Z ; std::move<std::allocator<float> &>
PUBLIC	??$_Uninitialized_copy@PEAV?$Matrix@M$0?0$0?0$0A@$0?0$0?0@Eigen@@V?$allocator@V?$Matrix@M$0?0$0?0$0A@$0?0$0?0@Eigen@@@std@@@std@@YAPEAV?$Matrix@M$0?0$0?0$0A@$0?0$0?0@Eigen@@QEAV12@0PEAV12@AEAV?$allocator@V?$Matrix@M$0?0$0?0$0A@$0?0$0?0@Eigen@@@0@@Z ; std::_Uninitialized_copy<Eigen::Matrix<float,-1,-1,0,-1,-1> *,std::allocator<Eigen::Matrix<float,-1,-1,0,-1,-1> > >
PUBLIC	??$forward@V?$allocator@V?$Matrix@M$0?0$0?0$0A@$0?0$0?0@Eigen@@@std@@@std@@YA$$QEAV?$allocator@V?$Matrix@M$0?0$0?0$0A@$0?0$0?0@Eigen@@@0@AEAV10@@Z ; std::forward<std::allocator<Eigen::Matrix<float,-1,-1,0,-1,-1> > >
PUBLIC	??$redux@U?$scalar_sum_op@MM@internal@Eigen@@@?$DenseBase@V?$CwiseBinaryOp@U?$scalar_product_op@MM@internal@Eigen@@$$CBV?$Matrix@M$0?0$0?0$0A@$0?0$0?0@3@$$CBV?$Block@$$CBV?$Matrix@M$0?0$0?0$0A@$0?0$0?0@Eigen@@$0?0$0?0$0A@@3@@Eigen@@@Eigen@@QEBAMAEBU?$scalar_sum_op@MM@internal@1@@Z ; Eigen::DenseBase<Eigen::CwiseBinaryOp<Eigen::internal::scalar_product_op<float,float>,Eigen::Matrix<float,-1,-1,0,-1,-1> const ,Eigen::Block<Eigen::Matrix<float,-1,-1,0,-1,-1> const ,-1,-1,0> const > >::redux<Eigen::internal::scalar_sum_op<float,float> >
PUBLIC	??$get_runtime_value@H@internal@Eigen@@YA_JAEBH@Z ; Eigen::internal::get_runtime_value<int>
PUBLIC	??0?$DenseBase@V?$Block@$$CBV?$Matrix@M$0?0$0?0$0A@$0?0$0?0@Eigen@@$0?0$0?0$0A@@Eigen@@@Eigen@@IEAA@XZ ; Eigen::DenseBase<Eigen::Block<Eigen::Matrix<float,-1,-1,0,-1,-1> const ,-1,-1,0> >::DenseBase<Eigen::Block<Eigen::Matrix<float,-1,-1,0,-1,-1> const ,-1,-1,0> >
PUBLIC	??0?$MatrixBase@V?$Block@$$CBV?$Matrix@M$0?0$0?0$0A@$0?0$0?0@Eigen@@$0?0$0?0$0A@@Eigen@@@Eigen@@IEAA@XZ ; Eigen::MatrixBase<Eigen::Block<Eigen::Matrix<float,-1,-1,0,-1,-1> const ,-1,-1,0> >::MatrixBase<Eigen::Block<Eigen::Matrix<float,-1,-1,0,-1,-1> const ,-1,-1,0> >
PUBLIC	?rows@?$MapBase@V?$Block@$$CBV?$Matrix@M$0?0$0?0$0A@$0?0$0?0@Eigen@@$0?0$0?0$0A@@Eigen@@$0A@@Eigen@@QEBA_JXZ ; Eigen::MapBase<Eigen::Block<Eigen::Matrix<float,-1,-1,0,-1,-1> const ,-1,-1,0>,0>::rows
PUBLIC	?cols@?$MapBase@V?$Block@$$CBV?$Matrix@M$0?0$0?0$0A@$0?0$0?0@Eigen@@$0?0$0?0$0A@@Eigen@@$0A@@Eigen@@QEBA_JXZ ; Eigen::MapBase<Eigen::Block<Eigen::Matrix<float,-1,-1,0,-1,-1> const ,-1,-1,0>,0>::cols
PUBLIC	??0?$MapBase@V?$Block@$$CBV?$Matrix@M$0?0$0?0$0A@$0?0$0?0@Eigen@@$0?0$0?0$0A@@Eigen@@$0A@@Eigen@@QEAA@PEBM_J1@Z ; Eigen::MapBase<Eigen::Block<Eigen::Matrix<float,-1,-1,0,-1,-1> const ,-1,-1,0>,0>::MapBase<Eigen::Block<Eigen::Matrix<float,-1,-1,0,-1,-1> const ,-1,-1,0>,0>
PUBLIC	?init@?$BlockImpl_dense@$$CBV?$Matrix@M$0?0$0?0$0A@$0?0$0?0@Eigen@@$0?0$0?0$0A@$00@internal@Eigen@@IEAAXXZ ; Eigen::internal::BlockImpl_dense<Eigen::Matrix<float,-1,-1,0,-1,-1> const ,-1,-1,0,1>::init
PUBLIC	?innerStride@?$Matrix@M$0?0$0?0$0A@$0?0$0?0@Eigen@@QEBA_JXZ ; Eigen::Matrix<float,-1,-1,0,-1,-1>::innerStride
PUBLIC	??0?$BlockImpl_dense@$$CBV?$Matrix@M$0?0$0?0$0A@$0?0$0?0@Eigen@@$0?0$0?0$0A@$00@internal@Eigen@@QEAA@AEBV?$Matrix@M$0?0$0?0$0A@$0?0$0?0@2@_J111@Z ; Eigen::internal::BlockImpl_dense<Eigen::Matrix<float,-1,-1,0,-1,-1> const ,-1,-1,0,1>::BlockImpl_dense<Eigen::Matrix<float,-1,-1,0,-1,-1> const ,-1,-1,0,1>
PUBLIC	?rows@?$CwiseBinaryOp@U?$scalar_product_op@MM@internal@Eigen@@$$CBV?$Matrix@M$0?0$0?0$0A@$0?0$0?0@3@$$CBV?$Block@$$CBV?$Matrix@M$0?0$0?0$0A@$0?0$0?0@Eigen@@$0?0$0?0$0A@@3@@Eigen@@QEBA_JXZ ; Eigen::CwiseBinaryOp<Eigen::internal::scalar_product_op<float,float>,Eigen::Matrix<float,-1,-1,0,-1,-1> const ,Eigen::Block<Eigen::Matrix<float,-1,-1,0,-1,-1> const ,-1,-1,0> const >::rows
PUBLIC	?cols@?$CwiseBinaryOp@U?$scalar_product_op@MM@internal@Eigen@@$$CBV?$Matrix@M$0?0$0?0$0A@$0?0$0?0@3@$$CBV?$Block@$$CBV?$Matrix@M$0?0$0?0$0A@$0?0$0?0@Eigen@@$0?0$0?0$0A@@3@@Eigen@@QEBA_JXZ ; Eigen::CwiseBinaryOp<Eigen::internal::scalar_product_op<float,float>,Eigen::Matrix<float,-1,-1,0,-1,-1> const ,Eigen::Block<Eigen::Matrix<float,-1,-1,0,-1,-1> const ,-1,-1,0> const >::cols
PUBLIC	??0?$BlockImpl@$$CBV?$Matrix@M$0?0$0?0$0A@$0?0$0?0@Eigen@@$0?0$0?0$0A@UDense@2@@Eigen@@QEAA@AEBV?$Matrix@M$0?0$0?0$0A@$0?0$0?0@1@_J111@Z ; Eigen::BlockImpl<Eigen::Matrix<float,-1,-1,0,-1,-1> const ,-1,-1,0,Eigen::Dense>::BlockImpl<Eigen::Matrix<float,-1,-1,0,-1,-1> const ,-1,-1,0,Eigen::Dense>
PUBLIC	?rows@?$EigenBase@V?$CwiseBinaryOp@U?$scalar_product_op@MM@internal@Eigen@@$$CBV?$Matrix@M$0?0$0?0$0A@$0?0$0?0@3@$$CBV?$Block@$$CBV?$Matrix@M$0?0$0?0$0A@$0?0$0?0@Eigen@@$0?0$0?0$0A@@3@@Eigen@@@Eigen@@QEBA_JXZ ; Eigen::EigenBase<Eigen::CwiseBinaryOp<Eigen::internal::scalar_product_op<float,float>,Eigen::Matrix<float,-1,-1,0,-1,-1> const ,Eigen::Block<Eigen::Matrix<float,-1,-1,0,-1,-1> const ,-1,-1,0> const > >::rows
PUBLIC	?cols@?$EigenBase@V?$CwiseBinaryOp@U?$scalar_product_op@MM@internal@Eigen@@$$CBV?$Matrix@M$0?0$0?0$0A@$0?0$0?0@3@$$CBV?$Block@$$CBV?$Matrix@M$0?0$0?0$0A@$0?0$0?0@Eigen@@$0?0$0?0$0A@@3@@Eigen@@@Eigen@@QEBA_JXZ ; Eigen::EigenBase<Eigen::CwiseBinaryOp<Eigen::internal::scalar_product_op<float,float>,Eigen::Matrix<float,-1,-1,0,-1,-1> const ,Eigen::Block<Eigen::Matrix<float,-1,-1,0,-1,-1> const ,-1,-1,0> const > >::cols
PUBLIC	??0?$DenseBase@V?$CwiseBinaryOp@U?$scalar_product_op@MM@internal@Eigen@@$$CBV?$Matrix@M$0?0$0?0$0A@$0?0$0?0@3@$$CBV?$Block@$$CBV?$Matrix@M$0?0$0?0$0A@$0?0$0?0@Eigen@@$0?0$0?0$0A@@3@@Eigen@@@Eigen@@IEAA@XZ ; Eigen::DenseBase<Eigen::CwiseBinaryOp<Eigen::internal::scalar_product_op<float,float>,Eigen::Matrix<float,-1,-1,0,-1,-1> const ,Eigen::Block<Eigen::Matrix<float,-1,-1,0,-1,-1> const ,-1,-1,0> const > >::DenseBase<Eigen::CwiseBinaryOp<Eigen::internal::scalar_product_op<float,float>,Eigen::Matrix<float,-1,-1,0,-1,-1> const ,Eigen::Block<Eigen::Matrix<float,-1,-1,0,-1,-1> const ,-1,-1,0> const > >
PUBLIC	??0?$MatrixBase@V?$CwiseBinaryOp@U?$scalar_product_op@MM@internal@Eigen@@$$CBV?$Matrix@M$0?0$0?0$0A@$0?0$0?0@3@$$CBV?$Block@$$CBV?$Matrix@M$0?0$0?0$0A@$0?0$0?0@Eigen@@$0?0$0?0$0A@@3@@Eigen@@@Eigen@@IEAA@XZ ; Eigen::MatrixBase<Eigen::CwiseBinaryOp<Eigen::internal::scalar_product_op<float,float>,Eigen::Matrix<float,-1,-1,0,-1,-1> const ,Eigen::Block<Eigen::Matrix<float,-1,-1,0,-1,-1> const ,-1,-1,0> const > >::MatrixBase<Eigen::CwiseBinaryOp<Eigen::internal::scalar_product_op<float,float>,Eigen::Matrix<float,-1,-1,0,-1,-1> const ,Eigen::Block<Eigen::Matrix<float,-1,-1,0,-1,-1> const ,-1,-1,0> const > >
PUBLIC	??0?$CwiseBinaryOpImpl@U?$scalar_product_op@MM@internal@Eigen@@$$CBV?$Matrix@M$0?0$0?0$0A@$0?0$0?0@3@$$CBV?$Block@$$CBV?$Matrix@M$0?0$0?0$0A@$0?0$0?0@Eigen@@$0?0$0?0$0A@@3@UDense@3@@Eigen@@QEAA@XZ ; Eigen::CwiseBinaryOpImpl<Eigen::internal::scalar_product_op<float,float>,Eigen::Matrix<float,-1,-1,0,-1,-1> const ,Eigen::Block<Eigen::Matrix<float,-1,-1,0,-1,-1> const ,-1,-1,0> const ,Eigen::Dense>::CwiseBinaryOpImpl<Eigen::internal::scalar_product_op<float,float>,Eigen::Matrix<float,-1,-1,0,-1,-1> const ,Eigen::Block<Eigen::Matrix<float,-1,-1,0,-1,-1> const ,-1,-1,0> const ,Eigen::Dense>
PUBLIC	??0?$allocator@V?$vector@V?$Matrix@M$0?0$0?0$0A@$0?0$0?0@Eigen@@V?$allocator@V?$Matrix@M$0?0$0?0$0A@$0?0$0?0@Eigen@@@std@@@std@@@std@@QEAA@XZ ; std::allocator<std::vector<Eigen::Matrix<float,-1,-1,0,-1,-1>,std::allocator<Eigen::Matrix<float,-1,-1,0,-1,-1> > > >::allocator<std::vector<Eigen::Matrix<float,-1,-1,0,-1,-1>,std::allocator<Eigen::Matrix<float,-1,-1,0,-1,-1> > > >
PUBLIC	??0?$_Vector_val@U?$_Simple_types@V?$vector@V?$Matrix@M$0?0$0?0$0A@$0?0$0?0@Eigen@@V?$allocator@V?$Matrix@M$0?0$0?0$0A@$0?0$0?0@Eigen@@@std@@@std@@@std@@@std@@QEAA@XZ ; std::_Vector_val<std::_Simple_types<std::vector<Eigen::Matrix<float,-1,-1,0,-1,-1>,std::allocator<Eigen::Matrix<float,-1,-1,0,-1,-1> > > > >::_Vector_val<std::_Simple_types<std::vector<Eigen::Matrix<float,-1,-1,0,-1,-1>,std::allocator<Eigen::Matrix<float,-1,-1,0,-1,-1> > > > >
PUBLIC	?derived@?$EigenBase@V?$Block@$$CBV?$Matrix@M$0?0$0?0$0A@$0?0$0?0@Eigen@@$0?0$0?0$0A@@Eigen@@@Eigen@@QEBAAEBV?$Block@$$CBV?$Matrix@M$0?0$0?0$0A@$0?0$0?0@Eigen@@$0?0$0?0$0A@@2@XZ ; Eigen::EigenBase<Eigen::Block<Eigen::Matrix<float,-1,-1,0,-1,-1> const ,-1,-1,0> >::derived
PUBLIC	??0?$Block@$$CBV?$Matrix@M$0?0$0?0$0A@$0?0$0?0@Eigen@@$0?0$0?0$0A@@Eigen@@QEAA@AEBV?$Matrix@M$0?0$0?0$0A@$0?0$0?0@1@_J111@Z ; Eigen::Block<Eigen::Matrix<float,-1,-1,0,-1,-1> const ,-1,-1,0>::Block<Eigen::Matrix<float,-1,-1,0,-1,-1> const ,-1,-1,0>
PUBLIC	?derived@?$EigenBase@V?$CwiseBinaryOp@U?$scalar_product_op@MM@internal@Eigen@@$$CBV?$Matrix@M$0?0$0?0$0A@$0?0$0?0@3@$$CBV?$Block@$$CBV?$Matrix@M$0?0$0?0$0A@$0?0$0?0@Eigen@@$0?0$0?0$0A@@3@@Eigen@@@Eigen@@QEBAAEBV?$CwiseBinaryOp@U?$scalar_product_op@MM@internal@Eigen@@$$CBV?$Matrix@M$0?0$0?0$0A@$0?0$0?0@3@$$CBV?$Block@$$CBV?$Matrix@M$0?0$0?0$0A@$0?0$0?0@Eigen@@$0?0$0?0$0A@@3@@2@XZ ; Eigen::EigenBase<Eigen::CwiseBinaryOp<Eigen::internal::scalar_product_op<float,float>,Eigen::Matrix<float,-1,-1,0,-1,-1> const ,Eigen::Block<Eigen::Matrix<float,-1,-1,0,-1,-1> const ,-1,-1,0> const > >::derived
PUBLIC	?size@?$EigenBase@V?$CwiseBinaryOp@U?$scalar_product_op@MM@internal@Eigen@@$$CBV?$Matrix@M$0?0$0?0$0A@$0?0$0?0@3@$$CBV?$Block@$$CBV?$Matrix@M$0?0$0?0$0A@$0?0$0?0@Eigen@@$0?0$0?0$0A@@3@@Eigen@@@Eigen@@QEBA_JXZ ; Eigen::EigenBase<Eigen::CwiseBinaryOp<Eigen::internal::scalar_product_op<float,float>,Eigen::Matrix<float,-1,-1,0,-1,-1> const ,Eigen::Block<Eigen::Matrix<float,-1,-1,0,-1,-1> const ,-1,-1,0> const > >::size
PUBLIC	??0?$CwiseBinaryOp@U?$scalar_product_op@MM@internal@Eigen@@$$CBV?$Matrix@M$0?0$0?0$0A@$0?0$0?0@3@$$CBV?$Block@$$CBV?$Matrix@M$0?0$0?0$0A@$0?0$0?0@Eigen@@$0?0$0?0$0A@@3@@Eigen@@QEAA@AEBV?$Matrix@M$0?0$0?0$0A@$0?0$0?0@1@AEBV?$Block@$$CBV?$Matrix@M$0?0$0?0$0A@$0?0$0?0@Eigen@@$0?0$0?0$0A@@1@AEBU?$scalar_product_op@MM@internal@1@@Z ; Eigen::CwiseBinaryOp<Eigen::internal::scalar_product_op<float,float>,Eigen::Matrix<float,-1,-1,0,-1,-1> const ,Eigen::Block<Eigen::Matrix<float,-1,-1,0,-1,-1> const ,-1,-1,0> const >::CwiseBinaryOp<Eigen::internal::scalar_product_op<float,float>,Eigen::Matrix<float,-1,-1,0,-1,-1> const ,Eigen::Block<Eigen::Matrix<float,-1,-1,0,-1,-1> const ,-1,-1,0> const >
PUBLIC	??$ignore_unused_variable@_J@internal@Eigen@@YAXAEB_J@Z ; Eigen::internal::ignore_unused_variable<__int64>
PUBLIC	??$_Destroy_range@V?$allocator@V?$vector@V?$Matrix@M$0?0$0?0$0A@$0?0$0?0@Eigen@@V?$allocator@V?$Matrix@M$0?0$0?0$0A@$0?0$0?0@Eigen@@@std@@@std@@@std@@@std@@YAXPEAV?$vector@V?$Matrix@M$0?0$0?0$0A@$0?0$0?0@Eigen@@V?$allocator@V?$Matrix@M$0?0$0?0$0A@$0?0$0?0@Eigen@@@std@@@0@QEAV10@AEAV?$allocator@V?$vector@V?$Matrix@M$0?0$0?0$0A@$0?0$0?0@Eigen@@V?$allocator@V?$Matrix@M$0?0$0?0$0A@$0?0$0?0@Eigen@@@std@@@std@@@0@@Z ; std::_Destroy_range<std::allocator<std::vector<Eigen::Matrix<float,-1,-1,0,-1,-1>,std::allocator<Eigen::Matrix<float,-1,-1,0,-1,-1> > > > >
PUBLIC	??$_Pocma@V?$allocator@V?$vector@V?$Matrix@M$0?0$0?0$0A@$0?0$0?0@Eigen@@V?$allocator@V?$Matrix@M$0?0$0?0$0A@$0?0$0?0@Eigen@@@std@@@std@@@std@@@std@@YAXAEAV?$allocator@V?$vector@V?$Matrix@M$0?0$0?0$0A@$0?0$0?0@Eigen@@V?$allocator@V?$Matrix@M$0?0$0?0$0A@$0?0$0?0@Eigen@@@std@@@std@@@0@0@Z ; std::_Pocma<std::allocator<std::vector<Eigen::Matrix<float,-1,-1,0,-1,-1>,std::allocator<Eigen::Matrix<float,-1,-1,0,-1,-1> > > > >
PUBLIC	??$_Pocma@V?$allocator@M@std@@@std@@YAXAEAV?$allocator@M@0@0@Z ; std::_Pocma<std::allocator<float> >
PUBLIC	??$?0$$V@?$_Compressed_pair@V?$allocator@V?$vector@V?$Matrix@M$0?0$0?0$0A@$0?0$0?0@Eigen@@V?$allocator@V?$Matrix@M$0?0$0?0$0A@$0?0$0?0@Eigen@@@std@@@std@@@std@@V?$_Vector_val@U?$_Simple_types@V?$vector@V?$Matrix@M$0?0$0?0$0A@$0?0$0?0@Eigen@@V?$allocator@V?$Matrix@M$0?0$0?0$0A@$0?0$0?0@Eigen@@@std@@@std@@@std@@@2@$00@std@@QEAA@U_Zero_then_variadic_args_t@1@@Z ; std::_Compressed_pair<std::allocator<std::vector<Eigen::Matrix<float,-1,-1,0,-1,-1>,std::allocator<Eigen::Matrix<float,-1,-1,0,-1,-1> > > >,std::_Vector_val<std::_Simple_types<std::vector<Eigen::Matrix<float,-1,-1,0,-1,-1>,std::allocator<Eigen::Matrix<float,-1,-1,0,-1,-1> > > > >,1>::_Compressed_pair<std::allocator<std::vector<Eigen::Matrix<float,-1,-1,0,-1,-1>,std::allocator<Eigen::Matrix<float,-1,-1,0,-1,-1> > > >,std::_Vector_val<std::_Simple_types<std::vector<Eigen::Matrix<float,-1,-1,0,-1,-1>,std::allocator<Eigen::Matrix<float,-1,-1,0,-1,-1> > > > >,1><>
PUBLIC	??$addressof@V?$vector@V?$vector@V?$Matrix@M$0?0$0?0$0A@$0?0$0?0@Eigen@@V?$allocator@V?$Matrix@M$0?0$0?0$0A@$0?0$0?0@Eigen@@@std@@@std@@V?$allocator@V?$vector@V?$Matrix@M$0?0$0?0$0A@$0?0$0?0@Eigen@@V?$allocator@V?$Matrix@M$0?0$0?0$0A@$0?0$0?0@Eigen@@@std@@@std@@@2@@std@@@std@@YAPEAV?$vector@V?$vector@V?$Matrix@M$0?0$0?0$0A@$0?0$0?0@Eigen@@V?$allocator@V?$Matrix@M$0?0$0?0$0A@$0?0$0?0@Eigen@@@std@@@std@@V?$allocator@V?$vector@V?$Matrix@M$0?0$0?0$0A@$0?0$0?0@Eigen@@V?$allocator@V?$Matrix@M$0?0$0?0$0A@$0?0$0?0@Eigen@@@std@@@std@@@2@@0@AEAV10@@Z ; std::addressof<std::vector<std::vector<Eigen::Matrix<float,-1,-1,0,-1,-1>,std::allocator<Eigen::Matrix<float,-1,-1,0,-1,-1> > >,std::allocator<std::vector<Eigen::Matrix<float,-1,-1,0,-1,-1>,std::allocator<Eigen::Matrix<float,-1,-1,0,-1,-1> > > > > >
PUBLIC	??$forward@AEAV?$Matrix@M$0?0$0?0$0A@$0?0$0?0@Eigen@@@std@@YAAEAV?$Matrix@M$0?0$0?0$0A@$0?0$0?0@Eigen@@AEAV12@@Z ; std::forward<Eigen::Matrix<float,-1,-1,0,-1,-1> &>
PUBLIC	??$_Ucopy@PEAV?$Matrix@M$0?0$0?0$0A@$0?0$0?0@Eigen@@@?$vector@V?$Matrix@M$0?0$0?0$0A@$0?0$0?0@Eigen@@V?$allocator@V?$Matrix@M$0?0$0?0$0A@$0?0$0?0@Eigen@@@std@@@std@@AEAAPEAV?$Matrix@M$0?0$0?0$0A@$0?0$0?0@Eigen@@PEAV23@00@Z ; std::vector<Eigen::Matrix<float,-1,-1,0,-1,-1>,std::allocator<Eigen::Matrix<float,-1,-1,0,-1,-1> > >::_Ucopy<Eigen::Matrix<float,-1,-1,0,-1,-1> *>
PUBLIC	??$?0V?$allocator@V?$Matrix@M$0?0$0?0$0A@$0?0$0?0@Eigen@@@std@@$$V@?$_Compressed_pair@V?$allocator@V?$Matrix@M$0?0$0?0$0A@$0?0$0?0@Eigen@@@std@@V?$_Vector_val@U?$_Simple_types@V?$Matrix@M$0?0$0?0$0A@$0?0$0?0@Eigen@@@std@@@2@$00@std@@QEAA@U_One_then_variadic_args_t@1@$$QEAV?$allocator@V?$Matrix@M$0?0$0?0$0A@$0?0$0?0@Eigen@@@1@@Z ; std::_Compressed_pair<std::allocator<Eigen::Matrix<float,-1,-1,0,-1,-1> >,std::_Vector_val<std::_Simple_types<Eigen::Matrix<float,-1,-1,0,-1,-1> > >,1>::_Compressed_pair<std::allocator<Eigen::Matrix<float,-1,-1,0,-1,-1> >,std::_Vector_val<std::_Simple_types<Eigen::Matrix<float,-1,-1,0,-1,-1> > >,1><std::allocator<Eigen::Matrix<float,-1,-1,0,-1,-1> > >
PUBLIC	?sum@?$DenseBase@V?$CwiseBinaryOp@U?$scalar_product_op@MM@internal@Eigen@@$$CBV?$Matrix@M$0?0$0?0$0A@$0?0$0?0@3@$$CBV?$Block@$$CBV?$Matrix@M$0?0$0?0$0A@$0?0$0?0@Eigen@@$0?0$0?0$0A@@3@@Eigen@@@Eigen@@QEBAMXZ ; Eigen::DenseBase<Eigen::CwiseBinaryOp<Eigen::internal::scalar_product_op<float,float>,Eigen::Matrix<float,-1,-1,0,-1,-1> const ,Eigen::Block<Eigen::Matrix<float,-1,-1,0,-1,-1> const ,-1,-1,0> const > >::sum
PUBLIC	??$cwiseProduct@V?$Block@$$CBV?$Matrix@M$0?0$0?0$0A@$0?0$0?0@Eigen@@$0?0$0?0$0A@@Eigen@@@?$MatrixBase@V?$Matrix@M$0?0$0?0$0A@$0?0$0?0@Eigen@@@Eigen@@QEBA?BV?$CwiseBinaryOp@U?$scalar_product_op@MM@internal@Eigen@@$$CBV?$Matrix@M$0?0$0?0$0A@$0?0$0?0@3@$$CBV?$Block@$$CBV?$Matrix@M$0?0$0?0$0A@$0?0$0?0@Eigen@@$0?0$0?0$0A@@3@@1@AEBV?$MatrixBase@V?$Block@$$CBV?$Matrix@M$0?0$0?0$0A@$0?0$0?0@Eigen@@$0?0$0?0$0A@@Eigen@@@1@@Z ; Eigen::MatrixBase<Eigen::Matrix<float,-1,-1,0,-1,-1> >::cwiseProduct<Eigen::Block<Eigen::Matrix<float,-1,-1,0,-1,-1> const ,-1,-1,0> >
PUBLIC	??$block@HH@?$DenseBase@V?$Matrix@M$0?0$0?0$0A@$0?0$0?0@Eigen@@@Eigen@@QEBA?BV?$Block@$$CBV?$Matrix@M$0?0$0?0$0A@$0?0$0?0@Eigen@@$0?0$0?0$0A@@1@_J0HH@Z ; Eigen::DenseBase<Eigen::Matrix<float,-1,-1,0,-1,-1> >::block<int,int>
PUBLIC	??$move@AEAV?$vector@MV?$allocator@M@std@@@std@@@std@@YA$$QEAV?$vector@MV?$allocator@M@std@@@0@AEAV10@@Z ; std::move<std::vector<float,std::allocator<float> > &>
PUBLIC	??$move@AEAV?$vector@V?$vector@V?$Matrix@M$0?0$0?0$0A@$0?0$0?0@Eigen@@V?$allocator@V?$Matrix@M$0?0$0?0$0A@$0?0$0?0@Eigen@@@std@@@std@@V?$allocator@V?$vector@V?$Matrix@M$0?0$0?0$0A@$0?0$0?0@Eigen@@V?$allocator@V?$Matrix@M$0?0$0?0$0A@$0?0$0?0@Eigen@@@std@@@std@@@2@@std@@@std@@YA$$QEAV?$vector@V?$vector@V?$Matrix@M$0?0$0?0$0A@$0?0$0?0@Eigen@@V?$allocator@V?$Matrix@M$0?0$0?0$0A@$0?0$0?0@Eigen@@@std@@@std@@V?$allocator@V?$vector@V?$Matrix@M$0?0$0?0$0A@$0?0$0?0@Eigen@@V?$allocator@V?$Matrix@M$0?0$0?0$0A@$0?0$0?0@Eigen@@@std@@@std@@@2@@0@AEAV10@@Z ; std::move<std::vector<std::vector<Eigen::Matrix<float,-1,-1,0,-1,-1>,std::allocator<Eigen::Matrix<float,-1,-1,0,-1,-1> > >,std::allocator<std::vector<Eigen::Matrix<float,-1,-1,0,-1,-1>,std::allocator<Eigen::Matrix<float,-1,-1,0,-1,-1> > > > > &>
PUBLIC	??0?$variable_if_dynamic@_J$00@internal@Eigen@@QEAA@_J@Z ; Eigen::internal::variable_if_dynamic<__int64,1>::variable_if_dynamic<__int64,1>
PUBLIC	?_Get_first@?$_Compressed_pair@V?$allocator@V?$vector@V?$Matrix@M$0?0$0?0$0A@$0?0$0?0@Eigen@@V?$allocator@V?$Matrix@M$0?0$0?0$0A@$0?0$0?0@Eigen@@@std@@@std@@@std@@V?$_Vector_val@U?$_Simple_types@V?$vector@V?$Matrix@M$0?0$0?0$0A@$0?0$0?0@Eigen@@V?$allocator@V?$Matrix@M$0?0$0?0$0A@$0?0$0?0@Eigen@@@std@@@std@@@std@@@2@$00@std@@QEAAAEAV?$allocator@V?$vector@V?$Matrix@M$0?0$0?0$0A@$0?0$0?0@Eigen@@V?$allocator@V?$Matrix@M$0?0$0?0$0A@$0?0$0?0@Eigen@@@std@@@std@@@2@XZ ; std::_Compressed_pair<std::allocator<std::vector<Eigen::Matrix<float,-1,-1,0,-1,-1>,std::allocator<Eigen::Matrix<float,-1,-1,0,-1,-1> > > >,std::_Vector_val<std::_Simple_types<std::vector<Eigen::Matrix<float,-1,-1,0,-1,-1>,std::allocator<Eigen::Matrix<float,-1,-1,0,-1,-1> > > > >,1>::_Get_first
PUBLIC	?deallocate@?$allocator@V?$vector@V?$Matrix@M$0?0$0?0$0A@$0?0$0?0@Eigen@@V?$allocator@V?$Matrix@M$0?0$0?0$0A@$0?0$0?0@Eigen@@@std@@@std@@@std@@QEAAXQEAV?$vector@V?$Matrix@M$0?0$0?0$0A@$0?0$0?0@Eigen@@V?$allocator@V?$Matrix@M$0?0$0?0$0A@$0?0$0?0@Eigen@@@std@@@2@_K@Z ; std::allocator<std::vector<Eigen::Matrix<float,-1,-1,0,-1,-1>,std::allocator<Eigen::Matrix<float,-1,-1,0,-1,-1> > > >::deallocate
PUBLIC	?_Destroy@?$vector@V?$vector@V?$Matrix@M$0?0$0?0$0A@$0?0$0?0@Eigen@@V?$allocator@V?$Matrix@M$0?0$0?0$0A@$0?0$0?0@Eigen@@@std@@@std@@V?$allocator@V?$vector@V?$Matrix@M$0?0$0?0$0A@$0?0$0?0@Eigen@@V?$allocator@V?$Matrix@M$0?0$0?0$0A@$0?0$0?0@Eigen@@@std@@@std@@@2@@std@@AEAAXPEAV?$vector@V?$Matrix@M$0?0$0?0$0A@$0?0$0?0@Eigen@@V?$allocator@V?$Matrix@M$0?0$0?0$0A@$0?0$0?0@Eigen@@@std@@@2@0@Z ; std::vector<std::vector<Eigen::Matrix<float,-1,-1,0,-1,-1>,std::allocator<Eigen::Matrix<float,-1,-1,0,-1,-1> > >,std::allocator<std::vector<Eigen::Matrix<float,-1,-1,0,-1,-1>,std::allocator<Eigen::Matrix<float,-1,-1,0,-1,-1> > > > >::_Destroy
PUBLIC	?_Getal@?$vector@V?$vector@V?$Matrix@M$0?0$0?0$0A@$0?0$0?0@Eigen@@V?$allocator@V?$Matrix@M$0?0$0?0$0A@$0?0$0?0@Eigen@@@std@@@std@@V?$allocator@V?$vector@V?$Matrix@M$0?0$0?0$0A@$0?0$0?0@Eigen@@V?$allocator@V?$Matrix@M$0?0$0?0$0A@$0?0$0?0@Eigen@@@std@@@std@@@2@@std@@AEAAAEAV?$allocator@V?$vector@V?$Matrix@M$0?0$0?0$0A@$0?0$0?0@Eigen@@V?$allocator@V?$Matrix@M$0?0$0?0$0A@$0?0$0?0@Eigen@@@std@@@std@@@2@XZ ; std::vector<std::vector<Eigen::Matrix<float,-1,-1,0,-1,-1>,std::allocator<Eigen::Matrix<float,-1,-1,0,-1,-1> > >,std::allocator<std::vector<Eigen::Matrix<float,-1,-1,0,-1,-1>,std::allocator<Eigen::Matrix<float,-1,-1,0,-1,-1> > > > >::_Getal
PUBLIC	?_Take_contents@?$_Vector_val@U?$_Simple_types@V?$vector@V?$Matrix@M$0?0$0?0$0A@$0?0$0?0@Eigen@@V?$allocator@V?$Matrix@M$0?0$0?0$0A@$0?0$0?0@Eigen@@@std@@@std@@@std@@@std@@QEAAXAEAV12@@Z ; std::_Vector_val<std::_Simple_types<std::vector<Eigen::Matrix<float,-1,-1,0,-1,-1>,std::allocator<Eigen::Matrix<float,-1,-1,0,-1,-1> > > > >::_Take_contents
PUBLIC	?_Take_contents@?$_Vector_val@U?$_Simple_types@M@std@@@std@@QEAAXAEAV12@@Z ; std::_Vector_val<std::_Simple_types<float> >::_Take_contents
PUBLIC	?_Local@?$_Func_class@XAEAV?$Matrix@M$0?0$0?0$0A@$0?0$0?0@Eigen@@@std@@AEBA_NXZ ; std::_Func_class<void,Eigen::Matrix<float,-1,-1,0,-1,-1> &>::_Local
PUBLIC	?_Set@?$_Func_class@XAEAV?$Matrix@M$0?0$0?0$0A@$0?0$0?0@Eigen@@@std@@AEAAXPEAV?$_Func_base@XAEAV?$Matrix@M$0?0$0?0$0A@$0?0$0?0@Eigen@@@2@@Z ; std::_Func_class<void,Eigen::Matrix<float,-1,-1,0,-1,-1> &>::_Set
PUBLIC	?value@?$variable_if_dynamic@_J$00@internal@Eigen@@SA_JXZ ; Eigen::internal::variable_if_dynamic<__int64,1>::value
PUBLIC	?_Move_assign@?$vector@V?$vector@V?$Matrix@M$0?0$0?0$0A@$0?0$0?0@Eigen@@V?$allocator@V?$Matrix@M$0?0$0?0$0A@$0?0$0?0@Eigen@@@std@@@std@@V?$allocator@V?$vector@V?$Matrix@M$0?0$0?0$0A@$0?0$0?0@Eigen@@V?$allocator@V?$Matrix@M$0?0$0?0$0A@$0?0$0?0@Eigen@@@std@@@std@@@2@@std@@AEAAXAEAV12@U_Equal_allocators@2@@Z ; std::vector<std::vector<Eigen::Matrix<float,-1,-1,0,-1,-1>,std::allocator<Eigen::Matrix<float,-1,-1,0,-1,-1> > >,std::allocator<std::vector<Eigen::Matrix<float,-1,-1,0,-1,-1>,std::allocator<Eigen::Matrix<float,-1,-1,0,-1,-1> > > > >::_Move_assign
PUBLIC	?_Tidy@?$vector@V?$vector@V?$Matrix@M$0?0$0?0$0A@$0?0$0?0@Eigen@@V?$allocator@V?$Matrix@M$0?0$0?0$0A@$0?0$0?0@Eigen@@@std@@@std@@V?$allocator@V?$vector@V?$Matrix@M$0?0$0?0$0A@$0?0$0?0@Eigen@@V?$allocator@V?$Matrix@M$0?0$0?0$0A@$0?0$0?0@Eigen@@@std@@@std@@@2@@std@@AEAAXXZ ; std::vector<std::vector<Eigen::Matrix<float,-1,-1,0,-1,-1>,std::allocator<Eigen::Matrix<float,-1,-1,0,-1,-1> > >,std::allocator<std::vector<Eigen::Matrix<float,-1,-1,0,-1,-1>,std::allocator<Eigen::Matrix<float,-1,-1,0,-1,-1> > > > >::_Tidy
PUBLIC	?_Move_assign@?$vector@MV?$allocator@M@std@@@std@@AEAAXAEAV12@U_Equal_allocators@2@@Z ; std::vector<float,std::allocator<float> >::_Move_assign
PUBLIC	??0?$_Func_class@XAEAV?$Matrix@M$0?0$0?0$0A@$0?0$0?0@Eigen@@@std@@QEAA@XZ ; std::_Func_class<void,Eigen::Matrix<float,-1,-1,0,-1,-1> &>::_Func_class<void,Eigen::Matrix<float,-1,-1,0,-1,-1> &>
PUBLIC	?_Empty@?$_Func_class@XAEAV?$Matrix@M$0?0$0?0$0A@$0?0$0?0@Eigen@@@std@@IEBA_NXZ ; std::_Func_class<void,Eigen::Matrix<float,-1,-1,0,-1,-1> &>::_Empty
PUBLIC	?_Reset_copy@?$_Func_class@XAEAV?$Matrix@M$0?0$0?0$0A@$0?0$0?0@Eigen@@@std@@IEAAXAEBV12@@Z ; std::_Func_class<void,Eigen::Matrix<float,-1,-1,0,-1,-1> &>::_Reset_copy
PUBLIC	?_Tidy@?$_Func_class@XAEAV?$Matrix@M$0?0$0?0$0A@$0?0$0?0@Eigen@@@std@@IEAAXXZ ; std::_Func_class<void,Eigen::Matrix<float,-1,-1,0,-1,-1> &>::_Tidy
PUBLIC	?_Getimpl@?$_Func_class@XAEAV?$Matrix@M$0?0$0?0$0A@$0?0$0?0@Eigen@@@std@@AEBAPEAV?$_Func_base@XAEAV?$Matrix@M$0?0$0?0$0A@$0?0$0?0@Eigen@@@2@XZ ; std::_Func_class<void,Eigen::Matrix<float,-1,-1,0,-1,-1> &>::_Getimpl
PUBLIC	?select_on_container_copy_construction@?$_Default_allocator_traits@V?$allocator@V?$Matrix@M$0?0$0?0$0A@$0?0$0?0@Eigen@@@std@@@std@@SA?AV?$allocator@V?$Matrix@M$0?0$0?0$0A@$0?0$0?0@Eigen@@@2@AEBV32@@Z ; std::_Default_allocator_traits<std::allocator<Eigen::Matrix<float,-1,-1,0,-1,-1> > >::select_on_container_copy_construction
PUBLIC	?_Buy_raw@?$vector@V?$Matrix@M$0?0$0?0$0A@$0?0$0?0@Eigen@@V?$allocator@V?$Matrix@M$0?0$0?0$0A@$0?0$0?0@Eigen@@@std@@@std@@AEAAX_K@Z ; std::vector<Eigen::Matrix<float,-1,-1,0,-1,-1>,std::allocator<Eigen::Matrix<float,-1,-1,0,-1,-1> > >::_Buy_raw
PUBLIC	??1?$_Tidy_guard@V?$vector@V?$Matrix@M$0?0$0?0$0A@$0?0$0?0@Eigen@@V?$allocator@V?$Matrix@M$0?0$0?0$0A@$0?0$0?0@Eigen@@@std@@@std@@@std@@QEAA@XZ ; std::_Tidy_guard<std::vector<Eigen::Matrix<float,-1,-1,0,-1,-1>,std::allocator<Eigen::Matrix<float,-1,-1,0,-1,-1> > > >::~_Tidy_guard<std::vector<Eigen::Matrix<float,-1,-1,0,-1,-1>,std::allocator<Eigen::Matrix<float,-1,-1,0,-1,-1> > > >
PUBLIC	??0?$vector@V?$vector@V?$Matrix@M$0?0$0?0$0A@$0?0$0?0@Eigen@@V?$allocator@V?$Matrix@M$0?0$0?0$0A@$0?0$0?0@Eigen@@@std@@@std@@V?$allocator@V?$vector@V?$Matrix@M$0?0$0?0$0A@$0?0$0?0@Eigen@@V?$allocator@V?$Matrix@M$0?0$0?0$0A@$0?0$0?0@Eigen@@@std@@@std@@@2@@std@@QEAA@XZ ; std::vector<std::vector<Eigen::Matrix<float,-1,-1,0,-1,-1>,std::allocator<Eigen::Matrix<float,-1,-1,0,-1,-1> > >,std::allocator<std::vector<Eigen::Matrix<float,-1,-1,0,-1,-1>,std::allocator<Eigen::Matrix<float,-1,-1,0,-1,-1> > > > >::vector<std::vector<Eigen::Matrix<float,-1,-1,0,-1,-1>,std::allocator<Eigen::Matrix<float,-1,-1,0,-1,-1> > >,std::allocator<std::vector<Eigen::Matrix<float,-1,-1,0,-1,-1>,std::allocator<Eigen::Matrix<float,-1,-1,0,-1,-1> > > > >
PUBLIC	??4?$vector@V?$vector@V?$Matrix@M$0?0$0?0$0A@$0?0$0?0@Eigen@@V?$allocator@V?$Matrix@M$0?0$0?0$0A@$0?0$0?0@Eigen@@@std@@@std@@V?$allocator@V?$vector@V?$Matrix@M$0?0$0?0$0A@$0?0$0?0@Eigen@@V?$allocator@V?$Matrix@M$0?0$0?0$0A@$0?0$0?0@Eigen@@@std@@@std@@@2@@std@@QEAAAEAV01@$$QEAV01@@Z ; std::vector<std::vector<Eigen::Matrix<float,-1,-1,0,-1,-1>,std::allocator<Eigen::Matrix<float,-1,-1,0,-1,-1> > >,std::allocator<std::vector<Eigen::Matrix<float,-1,-1,0,-1,-1>,std::allocator<Eigen::Matrix<float,-1,-1,0,-1,-1> > > > >::operator=
PUBLIC	??1?$vector@V?$vector@V?$Matrix@M$0?0$0?0$0A@$0?0$0?0@Eigen@@V?$allocator@V?$Matrix@M$0?0$0?0$0A@$0?0$0?0@Eigen@@@std@@@std@@V?$allocator@V?$vector@V?$Matrix@M$0?0$0?0$0A@$0?0$0?0@Eigen@@V?$allocator@V?$Matrix@M$0?0$0?0$0A@$0?0$0?0@Eigen@@@std@@@std@@@2@@std@@QEAA@XZ ; std::vector<std::vector<Eigen::Matrix<float,-1,-1,0,-1,-1>,std::allocator<Eigen::Matrix<float,-1,-1,0,-1,-1> > >,std::allocator<std::vector<Eigen::Matrix<float,-1,-1,0,-1,-1>,std::allocator<Eigen::Matrix<float,-1,-1,0,-1,-1> > > > >::~vector<std::vector<Eigen::Matrix<float,-1,-1,0,-1,-1>,std::allocator<Eigen::Matrix<float,-1,-1,0,-1,-1> > >,std::allocator<std::vector<Eigen::Matrix<float,-1,-1,0,-1,-1>,std::allocator<Eigen::Matrix<float,-1,-1,0,-1,-1> > > > >
PUBLIC	?_Unchecked_begin@?$vector@V?$vector@V?$Matrix@M$0?0$0?0$0A@$0?0$0?0@Eigen@@V?$allocator@V?$Matrix@M$0?0$0?0$0A@$0?0$0?0@Eigen@@@std@@@std@@V?$allocator@V?$vector@V?$Matrix@M$0?0$0?0$0A@$0?0$0?0@Eigen@@V?$allocator@V?$Matrix@M$0?0$0?0$0A@$0?0$0?0@Eigen@@@std@@@std@@@2@@std@@QEAAPEAV?$vector@V?$Matrix@M$0?0$0?0$0A@$0?0$0?0@Eigen@@V?$allocator@V?$Matrix@M$0?0$0?0$0A@$0?0$0?0@Eigen@@@std@@@2@XZ ; std::vector<std::vector<Eigen::Matrix<float,-1,-1,0,-1,-1>,std::allocator<Eigen::Matrix<float,-1,-1,0,-1,-1> > >,std::allocator<std::vector<Eigen::Matrix<float,-1,-1,0,-1,-1>,std::allocator<Eigen::Matrix<float,-1,-1,0,-1,-1> > > > >::_Unchecked_begin
PUBLIC	?_Unchecked_end@?$vector@V?$vector@V?$Matrix@M$0?0$0?0$0A@$0?0$0?0@Eigen@@V?$allocator@V?$Matrix@M$0?0$0?0$0A@$0?0$0?0@Eigen@@@std@@@std@@V?$allocator@V?$vector@V?$Matrix@M$0?0$0?0$0A@$0?0$0?0@Eigen@@V?$allocator@V?$Matrix@M$0?0$0?0$0A@$0?0$0?0@Eigen@@@std@@@std@@@2@@std@@QEAAPEAV?$vector@V?$Matrix@M$0?0$0?0$0A@$0?0$0?0@Eigen@@V?$allocator@V?$Matrix@M$0?0$0?0$0A@$0?0$0?0@Eigen@@@std@@@2@XZ ; std::vector<std::vector<Eigen::Matrix<float,-1,-1,0,-1,-1>,std::allocator<Eigen::Matrix<float,-1,-1,0,-1,-1> > >,std::allocator<std::vector<Eigen::Matrix<float,-1,-1,0,-1,-1>,std::allocator<Eigen::Matrix<float,-1,-1,0,-1,-1> > > > >::_Unchecked_end
PUBLIC	?size@?$vector@V?$vector@V?$Matrix@M$0?0$0?0$0A@$0?0$0?0@Eigen@@V?$allocator@V?$Matrix@M$0?0$0?0$0A@$0?0$0?0@Eigen@@@std@@@std@@V?$allocator@V?$vector@V?$Matrix@M$0?0$0?0$0A@$0?0$0?0@Eigen@@V?$allocator@V?$Matrix@M$0?0$0?0$0A@$0?0$0?0@Eigen@@@std@@@std@@@2@@std@@QEBA_KXZ ; std::vector<std::vector<Eigen::Matrix<float,-1,-1,0,-1,-1>,std::allocator<Eigen::Matrix<float,-1,-1,0,-1,-1> > >,std::allocator<std::vector<Eigen::Matrix<float,-1,-1,0,-1,-1>,std::allocator<Eigen::Matrix<float,-1,-1,0,-1,-1> > > > >::size
PUBLIC	??A?$vector@V?$vector@V?$Matrix@M$0?0$0?0$0A@$0?0$0?0@Eigen@@V?$allocator@V?$Matrix@M$0?0$0?0$0A@$0?0$0?0@Eigen@@@std@@@std@@V?$allocator@V?$vector@V?$Matrix@M$0?0$0?0$0A@$0?0$0?0@Eigen@@V?$allocator@V?$Matrix@M$0?0$0?0$0A@$0?0$0?0@Eigen@@@std@@@std@@@2@@std@@QEAAAEAV?$vector@V?$Matrix@M$0?0$0?0$0A@$0?0$0?0@Eigen@@V?$allocator@V?$Matrix@M$0?0$0?0$0A@$0?0$0?0@Eigen@@@std@@@1@_K@Z ; std::vector<std::vector<Eigen::Matrix<float,-1,-1,0,-1,-1>,std::allocator<Eigen::Matrix<float,-1,-1,0,-1,-1> > >,std::allocator<std::vector<Eigen::Matrix<float,-1,-1,0,-1,-1>,std::allocator<Eigen::Matrix<float,-1,-1,0,-1,-1> > > > >::operator[]
PUBLIC	??4?$vector@MV?$allocator@M@std@@@std@@QEAAAEAV01@$$QEAV01@@Z ; std::vector<float,std::allocator<float> >::operator=
PUBLIC	?_Unchecked_begin@?$vector@MV?$allocator@M@std@@@std@@QEAAPEAMXZ ; std::vector<float,std::allocator<float> >::_Unchecked_begin
PUBLIC	?_Unchecked_end@?$vector@MV?$allocator@M@std@@@std@@QEAAPEAMXZ ; std::vector<float,std::allocator<float> >::_Unchecked_end
PUBLIC	??R?$_Func_class@XAEAV?$Matrix@M$0?0$0?0$0A@$0?0$0?0@Eigen@@@std@@QEBAXAEAV?$Matrix@M$0?0$0?0$0A@$0?0$0?0@Eigen@@@Z ; std::_Func_class<void,Eigen::Matrix<float,-1,-1,0,-1,-1> &>::operator()
PUBLIC	??1?$_Func_class@XAEAV?$Matrix@M$0?0$0?0$0A@$0?0$0?0@Eigen@@@std@@QEAA@XZ ; std::_Func_class<void,Eigen::Matrix<float,-1,-1,0,-1,-1> &>::~_Func_class<void,Eigen::Matrix<float,-1,-1,0,-1,-1> &>
PUBLIC	??0?$function@$$A6AXAEAV?$Matrix@M$0?0$0?0$0A@$0?0$0?0@Eigen@@@Z@std@@QEAA@AEBV01@@Z ; std::function<void __cdecl(Eigen::Matrix<float,-1,-1,0,-1,-1> &)>::function<void __cdecl(Eigen::Matrix<float,-1,-1,0,-1,-1> &)>
PUBLIC	??0?$vector@V?$Matrix@M$0?0$0?0$0A@$0?0$0?0@Eigen@@V?$allocator@V?$Matrix@M$0?0$0?0$0A@$0?0$0?0@Eigen@@@std@@@std@@QEAA@AEBV01@@Z ; std::vector<Eigen::Matrix<float,-1,-1,0,-1,-1>,std::allocator<Eigen::Matrix<float,-1,-1,0,-1,-1> > >::vector<Eigen::Matrix<float,-1,-1,0,-1,-1>,std::allocator<Eigen::Matrix<float,-1,-1,0,-1,-1> > >
PUBLIC	?_Unchecked_begin@?$vector@V?$Matrix@M$0?0$0?0$0A@$0?0$0?0@Eigen@@V?$allocator@V?$Matrix@M$0?0$0?0$0A@$0?0$0?0@Eigen@@@std@@@std@@QEAAPEAV?$Matrix@M$0?0$0?0$0A@$0?0$0?0@Eigen@@XZ ; std::vector<Eigen::Matrix<float,-1,-1,0,-1,-1>,std::allocator<Eigen::Matrix<float,-1,-1,0,-1,-1> > >::_Unchecked_begin
PUBLIC	?_Unchecked_end@?$vector@V?$Matrix@M$0?0$0?0$0A@$0?0$0?0@Eigen@@V?$allocator@V?$Matrix@M$0?0$0?0$0A@$0?0$0?0@Eigen@@@std@@@std@@QEAAPEAV?$Matrix@M$0?0$0?0$0A@$0?0$0?0@Eigen@@XZ ; std::vector<Eigen::Matrix<float,-1,-1,0,-1,-1>,std::allocator<Eigen::Matrix<float,-1,-1,0,-1,-1> > >::_Unchecked_end
PUBLIC	?forward@ConvLayer@@UEAAAEBV?$Matrix@M$0?0$0?0$0A@$0?0$0?0@Eigen@@AEBV23@@Z ; ConvLayer::forward
PUBLIC	??0Layer@@QEAA@XZ				; Layer::Layer
PUBLIC	??0ConvLayer@@QEAA@AEAV?$vector@V?$vector@V?$Matrix@M$0?0$0?0$0A@$0?0$0?0@Eigen@@V?$allocator@V?$Matrix@M$0?0$0?0$0A@$0?0$0?0@Eigen@@@std@@@std@@V?$allocator@V?$vector@V?$Matrix@M$0?0$0?0$0A@$0?0$0?0@Eigen@@V?$allocator@V?$Matrix@M$0?0$0?0$0A@$0?0$0?0@Eigen@@@std@@@std@@@2@@std@@AEAV?$vector@MV?$allocator@M@std@@@2@HHV?$function@$$A6AXAEAV?$Matrix@M$0?0$0?0$0A@$0?0$0?0@Eigen@@@Z@2@@Z ; ConvLayer::ConvLayer
PUBLIC	?__autoclassinit2@?$vector@V?$Matrix@M$0?0$0?0$0A@$0?0$0?0@Eigen@@V?$allocator@V?$Matrix@M$0?0$0?0$0A@$0?0$0?0@Eigen@@@std@@@std@@QEAAX_K@Z ; std::vector<Eigen::Matrix<float,-1,-1,0,-1,-1>,std::allocator<Eigen::Matrix<float,-1,-1,0,-1,-1> > >::__autoclassinit2
PUBLIC	??1?$function@$$A6AXAEAV?$Matrix@M$0?0$0?0$0A@$0?0$0?0@Eigen@@@Z@std@@QEAA@XZ ; std::function<void __cdecl(Eigen::Matrix<float,-1,-1,0,-1,-1> &)>::~function<void __cdecl(Eigen::Matrix<float,-1,-1,0,-1,-1> &)>
PUBLIC	?layerType@ConvLayer@@UEAADXZ			; ConvLayer::layerType
PUBLIC	?printWeights@ConvLayer@@UEAAXXZ		; ConvLayer::printWeights
PUBLIC	??$predux@T__m128@@@internal@Eigen@@YAMAEBT__m128@@@Z ; Eigen::internal::predux<__m128>
PUBLIC	??$pfirst@T__m128@@@internal@Eigen@@YAMAEBT__m128@@@Z ; Eigen::internal::pfirst<__m128>
PUBLIC	??$ploadu@T__m128@@@internal@Eigen@@YA?AT__m128@@PEBM@Z ; Eigen::internal::ploadu<__m128>
PUBLIC	??$pload@T__m128@@@internal@Eigen@@YA?AT__m128@@PEBM@Z ; Eigen::internal::pload<__m128>
PUBLIC	??$pmul@T__m128@@@internal@Eigen@@YA?AT__m128@@AEBT2@0@Z ; Eigen::internal::pmul<__m128>
PUBLIC	??$padd@T__m128@@@internal@Eigen@@YA?AT__m128@@AEBT2@0@Z ; Eigen::internal::padd<__m128>
?lastp1@Eigen@@3V?$AddExpr@V?$SymbolExpr@Usymbolic_last_tag@internal@Eigen@@@symbolic@Eigen@@V?$ValueExpr@V?$FixedInt@$00@internal@Eigen@@@23@@symbolic@1@B DW 01H DUP (?) ; Eigen::lastp1
	ALIGN	4

?end@placeholders@Eigen@@3V?$AddExpr@V?$SymbolExpr@Usymbolic_last_tag@internal@Eigen@@@symbolic@Eigen@@V?$ValueExpr@V?$FixedInt@$00@internal@Eigen@@@23@@symbolic@2@B DW 01H DUP (?) ; Eigen::placeholders::end
_BSS	ENDS
;	COMDAT pdata
pdata	SEGMENT
$pdata$??$construct@V?$Matrix@M$0?0$0?0$0A@$0?0$0?0@Eigen@@AEAV12@@?$_Default_allocator_traits@V?$allocator@V?$Matrix@M$0?0$0?0$0A@$0?0$0?0@Eigen@@@std@@@std@@SAXAEAV?$allocator@V?$Matrix@M$0?0$0?0$0A@$0?0$0?0@Eigen@@@1@QEAV?$Matrix@M$0?0$0?0$0A@$0?0$0?0@Eigen@@AEAV34@@Z DD imagerel $LN18@construct
	DD	imagerel $LN18@construct+89
	DD	imagerel $unwind$??$construct@V?$Matrix@M$0?0$0?0$0A@$0?0$0?0@Eigen@@AEAV12@@?$_Default_allocator_traits@V?$allocator@V?$Matrix@M$0?0$0?0$0A@$0?0$0?0@Eigen@@@std@@@std@@SAXAEAV?$allocator@V?$Matrix@M$0?0$0?0$0A@$0?0$0?0@Eigen@@@1@QEAV?$Matrix@M$0?0$0?0$0A@$0?0$0?0@Eigen@@AEAV34@@Z
pdata	ENDS
;	COMDAT pdata
pdata	SEGMENT
$pdata$??$run@V?$CwiseBinaryOp@U?$scalar_product_op@MM@internal@Eigen@@$$CBV?$Matrix@M$0?0$0?0$0A@$0?0$0?0@3@$$CBV?$Block@$$CBV?$Matrix@M$0?0$0?0$0A@$0?0$0?0@Eigen@@$0?0$0?0$0A@@3@@Eigen@@@?$redux_impl@U?$scalar_sum_op@MM@internal@Eigen@@V?$redux_evaluator@V?$CwiseBinaryOp@U?$scalar_product_op@MM@internal@Eigen@@$$CBV?$Matrix@M$0?0$0?0$0A@$0?0$0?0@3@$$CBV?$Block@$$CBV?$Matrix@M$0?0$0?0$0A@$0?0$0?0@Eigen@@$0?0$0?0$0A@@3@@Eigen@@@23@$0A@$0A@@internal@Eigen@@SAMAEBV?$redux_evaluator@V?$CwiseBinaryOp@U?$scalar_product_op@MM@internal@Eigen@@$$CBV?$Matrix@M$0?0$0?0$0A@$0?0$0?0@3@$$CBV?$Block@$$CBV?$Matrix@M$0?0$0?0$0A@$0?0$0?0@Eigen@@$0?0$0?0$0A@@3@@Eigen@@@12@AEBU?$scalar_sum_op@MM@12@AEBV?$CwiseBinaryOp@U?$scalar_product_op@MM@internal@Eigen@@$$CBV?$Matrix@M$0?0$0?0$0A@$0?0$0?0@3@$$CBV?$Block@$$CBV?$Matrix@M$0?0$0?0$0A@$0?0$0?0@Eigen@@$0?0$0?0$0A@@3@@2@@Z DD imagerel $LN102@run
	DD	imagerel $LN102@run+461
	DD	imagerel $unwind$??$run@V?$CwiseBinaryOp@U?$scalar_product_op@MM@internal@Eigen@@$$CBV?$Matrix@M$0?0$0?0$0A@$0?0$0?0@3@$$CBV?$Block@$$CBV?$Matrix@M$0?0$0?0$0A@$0?0$0?0@Eigen@@$0?0$0?0$0A@@3@@Eigen@@@?$redux_impl@U?$scalar_sum_op@MM@internal@Eigen@@V?$redux_evaluator@V?$CwiseBinaryOp@U?$scalar_product_op@MM@internal@Eigen@@$$CBV?$Matrix@M$0?0$0?0$0A@$0?0$0?0@3@$$CBV?$Block@$$CBV?$Matrix@M$0?0$0?0$0A@$0?0$0?0@Eigen@@$0?0$0?0$0A@@3@@Eigen@@@23@$0A@$0A@@internal@Eigen@@SAMAEBV?$redux_evaluator@V?$CwiseBinaryOp@U?$scalar_product_op@MM@internal@Eigen@@$$CBV?$Matrix@M$0?0$0?0$0A@$0?0$0?0@3@$$CBV?$Block@$$CBV?$Matrix@M$0?0$0?0$0A@$0?0$0?0@Eigen@@$0?0$0?0$0A@@3@@Eigen@@@12@AEBU?$scalar_sum_op@MM@12@AEBV?$CwiseBinaryOp@U?$scalar_product_op@MM@internal@Eigen@@$$CBV?$Matrix@M$0?0$0?0$0A@$0?0$0?0@3@$$CBV?$Block@$$CBV?$Matrix@M$0?0$0?0$0A@$0?0$0?0@Eigen@@$0?0$0?0$0A@@3@@2@@Z
pdata	ENDS
;	COMDAT pdata
pdata	SEGMENT
$pdata$??$packetByOuterInner@$0A@T__m128@@@?$redux_evaluator@V?$CwiseBinaryOp@U?$scalar_product_op@MM@internal@Eigen@@$$CBV?$Matrix@M$0?0$0?0$0A@$0?0$0?0@3@$$CBV?$Block@$$CBV?$Matrix@M$0?0$0?0$0A@$0?0$0?0@Eigen@@$0?0$0?0$0A@@3@@Eigen@@@internal@Eigen@@QEBA?AT__m128@@_J0@Z DD imagerel $LN20@packetByOu
	DD	imagerel $LN20@packetByOu+59
	DD	imagerel $unwind$??$packetByOuterInner@$0A@T__m128@@@?$redux_evaluator@V?$CwiseBinaryOp@U?$scalar_product_op@MM@internal@Eigen@@$$CBV?$Matrix@M$0?0$0?0$0A@$0?0$0?0@3@$$CBV?$Block@$$CBV?$Matrix@M$0?0$0?0$0A@$0?0$0?0@Eigen@@$0?0$0?0$0A@@3@@Eigen@@@internal@Eigen@@QEBA?AT__m128@@_J0@Z
pdata	ENDS
;	COMDAT pdata
pdata	SEGMENT
$pdata$??$packet@$0A@T__m128@@@?$binary_evaluator@V?$CwiseBinaryOp@U?$scalar_product_op@MM@internal@Eigen@@$$CBV?$Matrix@M$0?0$0?0$0A@$0?0$0?0@3@$$CBV?$Block@$$CBV?$Matrix@M$0?0$0?0$0A@$0?0$0?0@Eigen@@$0?0$0?0$0A@@3@@Eigen@@UIndexBased@internal@2@U342@MM@internal@Eigen@@QEBA?AT__m128@@_J0@Z DD imagerel $LN14@packet
	DD	imagerel $LN14@packet+59
	DD	imagerel $unwind$??$packet@$0A@T__m128@@@?$binary_evaluator@V?$CwiseBinaryOp@U?$scalar_product_op@MM@internal@Eigen@@$$CBV?$Matrix@M$0?0$0?0$0A@$0?0$0?0@3@$$CBV?$Block@$$CBV?$Matrix@M$0?0$0?0$0A@$0?0$0?0@Eigen@@$0?0$0?0$0A@@3@@Eigen@@UIndexBased@internal@2@U342@MM@internal@Eigen@@QEBA?AT__m128@@_J0@Z
pdata	ENDS
;	COMDAT pdata
pdata	SEGMENT
$pdata$??$_Emplace_back@AEAV?$Matrix@M$0?0$0?0$0A@$0?0$0?0@Eigen@@@?$_Uninitialized_backout_al@V?$allocator@V?$Matrix@M$0?0$0?0$0A@$0?0$0?0@Eigen@@@std@@@std@@QEAAXAEAV?$Matrix@M$0?0$0?0$0A@$0?0$0?0@Eigen@@@Z DD imagerel $LN21@Emplace_ba
	DD	imagerel $LN21@Emplace_ba+108
	DD	imagerel $unwind$??$_Emplace_back@AEAV?$Matrix@M$0?0$0?0$0A@$0?0$0?0@Eigen@@@?$_Uninitialized_backout_al@V?$allocator@V?$Matrix@M$0?0$0?0$0A@$0?0$0?0@Eigen@@@std@@@std@@QEAAXAEAV?$Matrix@M$0?0$0?0$0A@$0?0$0?0@Eigen@@@Z
pdata	ENDS
;	COMDAT pdata
pdata	SEGMENT
$pdata$??$run@V?$CwiseBinaryOp@U?$scalar_product_op@MM@internal@Eigen@@$$CBV?$Matrix@M$0?0$0?0$0A@$0?0$0?0@3@$$CBV?$Block@$$CBV?$Matrix@M$0?0$0?0$0A@$0?0$0?0@Eigen@@$0?0$0?0$0A@@3@@Eigen@@@?$redux_impl@U?$scalar_sum_op@MM@internal@Eigen@@V?$redux_evaluator@V?$CwiseBinaryOp@U?$scalar_product_op@MM@internal@Eigen@@$$CBV?$Matrix@M$0?0$0?0$0A@$0?0$0?0@3@$$CBV?$Block@$$CBV?$Matrix@M$0?0$0?0$0A@$0?0$0?0@Eigen@@$0?0$0?0$0A@@3@@Eigen@@@23@$03$0A@@internal@Eigen@@SAMAEBV?$redux_evaluator@V?$CwiseBinaryOp@U?$scalar_product_op@MM@internal@Eigen@@$$CBV?$Matrix@M$0?0$0?0$0A@$0?0$0?0@3@$$CBV?$Block@$$CBV?$Matrix@M$0?0$0?0$0A@$0?0$0?0@Eigen@@$0?0$0?0$0A@@3@@Eigen@@@12@AEBU?$scalar_sum_op@MM@12@AEBV?$CwiseBinaryOp@U?$scalar_product_op@MM@internal@Eigen@@$$CBV?$Matrix@M$0?0$0?0$0A@$0?0$0?0@3@$$CBV?$Block@$$CBV?$Matrix@M$0?0$0?0$0A@$0?0$0?0@Eigen@@$0?0$0?0$0A@@3@@2@@Z DD imagerel $LN206@run
	DD	imagerel $LN206@run+51
	DD	imagerel $unwind$??$run@V?$CwiseBinaryOp@U?$scalar_product_op@MM@internal@Eigen@@$$CBV?$Matrix@M$0?0$0?0$0A@$0?0$0?0@3@$$CBV?$Block@$$CBV?$Matrix@M$0?0$0?0$0A@$0?0$0?0@Eigen@@$0?0$0?0$0A@@3@@Eigen@@@?$redux_impl@U?$scalar_sum_op@MM@internal@Eigen@@V?$redux_evaluator@V?$CwiseBinaryOp@U?$scalar_product_op@MM@internal@Eigen@@$$CBV?$Matrix@M$0?0$0?0$0A@$0?0$0?0@3@$$CBV?$Block@$$CBV?$Matrix@M$0?0$0?0$0A@$0?0$0?0@Eigen@@$0?0$0?0$0A@@3@@Eigen@@@23@$03$0A@@internal@Eigen@@SAMAEBV?$redux_evaluator@V?$CwiseBinaryOp@U?$scalar_product_op@MM@internal@Eigen@@$$CBV?$Matrix@M$0?0$0?0$0A@$0?0$0?0@3@$$CBV?$Block@$$CBV?$Matrix@M$0?0$0?0$0A@$0?0$0?0@Eigen@@$0?0$0?0$0A@@3@@Eigen@@@12@AEBU?$scalar_sum_op@MM@12@AEBV?$CwiseBinaryOp@U?$scalar_product_op@MM@internal@Eigen@@$$CBV?$Matrix@M$0?0$0?0$0A@$0?0$0?0@3@$$CBV?$Block@$$CBV?$Matrix@M$0?0$0?0$0A@$0?0$0?0@Eigen@@$0?0$0?0$0A@@3@@2@@Z
pdata	ENDS
;	COMDAT pdata
pdata	SEGMENT
$pdata$0$??$run@V?$CwiseBinaryOp@U?$scalar_product_op@MM@internal@Eigen@@$$CBV?$Matrix@M$0?0$0?0$0A@$0?0$0?0@3@$$CBV?$Block@$$CBV?$Matrix@M$0?0$0?0$0A@$0?0$0?0@Eigen@@$0?0$0?0$0A@@3@@Eigen@@@?$redux_impl@U?$scalar_sum_op@MM@internal@Eigen@@V?$redux_evaluator@V?$CwiseBinaryOp@U?$scalar_product_op@MM@internal@Eigen@@$$CBV?$Matrix@M$0?0$0?0$0A@$0?0$0?0@3@$$CBV?$Block@$$CBV?$Matrix@M$0?0$0?0$0A@$0?0$0?0@Eigen@@$0?0$0?0$0A@@3@@Eigen@@@23@$03$0A@@internal@Eigen@@SAMAEBV?$redux_evaluator@V?$CwiseBinaryOp@U?$scalar_product_op@MM@internal@Eigen@@$$CBV?$Matrix@M$0?0$0?0$0A@$0?0$0?0@3@$$CBV?$Block@$$CBV?$Matrix@M$0?0$0?0$0A@$0?0$0?0@Eigen@@$0?0$0?0$0A@@3@@Eigen@@@12@AEBU?$scalar_sum_op@MM@12@AEBV?$CwiseBinaryOp@U?$scalar_product_op@MM@internal@Eigen@@$$CBV?$Matrix@M$0?0$0?0$0A@$0?0$0?0@3@$$CBV?$Block@$$CBV?$Matrix@M$0?0$0?0$0A@$0?0$0?0@Eigen@@$0?0$0?0$0A@@3@@2@@Z DD imagerel $LN206@run+51
	DD	imagerel $LN206@run+77
	DD	imagerel $chain$0$??$run@V?$CwiseBinaryOp@U?$scalar_product_op@MM@internal@Eigen@@$$CBV?$Matrix@M$0?0$0?0$0A@$0?0$0?0@3@$$CBV?$Block@$$CBV?$Matrix@M$0?0$0?0$0A@$0?0$0?0@Eigen@@$0?0$0?0$0A@@3@@Eigen@@@?$redux_impl@U?$scalar_sum_op@MM@internal@Eigen@@V?$redux_evaluator@V?$CwiseBinaryOp@U?$scalar_product_op@MM@internal@Eigen@@$$CBV?$Matrix@M$0?0$0?0$0A@$0?0$0?0@3@$$CBV?$Block@$$CBV?$Matrix@M$0?0$0?0$0A@$0?0$0?0@Eigen@@$0?0$0?0$0A@@3@@Eigen@@@23@$03$0A@@internal@Eigen@@SAMAEBV?$redux_evaluator@V?$CwiseBinaryOp@U?$scalar_product_op@MM@internal@Eigen@@$$CBV?$Matrix@M$0?0$0?0$0A@$0?0$0?0@3@$$CBV?$Block@$$CBV?$Matrix@M$0?0$0?0$0A@$0?0$0?0@Eigen@@$0?0$0?0$0A@@3@@Eigen@@@12@AEBU?$scalar_sum_op@MM@12@AEBV?$CwiseBinaryOp@U?$scalar_product_op@MM@internal@Eigen@@$$CBV?$Matrix@M$0?0$0?0$0A@$0?0$0?0@3@$$CBV?$Block@$$CBV?$Matrix@M$0?0$0?0$0A@$0?0$0?0@Eigen@@$0?0$0?0$0A@@3@@2@@Z
pdata	ENDS
;	COMDAT pdata
pdata	SEGMENT
$pdata$1$??$run@V?$CwiseBinaryOp@U?$scalar_product_op@MM@internal@Eigen@@$$CBV?$Matrix@M$0?0$0?0$0A@$0?0$0?0@3@$$CBV?$Block@$$CBV?$Matrix@M$0?0$0?0$0A@$0?0$0?0@Eigen@@$0?0$0?0$0A@@3@@Eigen@@@?$redux_impl@U?$scalar_sum_op@MM@internal@Eigen@@V?$redux_evaluator@V?$CwiseBinaryOp@U?$scalar_product_op@MM@internal@Eigen@@$$CBV?$Matrix@M$0?0$0?0$0A@$0?0$0?0@3@$$CBV?$Block@$$CBV?$Matrix@M$0?0$0?0$0A@$0?0$0?0@Eigen@@$0?0$0?0$0A@@3@@Eigen@@@23@$03$0A@@internal@Eigen@@SAMAEBV?$redux_evaluator@V?$CwiseBinaryOp@U?$scalar_product_op@MM@internal@Eigen@@$$CBV?$Matrix@M$0?0$0?0$0A@$0?0$0?0@3@$$CBV?$Block@$$CBV?$Matrix@M$0?0$0?0$0A@$0?0$0?0@Eigen@@$0?0$0?0$0A@@3@@Eigen@@@12@AEBU?$scalar_sum_op@MM@12@AEBV?$CwiseBinaryOp@U?$scalar_product_op@MM@internal@Eigen@@$$CBV?$Matrix@M$0?0$0?0$0A@$0?0$0?0@3@$$CBV?$Block@$$CBV?$Matrix@M$0?0$0?0$0A@$0?0$0?0@Eigen@@$0?0$0?0$0A@@3@@2@@Z DD imagerel $LN206@run+77
	DD	imagerel $LN206@run+199
	DD	imagerel $chain$1$??$run@V?$CwiseBinaryOp@U?$scalar_product_op@MM@internal@Eigen@@$$CBV?$Matrix@M$0?0$0?0$0A@$0?0$0?0@3@$$CBV?$Block@$$CBV?$Matrix@M$0?0$0?0$0A@$0?0$0?0@Eigen@@$0?0$0?0$0A@@3@@Eigen@@@?$redux_impl@U?$scalar_sum_op@MM@internal@Eigen@@V?$redux_evaluator@V?$CwiseBinaryOp@U?$scalar_product_op@MM@internal@Eigen@@$$CBV?$Matrix@M$0?0$0?0$0A@$0?0$0?0@3@$$CBV?$Block@$$CBV?$Matrix@M$0?0$0?0$0A@$0?0$0?0@Eigen@@$0?0$0?0$0A@@3@@Eigen@@@23@$03$0A@@internal@Eigen@@SAMAEBV?$redux_evaluator@V?$CwiseBinaryOp@U?$scalar_product_op@MM@internal@Eigen@@$$CBV?$Matrix@M$0?0$0?0$0A@$0?0$0?0@3@$$CBV?$Block@$$CBV?$Matrix@M$0?0$0?0$0A@$0?0$0?0@Eigen@@$0?0$0?0$0A@@3@@Eigen@@@12@AEBU?$scalar_sum_op@MM@12@AEBV?$CwiseBinaryOp@U?$scalar_product_op@MM@internal@Eigen@@$$CBV?$Matrix@M$0?0$0?0$0A@$0?0$0?0@3@$$CBV?$Block@$$CBV?$Matrix@M$0?0$0?0$0A@$0?0$0?0@Eigen@@$0?0$0?0$0A@@3@@2@@Z
pdata	ENDS
;	COMDAT pdata
pdata	SEGMENT
$pdata$2$??$run@V?$CwiseBinaryOp@U?$scalar_product_op@MM@internal@Eigen@@$$CBV?$Matrix@M$0?0$0?0$0A@$0?0$0?0@3@$$CBV?$Block@$$CBV?$Matrix@M$0?0$0?0$0A@$0?0$0?0@Eigen@@$0?0$0?0$0A@@3@@Eigen@@@?$redux_impl@U?$scalar_sum_op@MM@internal@Eigen@@V?$redux_evaluator@V?$CwiseBinaryOp@U?$scalar_product_op@MM@internal@Eigen@@$$CBV?$Matrix@M$0?0$0?0$0A@$0?0$0?0@3@$$CBV?$Block@$$CBV?$Matrix@M$0?0$0?0$0A@$0?0$0?0@Eigen@@$0?0$0?0$0A@@3@@Eigen@@@23@$03$0A@@internal@Eigen@@SAMAEBV?$redux_evaluator@V?$CwiseBinaryOp@U?$scalar_product_op@MM@internal@Eigen@@$$CBV?$Matrix@M$0?0$0?0$0A@$0?0$0?0@3@$$CBV?$Block@$$CBV?$Matrix@M$0?0$0?0$0A@$0?0$0?0@Eigen@@$0?0$0?0$0A@@3@@Eigen@@@12@AEBU?$scalar_sum_op@MM@12@AEBV?$CwiseBinaryOp@U?$scalar_product_op@MM@internal@Eigen@@$$CBV?$Matrix@M$0?0$0?0$0A@$0?0$0?0@3@$$CBV?$Block@$$CBV?$Matrix@M$0?0$0?0$0A@$0?0$0?0@Eigen@@$0?0$0?0$0A@@3@@2@@Z DD imagerel $LN206@run+199
	DD	imagerel $LN206@run+488
	DD	imagerel $chain$2$??$run@V?$CwiseBinaryOp@U?$scalar_product_op@MM@internal@Eigen@@$$CBV?$Matrix@M$0?0$0?0$0A@$0?0$0?0@3@$$CBV?$Block@$$CBV?$Matrix@M$0?0$0?0$0A@$0?0$0?0@Eigen@@$0?0$0?0$0A@@3@@Eigen@@@?$redux_impl@U?$scalar_sum_op@MM@internal@Eigen@@V?$redux_evaluator@V?$CwiseBinaryOp@U?$scalar_product_op@MM@internal@Eigen@@$$CBV?$Matrix@M$0?0$0?0$0A@$0?0$0?0@3@$$CBV?$Block@$$CBV?$Matrix@M$0?0$0?0$0A@$0?0$0?0@Eigen@@$0?0$0?0$0A@@3@@Eigen@@@23@$03$0A@@internal@Eigen@@SAMAEBV?$redux_evaluator@V?$CwiseBinaryOp@U?$scalar_product_op@MM@internal@Eigen@@$$CBV?$Matrix@M$0?0$0?0$0A@$0?0$0?0@3@$$CBV?$Block@$$CBV?$Matrix@M$0?0$0?0$0A@$0?0$0?0@Eigen@@$0?0$0?0$0A@@3@@Eigen@@@12@AEBU?$scalar_sum_op@MM@12@AEBV?$CwiseBinaryOp@U?$scalar_product_op@MM@internal@Eigen@@$$CBV?$Matrix@M$0?0$0?0$0A@$0?0$0?0@3@$$CBV?$Block@$$CBV?$Matrix@M$0?0$0?0$0A@$0?0$0?0@Eigen@@$0?0$0?0$0A@@3@@2@@Z
pdata	ENDS
;	COMDAT pdata
pdata	SEGMENT
$pdata$3$??$run@V?$CwiseBinaryOp@U?$scalar_product_op@MM@internal@Eigen@@$$CBV?$Matrix@M$0?0$0?0$0A@$0?0$0?0@3@$$CBV?$Block@$$CBV?$Matrix@M$0?0$0?0$0A@$0?0$0?0@Eigen@@$0?0$0?0$0A@@3@@Eigen@@@?$redux_impl@U?$scalar_sum_op@MM@internal@Eigen@@V?$redux_evaluator@V?$CwiseBinaryOp@U?$scalar_product_op@MM@internal@Eigen@@$$CBV?$Matrix@M$0?0$0?0$0A@$0?0$0?0@3@$$CBV?$Block@$$CBV?$Matrix@M$0?0$0?0$0A@$0?0$0?0@Eigen@@$0?0$0?0$0A@@3@@Eigen@@@23@$03$0A@@internal@Eigen@@SAMAEBV?$redux_evaluator@V?$CwiseBinaryOp@U?$scalar_product_op@MM@internal@Eigen@@$$CBV?$Matrix@M$0?0$0?0$0A@$0?0$0?0@3@$$CBV?$Block@$$CBV?$Matrix@M$0?0$0?0$0A@$0?0$0?0@Eigen@@$0?0$0?0$0A@@3@@Eigen@@@12@AEBU?$scalar_sum_op@MM@12@AEBV?$CwiseBinaryOp@U?$scalar_product_op@MM@internal@Eigen@@$$CBV?$Matrix@M$0?0$0?0$0A@$0?0$0?0@3@$$CBV?$Block@$$CBV?$Matrix@M$0?0$0?0$0A@$0?0$0?0@Eigen@@$0?0$0?0$0A@@3@@2@@Z DD imagerel $LN206@run+488
	DD	imagerel $LN206@run+935
	DD	imagerel $chain$3$??$run@V?$CwiseBinaryOp@U?$scalar_product_op@MM@internal@Eigen@@$$CBV?$Matrix@M$0?0$0?0$0A@$0?0$0?0@3@$$CBV?$Block@$$CBV?$Matrix@M$0?0$0?0$0A@$0?0$0?0@Eigen@@$0?0$0?0$0A@@3@@Eigen@@@?$redux_impl@U?$scalar_sum_op@MM@internal@Eigen@@V?$redux_evaluator@V?$CwiseBinaryOp@U?$scalar_product_op@MM@internal@Eigen@@$$CBV?$Matrix@M$0?0$0?0$0A@$0?0$0?0@3@$$CBV?$Block@$$CBV?$Matrix@M$0?0$0?0$0A@$0?0$0?0@Eigen@@$0?0$0?0$0A@@3@@Eigen@@@23@$03$0A@@internal@Eigen@@SAMAEBV?$redux_evaluator@V?$CwiseBinaryOp@U?$scalar_product_op@MM@internal@Eigen@@$$CBV?$Matrix@M$0?0$0?0$0A@$0?0$0?0@3@$$CBV?$Block@$$CBV?$Matrix@M$0?0$0?0$0A@$0?0$0?0@Eigen@@$0?0$0?0$0A@@3@@Eigen@@@12@AEBU?$scalar_sum_op@MM@12@AEBV?$CwiseBinaryOp@U?$scalar_product_op@MM@internal@Eigen@@$$CBV?$Matrix@M$0?0$0?0$0A@$0?0$0?0@3@$$CBV?$Block@$$CBV?$Matrix@M$0?0$0?0$0A@$0?0$0?0@Eigen@@$0?0$0?0$0A@@3@@2@@Z
pdata	ENDS
;	COMDAT pdata
pdata	SEGMENT
$pdata$??_G?$vector@V?$Matrix@M$0?0$0?0$0A@$0?0$0?0@Eigen@@V?$allocator@V?$Matrix@M$0?0$0?0$0A@$0?0$0?0@Eigen@@@std@@@std@@QEAAPEAXI@Z DD imagerel $LN8@scalar
	DD	imagerel $LN8@scalar+23
	DD	imagerel $unwind$??_G?$vector@V?$Matrix@M$0?0$0?0$0A@$0?0$0?0@Eigen@@V?$allocator@V?$Matrix@M$0?0$0?0$0A@$0?0$0?0@Eigen@@@std@@@std@@QEAAPEAXI@Z
pdata	ENDS
;	COMDAT pdata
pdata	SEGMENT
$pdata$??$_Uninitialized_copy@PEAV?$Matrix@M$0?0$0?0$0A@$0?0$0?0@Eigen@@V?$allocator@V?$Matrix@M$0?0$0?0$0A@$0?0$0?0@Eigen@@@std@@@std@@YAPEAV?$Matrix@M$0?0$0?0$0A@$0?0$0?0@Eigen@@QEAV12@0PEAV12@AEAV?$allocator@V?$Matrix@M$0?0$0?0$0A@$0?0$0?0@Eigen@@@0@@Z DD imagerel $LN68@Uninitiali
	DD	imagerel $LN68@Uninitiali+194
	DD	imagerel $unwind$??$_Uninitialized_copy@PEAV?$Matrix@M$0?0$0?0$0A@$0?0$0?0@Eigen@@V?$allocator@V?$Matrix@M$0?0$0?0$0A@$0?0$0?0@Eigen@@@std@@@std@@YAPEAV?$Matrix@M$0?0$0?0$0A@$0?0$0?0@Eigen@@QEAV12@0PEAV12@AEAV?$allocator@V?$Matrix@M$0?0$0?0$0A@$0?0$0?0@Eigen@@@0@@Z
pdata	ENDS
;	COMDAT pdata
pdata	SEGMENT
$pdata$??$redux@U?$scalar_sum_op@MM@internal@Eigen@@@?$DenseBase@V?$CwiseBinaryOp@U?$scalar_product_op@MM@internal@Eigen@@$$CBV?$Matrix@M$0?0$0?0$0A@$0?0$0?0@3@$$CBV?$Block@$$CBV?$Matrix@M$0?0$0?0$0A@$0?0$0?0@Eigen@@$0?0$0?0$0A@@3@@Eigen@@@Eigen@@QEBAMAEBU?$scalar_sum_op@MM@internal@1@@Z DD imagerel $LN610@redux
	DD	imagerel $LN610@redux+89
	DD	imagerel $unwind$??$redux@U?$scalar_sum_op@MM@internal@Eigen@@@?$DenseBase@V?$CwiseBinaryOp@U?$scalar_product_op@MM@internal@Eigen@@$$CBV?$Matrix@M$0?0$0?0$0A@$0?0$0?0@3@$$CBV?$Block@$$CBV?$Matrix@M$0?0$0?0$0A@$0?0$0?0@Eigen@@$0?0$0?0$0A@@3@@Eigen@@@Eigen@@QEBAMAEBU?$scalar_sum_op@MM@internal@1@@Z
pdata	ENDS
;	COMDAT pdata
pdata	SEGMENT
$pdata$??$_Destroy_range@V?$allocator@V?$vector@V?$Matrix@M$0?0$0?0$0A@$0?0$0?0@Eigen@@V?$allocator@V?$Matrix@M$0?0$0?0$0A@$0?0$0?0@Eigen@@@std@@@std@@@std@@@std@@YAXPEAV?$vector@V?$Matrix@M$0?0$0?0$0A@$0?0$0?0@Eigen@@V?$allocator@V?$Matrix@M$0?0$0?0$0A@$0?0$0?0@Eigen@@@std@@@0@QEAV10@AEAV?$allocator@V?$vector@V?$Matrix@M$0?0$0?0$0A@$0?0$0?0@Eigen@@V?$allocator@V?$Matrix@M$0?0$0?0$0A@$0?0$0?0@Eigen@@@std@@@std@@@0@@Z DD imagerel $LN20@Destroy_ra
	DD	imagerel $LN20@Destroy_ra+49
	DD	imagerel $unwind$??$_Destroy_range@V?$allocator@V?$vector@V?$Matrix@M$0?0$0?0$0A@$0?0$0?0@Eigen@@V?$allocator@V?$Matrix@M$0?0$0?0$0A@$0?0$0?0@Eigen@@@std@@@std@@@std@@@std@@YAXPEAV?$vector@V?$Matrix@M$0?0$0?0$0A@$0?0$0?0@Eigen@@V?$allocator@V?$Matrix@M$0?0$0?0$0A@$0?0$0?0@Eigen@@@std@@@0@QEAV10@AEAV?$allocator@V?$vector@V?$Matrix@M$0?0$0?0$0A@$0?0$0?0@Eigen@@V?$allocator@V?$Matrix@M$0?0$0?0$0A@$0?0$0?0@Eigen@@@std@@@std@@@0@@Z
pdata	ENDS
;	COMDAT pdata
pdata	SEGMENT
$pdata$??$_Ucopy@PEAV?$Matrix@M$0?0$0?0$0A@$0?0$0?0@Eigen@@@?$vector@V?$Matrix@M$0?0$0?0$0A@$0?0$0?0@Eigen@@V?$allocator@V?$Matrix@M$0?0$0?0$0A@$0?0$0?0@Eigen@@@std@@@std@@AEAAPEAV?$Matrix@M$0?0$0?0$0A@$0?0$0?0@Eigen@@PEAV23@00@Z DD imagerel $LN70@Ucopy
	DD	imagerel $LN70@Ucopy+194
	DD	imagerel $unwind$??$_Ucopy@PEAV?$Matrix@M$0?0$0?0$0A@$0?0$0?0@Eigen@@@?$vector@V?$Matrix@M$0?0$0?0$0A@$0?0$0?0@Eigen@@V?$allocator@V?$Matrix@M$0?0$0?0$0A@$0?0$0?0@Eigen@@@std@@@std@@AEAAPEAV?$Matrix@M$0?0$0?0$0A@$0?0$0?0@Eigen@@PEAV23@00@Z
pdata	ENDS
;	COMDAT pdata
pdata	SEGMENT
$pdata$?sum@?$DenseBase@V?$CwiseBinaryOp@U?$scalar_product_op@MM@internal@Eigen@@$$CBV?$Matrix@M$0?0$0?0$0A@$0?0$0?0@3@$$CBV?$Block@$$CBV?$Matrix@M$0?0$0?0$0A@$0?0$0?0@Eigen@@$0?0$0?0$0A@@3@@Eigen@@@Eigen@@QEBAMXZ DD imagerel $LN392@sum
	DD	imagerel $LN392@sum+129
	DD	imagerel $unwind$?sum@?$DenseBase@V?$CwiseBinaryOp@U?$scalar_product_op@MM@internal@Eigen@@$$CBV?$Matrix@M$0?0$0?0$0A@$0?0$0?0@3@$$CBV?$Block@$$CBV?$Matrix@M$0?0$0?0$0A@$0?0$0?0@Eigen@@$0?0$0?0$0A@@3@@Eigen@@@Eigen@@QEBAMXZ
pdata	ENDS
;	COMDAT pdata
pdata	SEGMENT
$pdata$?deallocate@?$allocator@V?$vector@V?$Matrix@M$0?0$0?0$0A@$0?0$0?0@Eigen@@V?$allocator@V?$Matrix@M$0?0$0?0$0A@$0?0$0?0@Eigen@@@std@@@std@@@std@@QEAAXQEAV?$vector@V?$Matrix@M$0?0$0?0$0A@$0?0$0?0@Eigen@@V?$allocator@V?$Matrix@M$0?0$0?0$0A@$0?0$0?0@Eigen@@@std@@@2@_K@Z DD imagerel $LN21@deallocate
	DD	imagerel $LN21@deallocate+67
	DD	imagerel $unwind$?deallocate@?$allocator@V?$vector@V?$Matrix@M$0?0$0?0$0A@$0?0$0?0@Eigen@@V?$allocator@V?$Matrix@M$0?0$0?0$0A@$0?0$0?0@Eigen@@@std@@@std@@@std@@QEAAXQEAV?$vector@V?$Matrix@M$0?0$0?0$0A@$0?0$0?0@Eigen@@V?$allocator@V?$Matrix@M$0?0$0?0$0A@$0?0$0?0@Eigen@@@std@@@2@_K@Z
pdata	ENDS
;	COMDAT pdata
pdata	SEGMENT
$pdata$?_Destroy@?$vector@V?$vector@V?$Matrix@M$0?0$0?0$0A@$0?0$0?0@Eigen@@V?$allocator@V?$Matrix@M$0?0$0?0$0A@$0?0$0?0@Eigen@@@std@@@std@@V?$allocator@V?$vector@V?$Matrix@M$0?0$0?0$0A@$0?0$0?0@Eigen@@V?$allocator@V?$Matrix@M$0?0$0?0$0A@$0?0$0?0@Eigen@@@std@@@std@@@2@@std@@AEAAXPEAV?$vector@V?$Matrix@M$0?0$0?0$0A@$0?0$0?0@Eigen@@V?$allocator@V?$Matrix@M$0?0$0?0$0A@$0?0$0?0@Eigen@@@std@@@2@0@Z DD imagerel $LN22@Destroy
	DD	imagerel $LN22@Destroy+49
	DD	imagerel $unwind$?_Destroy@?$vector@V?$vector@V?$Matrix@M$0?0$0?0$0A@$0?0$0?0@Eigen@@V?$allocator@V?$Matrix@M$0?0$0?0$0A@$0?0$0?0@Eigen@@@std@@@std@@V?$allocator@V?$vector@V?$Matrix@M$0?0$0?0$0A@$0?0$0?0@Eigen@@V?$allocator@V?$Matrix@M$0?0$0?0$0A@$0?0$0?0@Eigen@@@std@@@std@@@2@@std@@AEAAXPEAV?$vector@V?$Matrix@M$0?0$0?0$0A@$0?0$0?0@Eigen@@V?$allocator@V?$Matrix@M$0?0$0?0$0A@$0?0$0?0@Eigen@@@std@@@2@0@Z
pdata	ENDS
;	COMDAT pdata
pdata	SEGMENT
$pdata$?_Move_assign@?$vector@V?$vector@V?$Matrix@M$0?0$0?0$0A@$0?0$0?0@Eigen@@V?$allocator@V?$Matrix@M$0?0$0?0$0A@$0?0$0?0@Eigen@@@std@@@std@@V?$allocator@V?$vector@V?$Matrix@M$0?0$0?0$0A@$0?0$0?0@Eigen@@V?$allocator@V?$Matrix@M$0?0$0?0$0A@$0?0$0?0@Eigen@@@std@@@std@@@2@@std@@AEAAXAEAV12@U_Equal_allocators@2@@Z DD imagerel $LN7@Move_assig
	DD	imagerel $LN7@Move_assig+67
	DD	imagerel $unwind$?_Move_assign@?$vector@V?$vector@V?$Matrix@M$0?0$0?0$0A@$0?0$0?0@Eigen@@V?$allocator@V?$Matrix@M$0?0$0?0$0A@$0?0$0?0@Eigen@@@std@@@std@@V?$allocator@V?$vector@V?$Matrix@M$0?0$0?0$0A@$0?0$0?0@Eigen@@V?$allocator@V?$Matrix@M$0?0$0?0$0A@$0?0$0?0@Eigen@@@std@@@std@@@2@@std@@AEAAXAEAV12@U_Equal_allocators@2@@Z
pdata	ENDS
;	COMDAT pdata
pdata	SEGMENT
$pdata$?_Tidy@?$vector@V?$vector@V?$Matrix@M$0?0$0?0$0A@$0?0$0?0@Eigen@@V?$allocator@V?$Matrix@M$0?0$0?0$0A@$0?0$0?0@Eigen@@@std@@@std@@V?$allocator@V?$vector@V?$Matrix@M$0?0$0?0$0A@$0?0$0?0@Eigen@@V?$allocator@V?$Matrix@M$0?0$0?0$0A@$0?0$0?0@Eigen@@@std@@@std@@@2@@std@@AEAAXXZ DD imagerel $LN43@Tidy
	DD	imagerel $LN43@Tidy+25
	DD	imagerel $unwind$?_Tidy@?$vector@V?$vector@V?$Matrix@M$0?0$0?0$0A@$0?0$0?0@Eigen@@V?$allocator@V?$Matrix@M$0?0$0?0$0A@$0?0$0?0@Eigen@@@std@@@std@@V?$allocator@V?$vector@V?$Matrix@M$0?0$0?0$0A@$0?0$0?0@Eigen@@V?$allocator@V?$Matrix@M$0?0$0?0$0A@$0?0$0?0@Eigen@@@std@@@std@@@2@@std@@AEAAXXZ
pdata	ENDS
;	COMDAT pdata
pdata	SEGMENT
$pdata$0$?_Tidy@?$vector@V?$vector@V?$Matrix@M$0?0$0?0$0A@$0?0$0?0@Eigen@@V?$allocator@V?$Matrix@M$0?0$0?0$0A@$0?0$0?0@Eigen@@@std@@@std@@V?$allocator@V?$vector@V?$Matrix@M$0?0$0?0$0A@$0?0$0?0@Eigen@@V?$allocator@V?$Matrix@M$0?0$0?0$0A@$0?0$0?0@Eigen@@@std@@@std@@@2@@std@@AEAAXXZ DD imagerel $LN43@Tidy+25
	DD	imagerel $LN43@Tidy+115
	DD	imagerel $chain$0$?_Tidy@?$vector@V?$vector@V?$Matrix@M$0?0$0?0$0A@$0?0$0?0@Eigen@@V?$allocator@V?$Matrix@M$0?0$0?0$0A@$0?0$0?0@Eigen@@@std@@@std@@V?$allocator@V?$vector@V?$Matrix@M$0?0$0?0$0A@$0?0$0?0@Eigen@@V?$allocator@V?$Matrix@M$0?0$0?0$0A@$0?0$0?0@Eigen@@@std@@@std@@@2@@std@@AEAAXXZ
pdata	ENDS
;	COMDAT pdata
pdata	SEGMENT
$pdata$1$?_Tidy@?$vector@V?$vector@V?$Matrix@M$0?0$0?0$0A@$0?0$0?0@Eigen@@V?$allocator@V?$Matrix@M$0?0$0?0$0A@$0?0$0?0@Eigen@@@std@@@std@@V?$allocator@V?$vector@V?$Matrix@M$0?0$0?0$0A@$0?0$0?0@Eigen@@V?$allocator@V?$Matrix@M$0?0$0?0$0A@$0?0$0?0@Eigen@@@std@@@std@@@2@@std@@AEAAXXZ DD imagerel $LN43@Tidy+115
	DD	imagerel $LN43@Tidy+178
	DD	imagerel $chain$1$?_Tidy@?$vector@V?$vector@V?$Matrix@M$0?0$0?0$0A@$0?0$0?0@Eigen@@V?$allocator@V?$Matrix@M$0?0$0?0$0A@$0?0$0?0@Eigen@@@std@@@std@@V?$allocator@V?$vector@V?$Matrix@M$0?0$0?0$0A@$0?0$0?0@Eigen@@V?$allocator@V?$Matrix@M$0?0$0?0$0A@$0?0$0?0@Eigen@@@std@@@std@@@2@@std@@AEAAXXZ
pdata	ENDS
;	COMDAT pdata
pdata	SEGMENT
$pdata$?_Move_assign@?$vector@MV?$allocator@M@std@@@std@@AEAAXAEAV12@U_Equal_allocators@2@@Z DD imagerel $LN30@Move_assig
	DD	imagerel $LN30@Move_assig+147
	DD	imagerel $unwind$?_Move_assign@?$vector@MV?$allocator@M@std@@@std@@AEAAXAEAV12@U_Equal_allocators@2@@Z
pdata	ENDS
;	COMDAT pdata
pdata	SEGMENT
$pdata$?_Reset_copy@?$_Func_class@XAEAV?$Matrix@M$0?0$0?0$0A@$0?0$0?0@Eigen@@@std@@IEAAXAEBV12@@Z DD imagerel $LN8@Reset_copy
	DD	imagerel $LN8@Reset_copy+36
	DD	imagerel $unwind$?_Reset_copy@?$_Func_class@XAEAV?$Matrix@M$0?0$0?0$0A@$0?0$0?0@Eigen@@@std@@IEAAXAEBV12@@Z
pdata	ENDS
;	COMDAT pdata
pdata	SEGMENT
$pdata$?_Tidy@?$_Func_class@XAEAV?$Matrix@M$0?0$0?0$0A@$0?0$0?0@Eigen@@@std@@IEAAXXZ DD imagerel $LN10@Tidy
	DD	imagerel $LN10@Tidy+44
	DD	imagerel $unwind$?_Tidy@?$_Func_class@XAEAV?$Matrix@M$0?0$0?0$0A@$0?0$0?0@Eigen@@@std@@IEAAXXZ
pdata	ENDS
;	COMDAT pdata
pdata	SEGMENT
$pdata$?_Buy_raw@?$vector@V?$Matrix@M$0?0$0?0$0A@$0?0$0?0@Eigen@@V?$allocator@V?$Matrix@M$0?0$0?0$0A@$0?0$0?0@Eigen@@@std@@@std@@AEAAX_K@Z DD imagerel $LN4@Buy_raw
	DD	imagerel $LN4@Buy_raw+51
	DD	imagerel $unwind$?_Buy_raw@?$vector@V?$Matrix@M$0?0$0?0$0A@$0?0$0?0@Eigen@@V?$allocator@V?$Matrix@M$0?0$0?0$0A@$0?0$0?0@Eigen@@@std@@@std@@AEAAX_K@Z
pdata	ENDS
;	COMDAT pdata
pdata	SEGMENT
$pdata$??4?$vector@V?$vector@V?$Matrix@M$0?0$0?0$0A@$0?0$0?0@Eigen@@V?$allocator@V?$Matrix@M$0?0$0?0$0A@$0?0$0?0@Eigen@@@std@@@std@@V?$allocator@V?$vector@V?$Matrix@M$0?0$0?0$0A@$0?0$0?0@Eigen@@V?$allocator@V?$Matrix@M$0?0$0?0$0A@$0?0$0?0@Eigen@@@std@@@std@@@2@@std@@QEAAAEAV01@$$QEAV01@@Z DD imagerel $LN11@operator
	DD	imagerel $LN11@operator+75
	DD	imagerel $unwind$??4?$vector@V?$vector@V?$Matrix@M$0?0$0?0$0A@$0?0$0?0@Eigen@@V?$allocator@V?$Matrix@M$0?0$0?0$0A@$0?0$0?0@Eigen@@@std@@@std@@V?$allocator@V?$vector@V?$Matrix@M$0?0$0?0$0A@$0?0$0?0@Eigen@@V?$allocator@V?$Matrix@M$0?0$0?0$0A@$0?0$0?0@Eigen@@@std@@@std@@@2@@std@@QEAAAEAV01@$$QEAV01@@Z
pdata	ENDS
;	COMDAT pdata
pdata	SEGMENT
$pdata$??4?$vector@MV?$allocator@M@std@@@std@@QEAAAEAV01@$$QEAV01@@Z DD imagerel $LN34@operator
	DD	imagerel $LN34@operator+155
	DD	imagerel $unwind$??4?$vector@MV?$allocator@M@std@@@std@@QEAAAEAV01@$$QEAV01@@Z
pdata	ENDS
;	COMDAT pdata
pdata	SEGMENT
$pdata$??R?$_Func_class@XAEAV?$Matrix@M$0?0$0?0$0A@$0?0$0?0@Eigen@@@std@@QEBAXAEAV?$Matrix@M$0?0$0?0$0A@$0?0$0?0@Eigen@@@Z DD imagerel $LN9@operator
	DD	imagerel $LN9@operator+31
	DD	imagerel $unwind$??R?$_Func_class@XAEAV?$Matrix@M$0?0$0?0$0A@$0?0$0?0@Eigen@@@std@@QEBAXAEAV?$Matrix@M$0?0$0?0$0A@$0?0$0?0@Eigen@@@Z
pdata	ENDS
;	COMDAT pdata
pdata	SEGMENT
$pdata$??1?$_Func_class@XAEAV?$Matrix@M$0?0$0?0$0A@$0?0$0?0@Eigen@@@std@@QEAA@XZ DD imagerel $LN12@Func_class
	DD	imagerel $LN12@Func_class+44
	DD	imagerel $unwind$??1?$_Func_class@XAEAV?$Matrix@M$0?0$0?0$0A@$0?0$0?0@Eigen@@@std@@QEAA@XZ
pdata	ENDS
;	COMDAT pdata
pdata	SEGMENT
$pdata$??0?$function@$$A6AXAEAV?$Matrix@M$0?0$0?0$0A@$0?0$0?0@Eigen@@@Z@std@@QEAA@AEBV01@@Z DD imagerel $LN14@function
	DD	imagerel $LN14@function+51
	DD	imagerel $unwind$??0?$function@$$A6AXAEAV?$Matrix@M$0?0$0?0$0A@$0?0$0?0@Eigen@@@Z@std@@QEAA@AEBV01@@Z
pdata	ENDS
;	COMDAT pdata
pdata	SEGMENT
$pdata$??0?$vector@V?$Matrix@M$0?0$0?0$0A@$0?0$0?0@Eigen@@V?$allocator@V?$Matrix@M$0?0$0?0$0A@$0?0$0?0@Eigen@@@std@@@std@@QEAA@AEBV01@@Z DD imagerel $LN83@vector
	DD	imagerel $LN83@vector+286
	DD	imagerel $unwind$??0?$vector@V?$Matrix@M$0?0$0?0$0A@$0?0$0?0@Eigen@@V?$allocator@V?$Matrix@M$0?0$0?0$0A@$0?0$0?0@Eigen@@@std@@@std@@QEAA@AEBV01@@Z
pdata	ENDS
;	COMDAT pdata
pdata	SEGMENT
$pdata$?forward@ConvLayer@@UEAAAEBV?$Matrix@M$0?0$0?0$0A@$0?0$0?0@Eigen@@AEBV23@@Z DD imagerel $LN344@forward
	DD	imagerel $LN344@forward+155
	DD	imagerel $unwind$?forward@ConvLayer@@UEAAAEBV?$Matrix@M$0?0$0?0$0A@$0?0$0?0@Eigen@@AEBV23@@Z
pdata	ENDS
;	COMDAT pdata
pdata	SEGMENT
$pdata$1$?forward@ConvLayer@@UEAAAEBV?$Matrix@M$0?0$0?0$0A@$0?0$0?0@Eigen@@AEBV23@@Z DD imagerel $LN344@forward+155
	DD	imagerel $LN344@forward+388
	DD	imagerel $chain$1$?forward@ConvLayer@@UEAAAEBV?$Matrix@M$0?0$0?0$0A@$0?0$0?0@Eigen@@AEBV23@@Z
pdata	ENDS
;	COMDAT pdata
pdata	SEGMENT
$pdata$2$?forward@ConvLayer@@UEAAAEBV?$Matrix@M$0?0$0?0$0A@$0?0$0?0@Eigen@@AEBV23@@Z DD imagerel $LN344@forward+388
	DD	imagerel $LN344@forward+918
	DD	imagerel $chain$2$?forward@ConvLayer@@UEAAAEBV?$Matrix@M$0?0$0?0$0A@$0?0$0?0@Eigen@@AEBV23@@Z
pdata	ENDS
;	COMDAT pdata
pdata	SEGMENT
$pdata$3$?forward@ConvLayer@@UEAAAEBV?$Matrix@M$0?0$0?0$0A@$0?0$0?0@Eigen@@AEBV23@@Z DD imagerel $LN344@forward+918
	DD	imagerel $LN344@forward+970
	DD	imagerel $chain$3$?forward@ConvLayer@@UEAAAEBV?$Matrix@M$0?0$0?0$0A@$0?0$0?0@Eigen@@AEBV23@@Z
pdata	ENDS
;	COMDAT pdata
pdata	SEGMENT
$pdata$4$?forward@ConvLayer@@UEAAAEBV?$Matrix@M$0?0$0?0$0A@$0?0$0?0@Eigen@@AEBV23@@Z DD imagerel $LN344@forward+970
	DD	imagerel $LN344@forward+1188
	DD	imagerel $chain$4$?forward@ConvLayer@@UEAAAEBV?$Matrix@M$0?0$0?0$0A@$0?0$0?0@Eigen@@AEBV23@@Z
pdata	ENDS
;	COMDAT pdata
pdata	SEGMENT
$pdata$??0ConvLayer@@QEAA@AEAV?$vector@V?$vector@V?$Matrix@M$0?0$0?0$0A@$0?0$0?0@Eigen@@V?$allocator@V?$Matrix@M$0?0$0?0$0A@$0?0$0?0@Eigen@@@std@@@std@@V?$allocator@V?$vector@V?$Matrix@M$0?0$0?0$0A@$0?0$0?0@Eigen@@V?$allocator@V?$Matrix@M$0?0$0?0$0A@$0?0$0?0@Eigen@@@std@@@std@@@2@@std@@AEAV?$vector@MV?$allocator@M@std@@@2@HHV?$function@$$A6AXAEAV?$Matrix@M$0?0$0?0$0A@$0?0$0?0@Eigen@@@Z@2@@Z DD imagerel $LN101@ConvLayer
	DD	imagerel $LN101@ConvLayer+493
	DD	imagerel $unwind$??0ConvLayer@@QEAA@AEAV?$vector@V?$vector@V?$Matrix@M$0?0$0?0$0A@$0?0$0?0@Eigen@@V?$allocator@V?$Matrix@M$0?0$0?0$0A@$0?0$0?0@Eigen@@@std@@@std@@V?$allocator@V?$vector@V?$Matrix@M$0?0$0?0$0A@$0?0$0?0@Eigen@@V?$allocator@V?$Matrix@M$0?0$0?0$0A@$0?0$0?0@Eigen@@@std@@@std@@@2@@std@@AEAV?$vector@MV?$allocator@M@std@@@2@HHV?$function@$$A6AXAEAV?$Matrix@M$0?0$0?0$0A@$0?0$0?0@Eigen@@@Z@2@@Z
pdata	ENDS
;	COMDAT pdata
pdata	SEGMENT
$pdata$??1?$function@$$A6AXAEAV?$Matrix@M$0?0$0?0$0A@$0?0$0?0@Eigen@@@Z@std@@QEAA@XZ DD imagerel $LN14@function
	DD	imagerel $LN14@function+44
	DD	imagerel $unwind$??1?$function@$$A6AXAEAV?$Matrix@M$0?0$0?0$0A@$0?0$0?0@Eigen@@@Z@std@@QEAA@XZ
pdata	ENDS
;	COMDAT pdata
pdata	SEGMENT
$pdata$?printWeights@ConvLayer@@UEAAXXZ DD imagerel $LN142@printWeigh
	DD	imagerel $LN142@printWeigh+585
	DD	imagerel $unwind$?printWeights@ConvLayer@@UEAAXXZ
;	COMDAT xdata
xdata	SEGMENT
$ip2state$?printWeights@ConvLayer@@UEAAXXZ DQ 006ee04900002410cr ; 2.7094e-275
	DD	062a087aH
	DW	094H
xdata	ENDS
;	COMDAT xdata
xdata	SEGMENT
$stateUnwindMap$?printWeights@ConvLayer@@UEAAXXZ DW 0a08H
	DD	imagerel ??1?$_Tidy_guard@V?$vector@V?$Matrix@M$0?0$0?0$0A@$0?0$0?0@Eigen@@V?$allocator@V?$Matrix@M$0?0$0?0$0A@$0?0$0?0@Eigen@@@std@@@std@@@std@@QEAA@XZ
	DW	03250H
	DD	imagerel ??1?$_Uninitialized_backout_al@V?$allocator@V?$Matrix@M$0?0$0?0$0A@$0?0$0?0@Eigen@@@std@@@std@@QEAA@XZ
	DW	06a90H
	DD	imagerel ??1?$vector@V?$Matrix@M$0?0$0?0$0A@$0?0$0?0@Eigen@@V?$allocator@V?$Matrix@M$0?0$0?0$0A@$0?0$0?0@Eigen@@@std@@@std@@QEAA@XZ
	DW	03260H
	DD	imagerel ??1?$Matrix@M$0?0$0?0$0A@$0?0$0?0@Eigen@@QEAA@XZ
	DB	0c0H
xdata	ENDS
;	COMDAT xdata
xdata	SEGMENT
$cppxdata$?printWeights@ConvLayer@@UEAAXXZ DB 028H
	DD	imagerel $stateUnwindMap$?printWeights@ConvLayer@@UEAAXXZ
	DD	imagerel $ip2state$?printWeights@ConvLayer@@UEAAXXZ
xdata	ENDS
;	COMDAT xdata
xdata	SEGMENT
$unwind$?printWeights@ConvLayer@@UEAAXXZ DQ 000197422000c3019r ; 3.53976e-308
	DQ	00017342200186422r		; 3.22686e-308
	DQ	0d014e016f018f222r		; -6.043e+77
	DD	05010c012H
	DD	imagerel __GSHandlerCheck_EH4
	DD	imagerel $cppxdata$?printWeights@ConvLayer@@UEAAXXZ
	DD	07aH
xdata	ENDS
;	COMDAT xdata
xdata	SEGMENT
$unwind$??1?$function@$$A6AXAEAV?$Matrix@M$0?0$0?0$0A@$0?0$0?0@Eigen@@@Z@std@@QEAA@XZ DQ 03002320600020601r ; 1.96423e-77
xdata	ENDS
;	COMDAT xdata
xdata	SEGMENT
$ip2state$??0ConvLayer@@QEAA@AEAV?$vector@V?$vector@V?$Matrix@M$0?0$0?0$0A@$0?0$0?0@Eigen@@V?$allocator@V?$Matrix@M$0?0$0?0$0A@$0?0$0?0@Eigen@@@std@@@std@@V?$allocator@V?$vector@V?$Matrix@M$0?0$0?0$0A@$0?0$0?0@Eigen@@V?$allocator@V?$Matrix@M$0?0$0?0$0A@$0?0$0?0@Eigen@@@std@@@std@@@2@@std@@AEAV?$vector@MV?$allocator@M@std@@@2@HHV?$function@$$A6AXAEAV?$Matrix@M$0?0$0?0$0A@$0?0$0?0@Eigen@@@Z@2@@Z DW 0f002H
	DB	08H
xdata	ENDS
;	COMDAT xdata
xdata	SEGMENT
$stateUnwindMap$??0ConvLayer@@QEAA@AEAV?$vector@V?$vector@V?$Matrix@M$0?0$0?0$0A@$0?0$0?0@Eigen@@V?$allocator@V?$Matrix@M$0?0$0?0$0A@$0?0$0?0@Eigen@@@std@@@std@@V?$allocator@V?$vector@V?$Matrix@M$0?0$0?0$0A@$0?0$0?0@Eigen@@V?$allocator@V?$Matrix@M$0?0$0?0$0A@$0?0$0?0@Eigen@@@std@@@std@@@2@@std@@AEAV?$vector@MV?$allocator@M@std@@@2@HHV?$function@$$A6AXAEAV?$Matrix@M$0?0$0?0$0A@$0?0$0?0@Eigen@@@Z@2@@Z DW 0c08H
	DD	imagerel ??1?$function@$$A6AXAEAV?$Matrix@M$0?0$0?0$0A@$0?0$0?0@Eigen@@@Z@std@@QEAA@XZ
	DW	03650H
	DD	imagerel ?dtor$1@?0???0ConvLayer@@QEAA@AEAV?$vector@V?$vector@V?$Matrix@M$0?0$0?0$0A@$0?0$0?0@Eigen@@V?$allocator@V?$Matrix@M$0?0$0?0$0A@$0?0$0?0@Eigen@@@std@@@std@@V?$allocator@V?$vector@V?$Matrix@M$0?0$0?0$0A@$0?0$0?0@Eigen@@V?$allocator@V?$Matrix@M$0?0$0?0$0A@$0?0$0?0@Eigen@@@std@@@std@@@2@@std@@AEAV?$vector@MV?$allocator@M@std@@@2@HHV?$function@$$A6AXAEAV?$Matrix@M$0?0$0?0$0A@$0?0$0?0@Eigen@@@Z@2@@Z@4HA
	DB	02eH
	DD	imagerel ?dtor$2@?0???0ConvLayer@@QEAA@AEAV?$vector@V?$vector@V?$Matrix@M$0?0$0?0$0A@$0?0$0?0@Eigen@@V?$allocator@V?$Matrix@M$0?0$0?0$0A@$0?0$0?0@Eigen@@@std@@@std@@V?$allocator@V?$vector@V?$Matrix@M$0?0$0?0$0A@$0?0$0?0@Eigen@@V?$allocator@V?$Matrix@M$0?0$0?0$0A@$0?0$0?0@Eigen@@@std@@@std@@@2@@std@@AEAV?$vector@MV?$allocator@M@std@@@2@HHV?$function@$$A6AXAEAV?$Matrix@M$0?0$0?0$0A@$0?0$0?0@Eigen@@@Z@2@@Z@4HA
	DB	02cH
	DD	imagerel ??1?$_Func_class@XAEAV?$Matrix@M$0?0$0?0$0A@$0?0$0?0@Eigen@@@std@@QEAA@XZ
	DB	060H
xdata	ENDS
;	COMDAT xdata
xdata	SEGMENT
$cppxdata$??0ConvLayer@@QEAA@AEAV?$vector@V?$vector@V?$Matrix@M$0?0$0?0$0A@$0?0$0?0@Eigen@@V?$allocator@V?$Matrix@M$0?0$0?0$0A@$0?0$0?0@Eigen@@@std@@@std@@V?$allocator@V?$vector@V?$Matrix@M$0?0$0?0$0A@$0?0$0?0@Eigen@@V?$allocator@V?$Matrix@M$0?0$0?0$0A@$0?0$0?0@Eigen@@@std@@@std@@@2@@std@@AEAV?$vector@MV?$allocator@M@std@@@2@HHV?$function@$$A6AXAEAV?$Matrix@M$0?0$0?0$0A@$0?0$0?0@Eigen@@@Z@2@@Z DB 028H
	DD	imagerel $stateUnwindMap$??0ConvLayer@@QEAA@AEAV?$vector@V?$vector@V?$Matrix@M$0?0$0?0$0A@$0?0$0?0@Eigen@@V?$allocator@V?$Matrix@M$0?0$0?0$0A@$0?0$0?0@Eigen@@@std@@@std@@V?$allocator@V?$vector@V?$Matrix@M$0?0$0?0$0A@$0?0$0?0@Eigen@@V?$allocator@V?$Matrix@M$0?0$0?0$0A@$0?0$0?0@Eigen@@@std@@@std@@@2@@std@@AEAV?$vector@MV?$allocator@M@std@@@2@HHV?$function@$$A6AXAEAV?$Matrix@M$0?0$0?0$0A@$0?0$0?0@Eigen@@@Z@2@@Z
	DD	imagerel $ip2state$??0ConvLayer@@QEAA@AEAV?$vector@V?$vector@V?$Matrix@M$0?0$0?0$0A@$0?0$0?0@Eigen@@V?$allocator@V?$Matrix@M$0?0$0?0$0A@$0?0$0?0@Eigen@@@std@@@std@@V?$allocator@V?$vector@V?$Matrix@M$0?0$0?0$0A@$0?0$0?0@Eigen@@V?$allocator@V?$Matrix@M$0?0$0?0$0A@$0?0$0?0@Eigen@@@std@@@std@@@2@@std@@AEAV?$vector@MV?$allocator@M@std@@@2@HHV?$function@$$A6AXAEAV?$Matrix@M$0?0$0?0$0A@$0?0$0?0@Eigen@@@Z@2@@Z
xdata	ENDS
;	COMDAT xdata
xdata	SEGMENT
$unwind$??0ConvLayer@@QEAA@AEAV?$vector@V?$vector@V?$Matrix@M$0?0$0?0$0A@$0?0$0?0@Eigen@@V?$allocator@V?$Matrix@M$0?0$0?0$0A@$0?0$0?0@Eigen@@@std@@@std@@V?$allocator@V?$vector@V?$Matrix@M$0?0$0?0$0A@$0?0$0?0@Eigen@@V?$allocator@V?$Matrix@M$0?0$0?0$0A@$0?0$0?0@Eigen@@@std@@@std@@@2@@std@@AEAV?$vector@MV?$allocator@M@std@@@2@HHV?$function@$$A6AXAEAV?$Matrix@M$0?0$0?0$0A@$0?0$0?0@Eigen@@@Z@2@@Z DQ 000133414000a1411r ; 2.67057e-308
	DQ	0d00ce00ef0107214r		; -4.1794e+77
	DQ	0500660077008c00ar		; 3.23858e+77
	DD	imagerel __CxxFrameHandler4
	DD	imagerel $cppxdata$??0ConvLayer@@QEAA@AEAV?$vector@V?$vector@V?$Matrix@M$0?0$0?0$0A@$0?0$0?0@Eigen@@V?$allocator@V?$Matrix@M$0?0$0?0$0A@$0?0$0?0@Eigen@@@std@@@std@@V?$allocator@V?$vector@V?$Matrix@M$0?0$0?0$0A@$0?0$0?0@Eigen@@V?$allocator@V?$Matrix@M$0?0$0?0$0A@$0?0$0?0@Eigen@@@std@@@std@@@2@@std@@AEAV?$vector@MV?$allocator@M@std@@@2@HHV?$function@$$A6AXAEAV?$Matrix@M$0?0$0?0$0A@$0?0$0?0@Eigen@@@Z@2@@Z
xdata	ENDS
;	COMDAT xdata
xdata	SEGMENT
$chain$4$?forward@ConvLayer@@UEAAAEBV?$Matrix@M$0?0$0?0$0A@$0?0$0?0@Eigen@@AEBV23@@Z DD 021H
	DD	imagerel $LN344@forward
	DD	imagerel $LN344@forward+155
	DD	imagerel $unwind$?forward@ConvLayer@@UEAAAEBV?$Matrix@M$0?0$0?0$0A@$0?0$0?0@Eigen@@AEBV23@@Z
xdata	ENDS
;	COMDAT xdata
xdata	SEGMENT
$chain$3$?forward@ConvLayer@@UEAAAEBV?$Matrix@M$0?0$0?0$0A@$0?0$0?0@Eigen@@AEBV23@@Z DD 021H
	DD	imagerel $LN344@forward+155
	DD	imagerel $LN344@forward+388
	DD	imagerel $chain$1$?forward@ConvLayer@@UEAAAEBV?$Matrix@M$0?0$0?0$0A@$0?0$0?0@Eigen@@AEBV23@@Z
xdata	ENDS
;	COMDAT xdata
xdata	SEGMENT
$chain$2$?forward@ConvLayer@@UEAAAEBV?$Matrix@M$0?0$0?0$0A@$0?0$0?0@Eigen@@AEBV23@@Z DQ 00027c40800020821r ; 6.61007e-308
	DD	imagerel $LN344@forward+155
	DD	imagerel $LN344@forward+388
	DD	imagerel $chain$1$?forward@ConvLayer@@UEAAAEBV?$Matrix@M$0?0$0?0$0A@$0?0$0?0@Eigen@@AEBV23@@Z
xdata	ENDS
;	COMDAT xdata
xdata	SEGMENT
$chain$1$?forward@ConvLayer@@UEAAAEBV?$Matrix@M$0?0$0?0$0A@$0?0$0?0@Eigen@@AEBV23@@Z DQ 0000f681700041721r ; 2.14255e-308
	DD	028f408H
	DD	imagerel $LN344@forward
	DD	imagerel $LN344@forward+155
	DD	imagerel $unwind$?forward@ConvLayer@@UEAAAEBV?$Matrix@M$0?0$0?0$0A@$0?0$0?0@Eigen@@AEBV23@@Z
xdata	ENDS
;	COMDAT xdata
xdata	SEGMENT
$unwind$?forward@ConvLayer@@UEAAAEBV?$Matrix@M$0?0$0?0$0A@$0?0$0?0@Eigen@@AEBV23@@Z DQ 00029341800092619r ; 7.00995e-308
	DQ	0d00ae00c00200118r		; -3.88992e+77
	DQ	00000500660077008r		; 4.3472e-310
	DD	imagerel __GSHandlerCheck
	DD	0e8H
xdata	ENDS
;	COMDAT xdata
xdata	SEGMENT
$ip2state$??0?$vector@V?$Matrix@M$0?0$0?0$0A@$0?0$0?0@Eigen@@V?$allocator@V?$Matrix@M$0?0$0?0$0A@$0?0$0?0@Eigen@@@std@@@std@@QEAA@AEBV01@@Z DD 08600d006H
	DW	0b204H
	DB	00H
xdata	ENDS
;	COMDAT xdata
xdata	SEGMENT
$stateUnwindMap$??0?$vector@V?$Matrix@M$0?0$0?0$0A@$0?0$0?0@Eigen@@V?$allocator@V?$Matrix@M$0?0$0?0$0A@$0?0$0?0@Eigen@@@std@@@std@@QEAA@AEBV01@@Z DW 0a04H
	DD	imagerel ??1?$_Tidy_guard@V?$vector@V?$Matrix@M$0?0$0?0$0A@$0?0$0?0@Eigen@@V?$allocator@V?$Matrix@M$0?0$0?0$0A@$0?0$0?0@Eigen@@@std@@@std@@@std@@QEAA@XZ
	DW	03240H
	DD	imagerel ??1?$_Uninitialized_backout_al@V?$allocator@V?$Matrix@M$0?0$0?0$0A@$0?0$0?0@Eigen@@@std@@@std@@QEAA@XZ
	DB	050H
xdata	ENDS
;	COMDAT xdata
xdata	SEGMENT
$cppxdata$??0?$vector@V?$Matrix@M$0?0$0?0$0A@$0?0$0?0@Eigen@@V?$allocator@V?$Matrix@M$0?0$0?0$0A@$0?0$0?0@Eigen@@@std@@@std@@QEAA@AEBV01@@Z DB 028H
	DD	imagerel $stateUnwindMap$??0?$vector@V?$Matrix@M$0?0$0?0$0A@$0?0$0?0@Eigen@@V?$allocator@V?$Matrix@M$0?0$0?0$0A@$0?0$0?0@Eigen@@@std@@@std@@QEAA@AEBV01@@Z
	DD	imagerel $ip2state$??0?$vector@V?$Matrix@M$0?0$0?0$0A@$0?0$0?0@Eigen@@V?$allocator@V?$Matrix@M$0?0$0?0$0A@$0?0$0?0@Eigen@@@std@@@std@@QEAA@AEBV01@@Z
xdata	ENDS
;	COMDAT xdata
xdata	SEGMENT
$unwind$??0?$vector@V?$Matrix@M$0?0$0?0$0A@$0?0$0?0@Eigen@@V?$allocator@V?$Matrix@M$0?0$0?0$0A@$0?0$0?0@Eigen@@@std@@@std@@QEAA@AEBV01@@Z DQ 00011541200082119r ; 2.40981e-308
	DQ	0e00e921200103412r		; -5.12356e+154
	DD	0600b700cH
	DD	imagerel __GSHandlerCheck_EH4
	DD	imagerel $cppxdata$??0?$vector@V?$Matrix@M$0?0$0?0$0A@$0?0$0?0@Eigen@@V?$allocator@V?$Matrix@M$0?0$0?0$0A@$0?0$0?0@Eigen@@@std@@@std@@QEAA@AEBV01@@Z
	DD	042H
xdata	ENDS
;	COMDAT xdata
xdata	SEGMENT
$ip2state$??0?$function@$$A6AXAEAV?$Matrix@M$0?0$0?0$0A@$0?0$0?0@Eigen@@@Z@std@@QEAA@AEBV01@@Z DW 04802H
	DB	02H
xdata	ENDS
;	COMDAT xdata
xdata	SEGMENT
$stateUnwindMap$??0?$function@$$A6AXAEAV?$Matrix@M$0?0$0?0$0A@$0?0$0?0@Eigen@@@Z@std@@QEAA@AEBV01@@Z DW 0c02H
	DD	imagerel ??1?$_Func_class@XAEAV?$Matrix@M$0?0$0?0$0A@$0?0$0?0@Eigen@@@std@@QEAA@XZ
	DB	060H
xdata	ENDS
;	COMDAT xdata
xdata	SEGMENT
$cppxdata$??0?$function@$$A6AXAEAV?$Matrix@M$0?0$0?0$0A@$0?0$0?0@Eigen@@@Z@std@@QEAA@AEBV01@@Z DB 028H
	DD	imagerel $stateUnwindMap$??0?$function@$$A6AXAEAV?$Matrix@M$0?0$0?0$0A@$0?0$0?0@Eigen@@@Z@std@@QEAA@AEBV01@@Z
	DD	imagerel $ip2state$??0?$function@$$A6AXAEAV?$Matrix@M$0?0$0?0$0A@$0?0$0?0@Eigen@@@Z@std@@QEAA@AEBV01@@Z
xdata	ENDS
;	COMDAT xdata
xdata	SEGMENT
$unwind$??0?$function@$$A6AXAEAV?$Matrix@M$0?0$0?0$0A@$0?0$0?0@Eigen@@@Z@std@@QEAA@AEBV01@@Z DQ 03006320a00020a11r ; 2.39605e-77
	DD	imagerel __CxxFrameHandler4
	DD	imagerel $cppxdata$??0?$function@$$A6AXAEAV?$Matrix@M$0?0$0?0$0A@$0?0$0?0@Eigen@@@Z@std@@QEAA@AEBV01@@Z
xdata	ENDS
;	COMDAT xdata
xdata	SEGMENT
$unwind$??1?$_Func_class@XAEAV?$Matrix@M$0?0$0?0$0A@$0?0$0?0@Eigen@@@std@@QEAA@XZ DQ 03002320600020601r ; 1.96423e-77
xdata	ENDS
;	COMDAT xdata
xdata	SEGMENT
$unwind$??R?$_Func_class@XAEAV?$Matrix@M$0?0$0?0$0A@$0?0$0?0@Eigen@@@std@@QEBAXAEAV?$Matrix@M$0?0$0?0$0A@$0?0$0?0@Eigen@@@Z DQ 00000420400010401r ; 3.58617e-310
xdata	ENDS
;	COMDAT xdata
xdata	SEGMENT
$unwind$??4?$vector@MV?$allocator@M@std@@@std@@QEAAAEAV01@$$QEAV01@@Z DQ 00009640f00060f01r ; 1.30596e-308
	DQ	0700b320f0008340fr		; 5.2777e+231
xdata	ENDS
;	COMDAT xdata
xdata	SEGMENT
$unwind$??4?$vector@V?$vector@V?$Matrix@M$0?0$0?0$0A@$0?0$0?0@Eigen@@V?$allocator@V?$Matrix@M$0?0$0?0$0A@$0?0$0?0@Eigen@@@std@@@std@@V?$allocator@V?$vector@V?$Matrix@M$0?0$0?0$0A@$0?0$0?0@Eigen@@V?$allocator@V?$Matrix@M$0?0$0?0$0A@$0?0$0?0@Eigen@@@std@@@std@@@2@@std@@QEAAAEAV01@$$QEAV01@@Z DQ 00006340a00040a01r ; 8.62672e-309
	DD	07006320aH
xdata	ENDS
;	COMDAT xdata
xdata	SEGMENT
$unwind$?_Buy_raw@?$vector@V?$Matrix@M$0?0$0?0$0A@$0?0$0?0@Eigen@@V?$allocator@V?$Matrix@M$0?0$0?0$0A@$0?0$0?0@Eigen@@@std@@@std@@AEAAX_K@Z DQ 00006340a00040a01r ; 8.62672e-309
	DD	07006320aH
xdata	ENDS
;	COMDAT xdata
xdata	SEGMENT
$unwind$?_Tidy@?$_Func_class@XAEAV?$Matrix@M$0?0$0?0$0A@$0?0$0?0@Eigen@@@std@@IEAAXXZ DQ 03002320600020601r ; 1.96423e-77
xdata	ENDS
;	COMDAT xdata
xdata	SEGMENT
$unwind$?_Reset_copy@?$_Func_class@XAEAV?$Matrix@M$0?0$0?0$0A@$0?0$0?0@Eigen@@@std@@IEAAXAEBV12@@Z DQ 03002320600020601r ; 1.96423e-77
xdata	ENDS
;	COMDAT xdata
xdata	SEGMENT
$unwind$?_Move_assign@?$vector@MV?$allocator@M@std@@@std@@AEAAXAEAV12@U_Equal_allocators@2@@Z DQ 00009640f00060f01r ; 1.30596e-308
	DQ	0700b320f0008340fr		; 5.2777e+231
xdata	ENDS
;	COMDAT xdata
xdata	SEGMENT
$chain$1$?_Tidy@?$vector@V?$vector@V?$Matrix@M$0?0$0?0$0A@$0?0$0?0@Eigen@@V?$allocator@V?$Matrix@M$0?0$0?0$0A@$0?0$0?0@Eigen@@@std@@@std@@V?$allocator@V?$vector@V?$Matrix@M$0?0$0?0$0A@$0?0$0?0@Eigen@@V?$allocator@V?$Matrix@M$0?0$0?0$0A@$0?0$0?0@Eigen@@@std@@@std@@@2@@std@@AEAAXXZ DD 021H
	DD	imagerel $LN43@Tidy
	DD	imagerel $LN43@Tidy+25
	DD	imagerel $unwind$?_Tidy@?$vector@V?$vector@V?$Matrix@M$0?0$0?0$0A@$0?0$0?0@Eigen@@V?$allocator@V?$Matrix@M$0?0$0?0$0A@$0?0$0?0@Eigen@@@std@@@std@@V?$allocator@V?$vector@V?$Matrix@M$0?0$0?0$0A@$0?0$0?0@Eigen@@V?$allocator@V?$Matrix@M$0?0$0?0$0A@$0?0$0?0@Eigen@@@std@@@std@@@2@@std@@AEAAXXZ
xdata	ENDS
;	COMDAT xdata
xdata	SEGMENT
$chain$0$?_Tidy@?$vector@V?$vector@V?$Matrix@M$0?0$0?0$0A@$0?0$0?0@Eigen@@V?$allocator@V?$Matrix@M$0?0$0?0$0A@$0?0$0?0@Eigen@@@std@@@std@@V?$allocator@V?$vector@V?$Matrix@M$0?0$0?0$0A@$0?0$0?0@Eigen@@V?$allocator@V?$Matrix@M$0?0$0?0$0A@$0?0$0?0@Eigen@@@std@@@std@@@2@@std@@AEAAXXZ DQ 00007640500020521r ; 1.0278e-308
	DD	imagerel $LN43@Tidy
	DD	imagerel $LN43@Tidy+25
	DD	imagerel $unwind$?_Tidy@?$vector@V?$vector@V?$Matrix@M$0?0$0?0$0A@$0?0$0?0@Eigen@@V?$allocator@V?$Matrix@M$0?0$0?0$0A@$0?0$0?0@Eigen@@@std@@@std@@V?$allocator@V?$vector@V?$Matrix@M$0?0$0?0$0A@$0?0$0?0@Eigen@@V?$allocator@V?$Matrix@M$0?0$0?0$0A@$0?0$0?0@Eigen@@@std@@@std@@@2@@std@@AEAAXXZ
xdata	ENDS
;	COMDAT xdata
xdata	SEGMENT
$unwind$?_Tidy@?$vector@V?$vector@V?$Matrix@M$0?0$0?0$0A@$0?0$0?0@Eigen@@V?$allocator@V?$Matrix@M$0?0$0?0$0A@$0?0$0?0@Eigen@@@std@@@std@@V?$allocator@V?$vector@V?$Matrix@M$0?0$0?0$0A@$0?0$0?0@Eigen@@V?$allocator@V?$Matrix@M$0?0$0?0$0A@$0?0$0?0@Eigen@@@std@@@std@@@2@@std@@AEAAXXZ DQ 00008340a00040a01r ; 1.14081e-308
	DD	07006320aH
xdata	ENDS
;	COMDAT xdata
xdata	SEGMENT
$unwind$?_Move_assign@?$vector@V?$vector@V?$Matrix@M$0?0$0?0$0A@$0?0$0?0@Eigen@@V?$allocator@V?$Matrix@M$0?0$0?0$0A@$0?0$0?0@Eigen@@@std@@@std@@V?$allocator@V?$vector@V?$Matrix@M$0?0$0?0$0A@$0?0$0?0@Eigen@@V?$allocator@V?$Matrix@M$0?0$0?0$0A@$0?0$0?0@Eigen@@@std@@@std@@@2@@std@@AEAAXAEAV12@U_Equal_allocators@2@@Z DQ 00006340a00040a01r ; 8.62672e-309
	DD	07006320aH
xdata	ENDS
;	COMDAT xdata
xdata	SEGMENT
$unwind$?_Destroy@?$vector@V?$vector@V?$Matrix@M$0?0$0?0$0A@$0?0$0?0@Eigen@@V?$allocator@V?$Matrix@M$0?0$0?0$0A@$0?0$0?0@Eigen@@@std@@@std@@V?$allocator@V?$vector@V?$Matrix@M$0?0$0?0$0A@$0?0$0?0@Eigen@@V?$allocator@V?$Matrix@M$0?0$0?0$0A@$0?0$0?0@Eigen@@@std@@@std@@@2@@std@@AEAAXPEAV?$vector@V?$Matrix@M$0?0$0?0$0A@$0?0$0?0@Eigen@@V?$allocator@V?$Matrix@M$0?0$0?0$0A@$0?0$0?0@Eigen@@@std@@@2@0@Z DQ 00006340f00040f01r ; 8.62683e-309
	DD	0700b320fH
xdata	ENDS
;	COMDAT xdata
xdata	SEGMENT
$unwind$?deallocate@?$allocator@V?$vector@V?$Matrix@M$0?0$0?0$0A@$0?0$0?0@Eigen@@V?$allocator@V?$Matrix@M$0?0$0?0$0A@$0?0$0?0@Eigen@@@std@@@std@@@std@@QEAAXQEAV?$vector@V?$Matrix@M$0?0$0?0$0A@$0?0$0?0@Eigen@@V?$allocator@V?$Matrix@M$0?0$0?0$0A@$0?0$0?0@Eigen@@@std@@@2@_K@Z DQ 00000420400010401r ; 3.58617e-310
xdata	ENDS
;	COMDAT xdata
xdata	SEGMENT
$unwind$?sum@?$DenseBase@V?$CwiseBinaryOp@U?$scalar_product_op@MM@internal@Eigen@@$$CBV?$Matrix@M$0?0$0?0$0A@$0?0$0?0@3@$$CBV?$Block@$$CBV?$Matrix@M$0?0$0?0$0A@$0?0$0?0@Eigen@@$0?0$0?0$0A@@3@@Eigen@@@Eigen@@QEBAMXZ DQ 00000c20400011319r ; 1.05395e-309
	DD	imagerel __GSHandlerCheck
	DD	050H
xdata	ENDS
;	COMDAT xdata
xdata	SEGMENT
$ip2state$??$_Ucopy@PEAV?$Matrix@M$0?0$0?0$0A@$0?0$0?0@Eigen@@@?$vector@V?$Matrix@M$0?0$0?0$0A@$0?0$0?0@Eigen@@V?$allocator@V?$Matrix@M$0?0$0?0$0A@$0?0$0?0@Eigen@@@std@@@std@@AEAAPEAV?$Matrix@M$0?0$0?0$0A@$0?0$0?0@Eigen@@PEAV23@00@Z DD 0aa02b004H
	DB	00H
xdata	ENDS
;	COMDAT xdata
xdata	SEGMENT
$stateUnwindMap$??$_Ucopy@PEAV?$Matrix@M$0?0$0?0$0A@$0?0$0?0@Eigen@@@?$vector@V?$Matrix@M$0?0$0?0$0A@$0?0$0?0@Eigen@@V?$allocator@V?$Matrix@M$0?0$0?0$0A@$0?0$0?0@Eigen@@@std@@@std@@AEAAPEAV?$Matrix@M$0?0$0?0$0A@$0?0$0?0@Eigen@@PEAV23@00@Z DW 0a02H
	DD	imagerel ??1?$_Uninitialized_backout_al@V?$allocator@V?$Matrix@M$0?0$0?0$0A@$0?0$0?0@Eigen@@@std@@@std@@QEAA@XZ
	DB	040H
xdata	ENDS
;	COMDAT xdata
xdata	SEGMENT
$cppxdata$??$_Ucopy@PEAV?$Matrix@M$0?0$0?0$0A@$0?0$0?0@Eigen@@@?$vector@V?$Matrix@M$0?0$0?0$0A@$0?0$0?0@Eigen@@V?$allocator@V?$Matrix@M$0?0$0?0$0A@$0?0$0?0@Eigen@@@std@@@std@@AEAAPEAV?$Matrix@M$0?0$0?0$0A@$0?0$0?0@Eigen@@PEAV23@00@Z DB 028H
	DD	imagerel $stateUnwindMap$??$_Ucopy@PEAV?$Matrix@M$0?0$0?0$0A@$0?0$0?0@Eigen@@@?$vector@V?$Matrix@M$0?0$0?0$0A@$0?0$0?0@Eigen@@V?$allocator@V?$Matrix@M$0?0$0?0$0A@$0?0$0?0@Eigen@@@std@@@std@@AEAAPEAV?$Matrix@M$0?0$0?0$0A@$0?0$0?0@Eigen@@PEAV23@00@Z
	DD	imagerel $ip2state$??$_Ucopy@PEAV?$Matrix@M$0?0$0?0$0A@$0?0$0?0@Eigen@@@?$vector@V?$Matrix@M$0?0$0?0$0A@$0?0$0?0@Eigen@@V?$allocator@V?$Matrix@M$0?0$0?0$0A@$0?0$0?0@Eigen@@@std@@@std@@AEAAPEAV?$Matrix@M$0?0$0?0$0A@$0?0$0?0@Eigen@@PEAV23@00@Z
xdata	ENDS
;	COMDAT xdata
xdata	SEGMENT
$unwind$??$_Ucopy@PEAV?$Matrix@M$0?0$0?0$0A@$0?0$0?0@Eigen@@@?$vector@V?$Matrix@M$0?0$0?0$0A@$0?0$0?0@Eigen@@V?$allocator@V?$Matrix@M$0?0$0?0$0A@$0?0$0?0@Eigen@@@std@@@std@@AEAAPEAV?$Matrix@M$0?0$0?0$0A@$0?0$0?0@Eigen@@PEAV23@00@Z DQ 0000c640f00061e19r ; 1.72316e-308
	DQ	0700b720f000a340fr		; 5.32621e+231
	DD	imagerel __GSHandlerCheck_EH4
	DD	imagerel $cppxdata$??$_Ucopy@PEAV?$Matrix@M$0?0$0?0$0A@$0?0$0?0@Eigen@@@?$vector@V?$Matrix@M$0?0$0?0$0A@$0?0$0?0@Eigen@@V?$allocator@V?$Matrix@M$0?0$0?0$0A@$0?0$0?0@Eigen@@@std@@@std@@AEAAPEAV?$Matrix@M$0?0$0?0$0A@$0?0$0?0@Eigen@@PEAV23@00@Z
	DD	03aH
xdata	ENDS
;	COMDAT xdata
xdata	SEGMENT
$unwind$??$_Destroy_range@V?$allocator@V?$vector@V?$Matrix@M$0?0$0?0$0A@$0?0$0?0@Eigen@@V?$allocator@V?$Matrix@M$0?0$0?0$0A@$0?0$0?0@Eigen@@@std@@@std@@@std@@@std@@YAXPEAV?$vector@V?$Matrix@M$0?0$0?0$0A@$0?0$0?0@Eigen@@V?$allocator@V?$Matrix@M$0?0$0?0$0A@$0?0$0?0@Eigen@@@std@@@0@QEAV10@AEAV?$allocator@V?$vector@V?$Matrix@M$0?0$0?0$0A@$0?0$0?0@Eigen@@V?$allocator@V?$Matrix@M$0?0$0?0$0A@$0?0$0?0@Eigen@@@std@@@std@@@0@@Z DQ 00006340f00040f01r ; 8.62683e-309
	DD	0700b320fH
xdata	ENDS
;	COMDAT xdata
xdata	SEGMENT
$unwind$??$redux@U?$scalar_sum_op@MM@internal@Eigen@@@?$DenseBase@V?$CwiseBinaryOp@U?$scalar_product_op@MM@internal@Eigen@@$$CBV?$Matrix@M$0?0$0?0$0A@$0?0$0?0@3@$$CBV?$Block@$$CBV?$Matrix@M$0?0$0?0$0A@$0?0$0?0@Eigen@@$0?0$0?0$0A@@3@@Eigen@@@Eigen@@QEBAMAEBU?$scalar_sum_op@MM@internal@1@@Z DQ 00000a20400011319r ; 8.80119e-310
	DD	imagerel __GSHandlerCheck
	DD	048H
xdata	ENDS
;	COMDAT xdata
xdata	SEGMENT
$ip2state$??$_Uninitialized_copy@PEAV?$Matrix@M$0?0$0?0$0A@$0?0$0?0@Eigen@@V?$allocator@V?$Matrix@M$0?0$0?0$0A@$0?0$0?0@Eigen@@@std@@@std@@YAPEAV?$Matrix@M$0?0$0?0$0A@$0?0$0?0@Eigen@@QEAV12@0PEAV12@AEAV?$allocator@V?$Matrix@M$0?0$0?0$0A@$0?0$0?0@Eigen@@@0@@Z DD 0aa02b004H
	DB	00H
xdata	ENDS
;	COMDAT xdata
xdata	SEGMENT
$stateUnwindMap$??$_Uninitialized_copy@PEAV?$Matrix@M$0?0$0?0$0A@$0?0$0?0@Eigen@@V?$allocator@V?$Matrix@M$0?0$0?0$0A@$0?0$0?0@Eigen@@@std@@@std@@YAPEAV?$Matrix@M$0?0$0?0$0A@$0?0$0?0@Eigen@@QEAV12@0PEAV12@AEAV?$allocator@V?$Matrix@M$0?0$0?0$0A@$0?0$0?0@Eigen@@@0@@Z DW 0a02H
	DD	imagerel ??1?$_Uninitialized_backout_al@V?$allocator@V?$Matrix@M$0?0$0?0$0A@$0?0$0?0@Eigen@@@std@@@std@@QEAA@XZ
	DB	040H
xdata	ENDS
;	COMDAT xdata
xdata	SEGMENT
$cppxdata$??$_Uninitialized_copy@PEAV?$Matrix@M$0?0$0?0$0A@$0?0$0?0@Eigen@@V?$allocator@V?$Matrix@M$0?0$0?0$0A@$0?0$0?0@Eigen@@@std@@@std@@YAPEAV?$Matrix@M$0?0$0?0$0A@$0?0$0?0@Eigen@@QEAV12@0PEAV12@AEAV?$allocator@V?$Matrix@M$0?0$0?0$0A@$0?0$0?0@Eigen@@@0@@Z DB 028H
	DD	imagerel $stateUnwindMap$??$_Uninitialized_copy@PEAV?$Matrix@M$0?0$0?0$0A@$0?0$0?0@Eigen@@V?$allocator@V?$Matrix@M$0?0$0?0$0A@$0?0$0?0@Eigen@@@std@@@std@@YAPEAV?$Matrix@M$0?0$0?0$0A@$0?0$0?0@Eigen@@QEAV12@0PEAV12@AEAV?$allocator@V?$Matrix@M$0?0$0?0$0A@$0?0$0?0@Eigen@@@0@@Z
	DD	imagerel $ip2state$??$_Uninitialized_copy@PEAV?$Matrix@M$0?0$0?0$0A@$0?0$0?0@Eigen@@V?$allocator@V?$Matrix@M$0?0$0?0$0A@$0?0$0?0@Eigen@@@std@@@std@@YAPEAV?$Matrix@M$0?0$0?0$0A@$0?0$0?0@Eigen@@QEAV12@0PEAV12@AEAV?$allocator@V?$Matrix@M$0?0$0?0$0A@$0?0$0?0@Eigen@@@0@@Z
xdata	ENDS
;	COMDAT xdata
xdata	SEGMENT
$unwind$??$_Uninitialized_copy@PEAV?$Matrix@M$0?0$0?0$0A@$0?0$0?0@Eigen@@V?$allocator@V?$Matrix@M$0?0$0?0$0A@$0?0$0?0@Eigen@@@std@@@std@@YAPEAV?$Matrix@M$0?0$0?0$0A@$0?0$0?0@Eigen@@QEAV12@0PEAV12@AEAV?$allocator@V?$Matrix@M$0?0$0?0$0A@$0?0$0?0@Eigen@@@0@@Z DQ 0000c640f00061e19r ; 1.72316e-308
	DQ	0700b720f000b340fr		; 5.32621e+231
	DD	imagerel __GSHandlerCheck_EH4
	DD	imagerel $cppxdata$??$_Uninitialized_copy@PEAV?$Matrix@M$0?0$0?0$0A@$0?0$0?0@Eigen@@V?$allocator@V?$Matrix@M$0?0$0?0$0A@$0?0$0?0@Eigen@@@std@@@std@@YAPEAV?$Matrix@M$0?0$0?0$0A@$0?0$0?0@Eigen@@QEAV12@0PEAV12@AEAV?$allocator@V?$Matrix@M$0?0$0?0$0A@$0?0$0?0@Eigen@@@0@@Z
	DD	03aH
xdata	ENDS
;	COMDAT xdata
xdata	SEGMENT
$unwind$??_G?$vector@V?$Matrix@M$0?0$0?0$0A@$0?0$0?0@Eigen@@V?$allocator@V?$Matrix@M$0?0$0?0$0A@$0?0$0?0@Eigen@@@std@@@std@@QEAAPEAXI@Z DQ 03002320600020601r ; 1.96423e-77
xdata	ENDS
;	COMDAT xdata
xdata	SEGMENT
$chain$3$??$run@V?$CwiseBinaryOp@U?$scalar_product_op@MM@internal@Eigen@@$$CBV?$Matrix@M$0?0$0?0$0A@$0?0$0?0@3@$$CBV?$Block@$$CBV?$Matrix@M$0?0$0?0$0A@$0?0$0?0@Eigen@@$0?0$0?0$0A@@3@@Eigen@@@?$redux_impl@U?$scalar_sum_op@MM@internal@Eigen@@V?$redux_evaluator@V?$CwiseBinaryOp@U?$scalar_product_op@MM@internal@Eigen@@$$CBV?$Matrix@M$0?0$0?0$0A@$0?0$0?0@3@$$CBV?$Block@$$CBV?$Matrix@M$0?0$0?0$0A@$0?0$0?0@Eigen@@$0?0$0?0$0A@@3@@Eigen@@@23@$03$0A@@internal@Eigen@@SAMAEBV?$redux_evaluator@V?$CwiseBinaryOp@U?$scalar_product_op@MM@internal@Eigen@@$$CBV?$Matrix@M$0?0$0?0$0A@$0?0$0?0@3@$$CBV?$Block@$$CBV?$Matrix@M$0?0$0?0$0A@$0?0$0?0@Eigen@@$0?0$0?0$0A@@3@@Eigen@@@12@AEBU?$scalar_sum_op@MM@12@AEBV?$CwiseBinaryOp@U?$scalar_product_op@MM@internal@Eigen@@$$CBV?$Matrix@M$0?0$0?0$0A@$0?0$0?0@3@$$CBV?$Block@$$CBV?$Matrix@M$0?0$0?0$0A@$0?0$0?0@Eigen@@$0?0$0?0$0A@@3@@2@@Z DD 021H
	DD	imagerel $LN206@run
	DD	imagerel $LN206@run+51
	DD	imagerel $unwind$??$run@V?$CwiseBinaryOp@U?$scalar_product_op@MM@internal@Eigen@@$$CBV?$Matrix@M$0?0$0?0$0A@$0?0$0?0@3@$$CBV?$Block@$$CBV?$Matrix@M$0?0$0?0$0A@$0?0$0?0@Eigen@@$0?0$0?0$0A@@3@@Eigen@@@?$redux_impl@U?$scalar_sum_op@MM@internal@Eigen@@V?$redux_evaluator@V?$CwiseBinaryOp@U?$scalar_product_op@MM@internal@Eigen@@$$CBV?$Matrix@M$0?0$0?0$0A@$0?0$0?0@3@$$CBV?$Block@$$CBV?$Matrix@M$0?0$0?0$0A@$0?0$0?0@Eigen@@$0?0$0?0$0A@@3@@Eigen@@@23@$03$0A@@internal@Eigen@@SAMAEBV?$redux_evaluator@V?$CwiseBinaryOp@U?$scalar_product_op@MM@internal@Eigen@@$$CBV?$Matrix@M$0?0$0?0$0A@$0?0$0?0@3@$$CBV?$Block@$$CBV?$Matrix@M$0?0$0?0$0A@$0?0$0?0@Eigen@@$0?0$0?0$0A@@3@@Eigen@@@12@AEBU?$scalar_sum_op@MM@12@AEBV?$CwiseBinaryOp@U?$scalar_product_op@MM@internal@Eigen@@$$CBV?$Matrix@M$0?0$0?0$0A@$0?0$0?0@3@$$CBV?$Block@$$CBV?$Matrix@M$0?0$0?0$0A@$0?0$0?0@Eigen@@$0?0$0?0$0A@@3@@2@@Z
xdata	ENDS
;	COMDAT xdata
xdata	SEGMENT
$chain$2$??$run@V?$CwiseBinaryOp@U?$scalar_product_op@MM@internal@Eigen@@$$CBV?$Matrix@M$0?0$0?0$0A@$0?0$0?0@3@$$CBV?$Block@$$CBV?$Matrix@M$0?0$0?0$0A@$0?0$0?0@Eigen@@$0?0$0?0$0A@@3@@Eigen@@@?$redux_impl@U?$scalar_sum_op@MM@internal@Eigen@@V?$redux_evaluator@V?$CwiseBinaryOp@U?$scalar_product_op@MM@internal@Eigen@@$$CBV?$Matrix@M$0?0$0?0$0A@$0?0$0?0@3@$$CBV?$Block@$$CBV?$Matrix@M$0?0$0?0$0A@$0?0$0?0@Eigen@@$0?0$0?0$0A@@3@@Eigen@@@23@$03$0A@@internal@Eigen@@SAMAEBV?$redux_evaluator@V?$CwiseBinaryOp@U?$scalar_product_op@MM@internal@Eigen@@$$CBV?$Matrix@M$0?0$0?0$0A@$0?0$0?0@3@$$CBV?$Block@$$CBV?$Matrix@M$0?0$0?0$0A@$0?0$0?0@Eigen@@$0?0$0?0$0A@@3@@Eigen@@@12@AEBU?$scalar_sum_op@MM@12@AEBV?$CwiseBinaryOp@U?$scalar_product_op@MM@internal@Eigen@@$$CBV?$Matrix@M$0?0$0?0$0A@$0?0$0?0@3@$$CBV?$Block@$$CBV?$Matrix@M$0?0$0?0$0A@$0?0$0?0@Eigen@@$0?0$0?0$0A@@3@@2@@Z DD 021H
	DD	imagerel $LN206@run+51
	DD	imagerel $LN206@run+77
	DD	imagerel $chain$0$??$run@V?$CwiseBinaryOp@U?$scalar_product_op@MM@internal@Eigen@@$$CBV?$Matrix@M$0?0$0?0$0A@$0?0$0?0@3@$$CBV?$Block@$$CBV?$Matrix@M$0?0$0?0$0A@$0?0$0?0@Eigen@@$0?0$0?0$0A@@3@@Eigen@@@?$redux_impl@U?$scalar_sum_op@MM@internal@Eigen@@V?$redux_evaluator@V?$CwiseBinaryOp@U?$scalar_product_op@MM@internal@Eigen@@$$CBV?$Matrix@M$0?0$0?0$0A@$0?0$0?0@3@$$CBV?$Block@$$CBV?$Matrix@M$0?0$0?0$0A@$0?0$0?0@Eigen@@$0?0$0?0$0A@@3@@Eigen@@@23@$03$0A@@internal@Eigen@@SAMAEBV?$redux_evaluator@V?$CwiseBinaryOp@U?$scalar_product_op@MM@internal@Eigen@@$$CBV?$Matrix@M$0?0$0?0$0A@$0?0$0?0@3@$$CBV?$Block@$$CBV?$Matrix@M$0?0$0?0$0A@$0?0$0?0@Eigen@@$0?0$0?0$0A@@3@@Eigen@@@12@AEBU?$scalar_sum_op@MM@12@AEBV?$CwiseBinaryOp@U?$scalar_product_op@MM@internal@Eigen@@$$CBV?$Matrix@M$0?0$0?0$0A@$0?0$0?0@3@$$CBV?$Block@$$CBV?$Matrix@M$0?0$0?0$0A@$0?0$0?0@Eigen@@$0?0$0?0$0A@@3@@2@@Z
xdata	ENDS
;	COMDAT xdata
xdata	SEGMENT
$chain$1$??$run@V?$CwiseBinaryOp@U?$scalar_product_op@MM@internal@Eigen@@$$CBV?$Matrix@M$0?0$0?0$0A@$0?0$0?0@3@$$CBV?$Block@$$CBV?$Matrix@M$0?0$0?0$0A@$0?0$0?0@Eigen@@$0?0$0?0$0A@@3@@Eigen@@@?$redux_impl@U?$scalar_sum_op@MM@internal@Eigen@@V?$redux_evaluator@V?$CwiseBinaryOp@U?$scalar_product_op@MM@internal@Eigen@@$$CBV?$Matrix@M$0?0$0?0$0A@$0?0$0?0@3@$$CBV?$Block@$$CBV?$Matrix@M$0?0$0?0$0A@$0?0$0?0@Eigen@@$0?0$0?0$0A@@3@@Eigen@@@23@$03$0A@@internal@Eigen@@SAMAEBV?$redux_evaluator@V?$CwiseBinaryOp@U?$scalar_product_op@MM@internal@Eigen@@$$CBV?$Matrix@M$0?0$0?0$0A@$0?0$0?0@3@$$CBV?$Block@$$CBV?$Matrix@M$0?0$0?0$0A@$0?0$0?0@Eigen@@$0?0$0?0$0A@@3@@Eigen@@@12@AEBU?$scalar_sum_op@MM@12@AEBV?$CwiseBinaryOp@U?$scalar_product_op@MM@internal@Eigen@@$$CBV?$Matrix@M$0?0$0?0$0A@$0?0$0?0@3@$$CBV?$Block@$$CBV?$Matrix@M$0?0$0?0$0A@$0?0$0?0@Eigen@@$0?0$0?0$0A@@3@@2@@Z DQ 00004f40500020521r ; 6.88827e-309
	DD	imagerel $LN206@run+51
	DD	imagerel $LN206@run+77
	DD	imagerel $chain$0$??$run@V?$CwiseBinaryOp@U?$scalar_product_op@MM@internal@Eigen@@$$CBV?$Matrix@M$0?0$0?0$0A@$0?0$0?0@3@$$CBV?$Block@$$CBV?$Matrix@M$0?0$0?0$0A@$0?0$0?0@Eigen@@$0?0$0?0$0A@@3@@Eigen@@@?$redux_impl@U?$scalar_sum_op@MM@internal@Eigen@@V?$redux_evaluator@V?$CwiseBinaryOp@U?$scalar_product_op@MM@internal@Eigen@@$$CBV?$Matrix@M$0?0$0?0$0A@$0?0$0?0@3@$$CBV?$Block@$$CBV?$Matrix@M$0?0$0?0$0A@$0?0$0?0@Eigen@@$0?0$0?0$0A@@3@@Eigen@@@23@$03$0A@@internal@Eigen@@SAMAEBV?$redux_evaluator@V?$CwiseBinaryOp@U?$scalar_product_op@MM@internal@Eigen@@$$CBV?$Matrix@M$0?0$0?0$0A@$0?0$0?0@3@$$CBV?$Block@$$CBV?$Matrix@M$0?0$0?0$0A@$0?0$0?0@Eigen@@$0?0$0?0$0A@@3@@Eigen@@@12@AEBU?$scalar_sum_op@MM@12@AEBV?$CwiseBinaryOp@U?$scalar_product_op@MM@internal@Eigen@@$$CBV?$Matrix@M$0?0$0?0$0A@$0?0$0?0@3@$$CBV?$Block@$$CBV?$Matrix@M$0?0$0?0$0A@$0?0$0?0@Eigen@@$0?0$0?0$0A@@3@@2@@Z
xdata	ENDS
;	COMDAT xdata
xdata	SEGMENT
$chain$0$??$run@V?$CwiseBinaryOp@U?$scalar_product_op@MM@internal@Eigen@@$$CBV?$Matrix@M$0?0$0?0$0A@$0?0$0?0@3@$$CBV?$Block@$$CBV?$Matrix@M$0?0$0?0$0A@$0?0$0?0@Eigen@@$0?0$0?0$0A@@3@@Eigen@@@?$redux_impl@U?$scalar_sum_op@MM@internal@Eigen@@V?$redux_evaluator@V?$CwiseBinaryOp@U?$scalar_product_op@MM@internal@Eigen@@$$CBV?$Matrix@M$0?0$0?0$0A@$0?0$0?0@3@$$CBV?$Block@$$CBV?$Matrix@M$0?0$0?0$0A@$0?0$0?0@Eigen@@$0?0$0?0$0A@@3@@Eigen@@@23@$03$0A@@internal@Eigen@@SAMAEBV?$redux_evaluator@V?$CwiseBinaryOp@U?$scalar_product_op@MM@internal@Eigen@@$$CBV?$Matrix@M$0?0$0?0$0A@$0?0$0?0@3@$$CBV?$Block@$$CBV?$Matrix@M$0?0$0?0$0A@$0?0$0?0@Eigen@@$0?0$0?0$0A@@3@@Eigen@@@12@AEBU?$scalar_sum_op@MM@12@AEBV?$CwiseBinaryOp@U?$scalar_product_op@MM@internal@Eigen@@$$CBV?$Matrix@M$0?0$0?0$0A@$0?0$0?0@3@$$CBV?$Block@$$CBV?$Matrix@M$0?0$0?0$0A@$0?0$0?0@Eigen@@$0?0$0?0$0A@@3@@2@@Z DQ 00003e40500020521r ; 5.41069e-309
	DD	imagerel $LN206@run
	DD	imagerel $LN206@run+51
	DD	imagerel $unwind$??$run@V?$CwiseBinaryOp@U?$scalar_product_op@MM@internal@Eigen@@$$CBV?$Matrix@M$0?0$0?0$0A@$0?0$0?0@3@$$CBV?$Block@$$CBV?$Matrix@M$0?0$0?0$0A@$0?0$0?0@Eigen@@$0?0$0?0$0A@@3@@Eigen@@@?$redux_impl@U?$scalar_sum_op@MM@internal@Eigen@@V?$redux_evaluator@V?$CwiseBinaryOp@U?$scalar_product_op@MM@internal@Eigen@@$$CBV?$Matrix@M$0?0$0?0$0A@$0?0$0?0@3@$$CBV?$Block@$$CBV?$Matrix@M$0?0$0?0$0A@$0?0$0?0@Eigen@@$0?0$0?0$0A@@3@@Eigen@@@23@$03$0A@@internal@Eigen@@SAMAEBV?$redux_evaluator@V?$CwiseBinaryOp@U?$scalar_product_op@MM@internal@Eigen@@$$CBV?$Matrix@M$0?0$0?0$0A@$0?0$0?0@3@$$CBV?$Block@$$CBV?$Matrix@M$0?0$0?0$0A@$0?0$0?0@Eigen@@$0?0$0?0$0A@@3@@Eigen@@@12@AEBU?$scalar_sum_op@MM@12@AEBV?$CwiseBinaryOp@U?$scalar_product_op@MM@internal@Eigen@@$$CBV?$Matrix@M$0?0$0?0$0A@$0?0$0?0@3@$$CBV?$Block@$$CBV?$Matrix@M$0?0$0?0$0A@$0?0$0?0@Eigen@@$0?0$0?0$0A@@3@@2@@Z
xdata	ENDS
;	COMDAT xdata
xdata	SEGMENT
$unwind$??$run@V?$CwiseBinaryOp@U?$scalar_product_op@MM@internal@Eigen@@$$CBV?$Matrix@M$0?0$0?0$0A@$0?0$0?0@3@$$CBV?$Block@$$CBV?$Matrix@M$0?0$0?0$0A@$0?0$0?0@Eigen@@$0?0$0?0$0A@@3@@Eigen@@@?$redux_impl@U?$scalar_sum_op@MM@internal@Eigen@@V?$redux_evaluator@V?$CwiseBinaryOp@U?$scalar_product_op@MM@internal@Eigen@@$$CBV?$Matrix@M$0?0$0?0$0A@$0?0$0?0@3@$$CBV?$Block@$$CBV?$Matrix@M$0?0$0?0$0A@$0?0$0?0@Eigen@@$0?0$0?0$0A@@3@@Eigen@@@23@$03$0A@@internal@Eigen@@SAMAEBV?$redux_evaluator@V?$CwiseBinaryOp@U?$scalar_product_op@MM@internal@Eigen@@$$CBV?$Matrix@M$0?0$0?0$0A@$0?0$0?0@3@$$CBV?$Block@$$CBV?$Matrix@M$0?0$0?0$0A@$0?0$0?0@Eigen@@$0?0$0?0$0A@@3@@Eigen@@@12@AEBU?$scalar_sum_op@MM@12@AEBV?$CwiseBinaryOp@U?$scalar_product_op@MM@internal@Eigen@@$$CBV?$Matrix@M$0?0$0?0$0A@$0?0$0?0@3@$$CBV?$Block@$$CBV?$Matrix@M$0?0$0?0$0A@$0?0$0?0@Eigen@@$0?0$0?0$0A@@3@@2@@Z DQ 00006540c00060c01r ; 8.8006e-309
	DQ	0600b700c0005340cr		; 4.59849e+154
xdata	ENDS
;	COMDAT xdata
xdata	SEGMENT
$unwind$??$_Emplace_back@AEAV?$Matrix@M$0?0$0?0$0A@$0?0$0?0@Eigen@@@?$_Uninitialized_backout_al@V?$allocator@V?$Matrix@M$0?0$0?0$0A@$0?0$0?0@Eigen@@@std@@@std@@QEAAXAEAV?$Matrix@M$0?0$0?0$0A@$0?0$0?0@Eigen@@@Z DQ 00007640f00060f01r ; 1.02782e-308
	DQ	0700b320f0006340fr		; 5.2777e+231
xdata	ENDS
;	COMDAT xdata
xdata	SEGMENT
$unwind$??$packet@$0A@T__m128@@@?$binary_evaluator@V?$CwiseBinaryOp@U?$scalar_product_op@MM@internal@Eigen@@$$CBV?$Matrix@M$0?0$0?0$0A@$0?0$0?0@3@$$CBV?$Block@$$CBV?$Matrix@M$0?0$0?0$0A@$0?0$0?0@Eigen@@$0?0$0?0$0A@@3@@Eigen@@UIndexBased@internal@2@U342@MM@internal@Eigen@@QEBA?AT__m128@@_J0@Z DQ 00001340500020501r ; 1.67326e-309
xdata	ENDS
;	COMDAT xdata
xdata	SEGMENT
$unwind$??$packetByOuterInner@$0A@T__m128@@@?$redux_evaluator@V?$CwiseBinaryOp@U?$scalar_product_op@MM@internal@Eigen@@$$CBV?$Matrix@M$0?0$0?0$0A@$0?0$0?0@3@$$CBV?$Block@$$CBV?$Matrix@M$0?0$0?0$0A@$0?0$0?0@Eigen@@$0?0$0?0$0A@@3@@Eigen@@@internal@Eigen@@QEBA?AT__m128@@_J0@Z DQ 00001340500020501r ; 1.67326e-309
xdata	ENDS
;	COMDAT xdata
xdata	SEGMENT
$unwind$??$run@V?$CwiseBinaryOp@U?$scalar_product_op@MM@internal@Eigen@@$$CBV?$Matrix@M$0?0$0?0$0A@$0?0$0?0@3@$$CBV?$Block@$$CBV?$Matrix@M$0?0$0?0$0A@$0?0$0?0@Eigen@@$0?0$0?0$0A@@3@@Eigen@@@?$redux_impl@U?$scalar_sum_op@MM@internal@Eigen@@V?$redux_evaluator@V?$CwiseBinaryOp@U?$scalar_product_op@MM@internal@Eigen@@$$CBV?$Matrix@M$0?0$0?0$0A@$0?0$0?0@3@$$CBV?$Block@$$CBV?$Matrix@M$0?0$0?0$0A@$0?0$0?0@Eigen@@$0?0$0?0$0A@@3@@Eigen@@@23@$0A@$0A@@internal@Eigen@@SAMAEBV?$redux_evaluator@V?$CwiseBinaryOp@U?$scalar_product_op@MM@internal@Eigen@@$$CBV?$Matrix@M$0?0$0?0$0A@$0?0$0?0@3@$$CBV?$Block@$$CBV?$Matrix@M$0?0$0?0$0A@$0?0$0?0@Eigen@@$0?0$0?0$0A@@3@@Eigen@@@12@AEBU?$scalar_sum_op@MM@12@AEBV?$CwiseBinaryOp@U?$scalar_product_op@MM@internal@Eigen@@$$CBV?$Matrix@M$0?0$0?0$0A@$0?0$0?0@3@$$CBV?$Block@$$CBV?$Matrix@M$0?0$0?0$0A@$0?0$0?0@Eigen@@$0?0$0?0$0A@@3@@2@@Z DQ 00003740f00060f01r ; 4.80248e-309
	DQ	0000134050002640ar		; 1.67326e-309
xdata	ENDS
;	COMDAT xdata
xdata	SEGMENT
$unwind$??$construct@V?$Matrix@M$0?0$0?0$0A@$0?0$0?0@Eigen@@AEAV12@@?$_Default_allocator_traits@V?$allocator@V?$Matrix@M$0?0$0?0$0A@$0?0$0?0@Eigen@@@std@@@std@@SAXAEAV?$allocator@V?$Matrix@M$0?0$0?0$0A@$0?0$0?0@Eigen@@@1@QEAV?$Matrix@M$0?0$0?0$0A@$0?0$0?0@Eigen@@AEAV34@@Z DQ 00006340a00040a01r ; 8.62672e-309
	DD	07006320aH
?end$initializer$@placeholders@Eigen@@3P6AXXZEA DQ FLAT:??__Eend@placeholders@Eigen@@YAXXZ ; Eigen::placeholders::end$initializer$
END
