; Listing generated by Microsoft (R) Optimizing Compiler Version 19.27.29112.0 

include listing.inc

INCLUDELIB OLDNAMES

PUBLIC	??_R0?AV?$_Func_base@XAEAV?$Matrix@M$02$0ELA@$0A@$02$0ELA@@Eigen@@@std@@@8 ; std::_Func_base<void,Eigen::Matrix<float,3,1200,0,3,1200> &> `RTTI Type Descriptor'
PUBLIC	??_R3?$_Func_base@XAEAV?$Matrix@M$04$0HAI@$0A@$04$0HAI@@Eigen@@@std@@8 ; std::_Func_base<void,Eigen::Matrix<float,5,1800,0,5,1800> &>::`RTTI Class Hierarchy Descriptor'
PUBLIC	??_R0?AV?$_Func_base@XAEAV?$Matrix@M$00$00$0A@$00$00@Eigen@@@std@@@8 ; std::_Func_base<void,Eigen::Matrix<float,1,1,0,1,1> &> `RTTI Type Descriptor'
PUBLIC	??_R1A@?0A@EA@?$_Func_base@XAEAV?$Matrix@M$00$00$0A@$00$00@Eigen@@@std@@8 ; std::_Func_base<void,Eigen::Matrix<float,1,1,0,1,1> &>::`RTTI Base Class Descriptor at (0,-1,0,64)'
PUBLIC	??_R3?$_Func_base@XAEAV?$Matrix@M$02$0ELA@$0A@$02$0ELA@@Eigen@@@std@@8 ; std::_Func_base<void,Eigen::Matrix<float,3,1200,0,3,1200> &>::`RTTI Class Hierarchy Descriptor'
PUBLIC	??_R2?$_Func_base@XAEAV?$Matrix@M$01$0DIE@$0A@$01$0DIE@@Eigen@@@std@@8 ; std::_Func_base<void,Eigen::Matrix<float,2,900,0,2,900> &>::`RTTI Base Class Array'
PUBLIC	??_R0?AV?$_Func_base@XAEAV?$Matrix@M$03$0FNM@$0A@$03$0FNM@@Eigen@@@std@@@8 ; std::_Func_base<void,Eigen::Matrix<float,4,1500,0,4,1500> &> `RTTI Type Descriptor'
PUBLIC	?layersInformation@@3QBUlayerInfo@@B		; layersInformation
PUBLIC	??_R2?$_Func_base@XAEAV?$Matrix@M$03$0FNM@$0A@$03$0FNM@@Eigen@@@std@@8 ; std::_Func_base<void,Eigen::Matrix<float,4,1500,0,4,1500> &>::`RTTI Base Class Array'
PUBLIC	??_R0?AV?$_Func_base@XAEAV?$Matrix@M$0CFI@$00$0A@$0CFI@$00@Eigen@@@std@@@8 ; std::_Func_base<void,Eigen::Matrix<float,600,1,0,600,1> &> `RTTI Type Descriptor'
PUBLIC	??_R0?AV?$_Func_base@XAEAV?$Matrix@M$04$0HAI@$0A@$04$0HAI@@Eigen@@@std@@@8 ; std::_Func_base<void,Eigen::Matrix<float,5,1800,0,5,1800> &> `RTTI Type Descriptor'
PUBLIC	??_R0?AV?$_Func_base@XAEAV?$Matrix@M$00$0CFI@$00$00$0CFI@@Eigen@@@std@@@8 ; std::_Func_base<void,Eigen::Matrix<float,1,600,1,1,600> &> `RTTI Type Descriptor'
PUBLIC	??_R1A@?0A@EA@?$_Func_base@XAEAV?$Matrix@M$01$0DIE@$0A@$01$0DIE@@Eigen@@@std@@8 ; std::_Func_base<void,Eigen::Matrix<float,2,900,0,2,900> &>::`RTTI Base Class Descriptor at (0,-1,0,64)'
PUBLIC	??_R2?$_Func_base@XAEAV?$Matrix@M$04$0HAI@$0A@$04$0HAI@@Eigen@@@std@@8 ; std::_Func_base<void,Eigen::Matrix<float,5,1800,0,5,1800> &>::`RTTI Base Class Array'
PUBLIC	??_R3?$_Func_base@XAEAV?$Matrix@M$00$00$0A@$00$00@Eigen@@@std@@8 ; std::_Func_base<void,Eigen::Matrix<float,1,1,0,1,1> &>::`RTTI Class Hierarchy Descriptor'
PUBLIC	??_R2?$_Func_base@XAEAV?$Matrix@M$02$0ELA@$0A@$02$0ELA@@Eigen@@@std@@8 ; std::_Func_base<void,Eigen::Matrix<float,3,1200,0,3,1200> &>::`RTTI Base Class Array'
PUBLIC	??_R2?$_Func_base@XAEAV?$Matrix@M$00$00$0A@$00$00@Eigen@@@std@@8 ; std::_Func_base<void,Eigen::Matrix<float,1,1,0,1,1> &>::`RTTI Base Class Array'
PUBLIC	??_R3?$_Func_base@XAEAV?$Matrix@M$03$0FNM@$0A@$03$0FNM@@Eigen@@@std@@8 ; std::_Func_base<void,Eigen::Matrix<float,4,1500,0,4,1500> &>::`RTTI Class Hierarchy Descriptor'
PUBLIC	_CTA2?AVbad_alloc@std@@
PUBLIC	??_R3?$_Func_base@XAEAV?$Matrix@M$0CFI@$00$0A@$0CFI@$00@Eigen@@@std@@8 ; std::_Func_base<void,Eigen::Matrix<float,600,1,0,600,1> &>::`RTTI Class Hierarchy Descriptor'
PUBLIC	??_R0?AV?$_Func_base@XAEAV?$Matrix@M$01$0DIE@$0A@$01$0DIE@@Eigen@@@std@@@8 ; std::_Func_base<void,Eigen::Matrix<float,2,900,0,2,900> &> `RTTI Type Descriptor'
PUBLIC	??_R1A@?0A@EA@?$_Func_base@XAEAV?$Matrix@M$04$0HAI@$0A@$04$0HAI@@Eigen@@@std@@8 ; std::_Func_base<void,Eigen::Matrix<float,5,1800,0,5,1800> &>::`RTTI Base Class Descriptor at (0,-1,0,64)'
PUBLIC	??_R1A@?0A@EA@?$_Func_base@XAEAV?$Matrix@M$02$0ELA@$0A@$02$0ELA@@Eigen@@@std@@8 ; std::_Func_base<void,Eigen::Matrix<float,3,1200,0,3,1200> &>::`RTTI Base Class Descriptor at (0,-1,0,64)'
PUBLIC	??_R1A@?0A@EA@?$_Func_base@XAEAV?$Matrix@M$00$0CFI@$00$00$0CFI@@Eigen@@@std@@8 ; std::_Func_base<void,Eigen::Matrix<float,1,600,1,1,600> &>::`RTTI Base Class Descriptor at (0,-1,0,64)'
PUBLIC	??_R3?$_Func_base@XAEAV?$Matrix@M$01$0DIE@$0A@$01$0DIE@@Eigen@@@std@@8 ; std::_Func_base<void,Eigen::Matrix<float,2,900,0,2,900> &>::`RTTI Class Hierarchy Descriptor'
PUBLIC	??_R3?$_Func_base@XAEAV?$Matrix@M$00$0CFI@$00$00$0CFI@@Eigen@@@std@@8 ; std::_Func_base<void,Eigen::Matrix<float,1,600,1,1,600> &>::`RTTI Class Hierarchy Descriptor'
PUBLIC	??_R2?$_Func_base@XAEAV?$Matrix@M$00$0CFI@$00$00$0CFI@@Eigen@@@std@@8 ; std::_Func_base<void,Eigen::Matrix<float,1,600,1,1,600> &>::`RTTI Base Class Array'
PUBLIC	??_R1A@?0A@EA@?$_Func_base@XAEAV?$Matrix@M$03$0FNM@$0A@$03$0FNM@@Eigen@@@std@@8 ; std::_Func_base<void,Eigen::Matrix<float,4,1500,0,4,1500> &>::`RTTI Base Class Descriptor at (0,-1,0,64)'
PUBLIC	??_R1A@?0A@EA@?$_Func_base@XAEAV?$Matrix@M$0CFI@$00$0A@$0CFI@$00@Eigen@@@std@@8 ; std::_Func_base<void,Eigen::Matrix<float,600,1,0,600,1> &>::`RTTI Base Class Descriptor at (0,-1,0,64)'
PUBLIC	_TI2?AVbad_alloc@std@@
PUBLIC	??_R2?$_Func_base@XAEAV?$Matrix@M$0CFI@$00$0A@$0CFI@$00@Eigen@@@std@@8 ; std::_Func_base<void,Eigen::Matrix<float,600,1,0,600,1> &>::`RTTI Base Class Array'
PUBLIC	??_C@_0P@GHFPNOJB@bad?5allocation@		; `string'
EXTRN	__imp_malloc:PROC
EXTRN	__imp_free:PROC
EXTRN	__imp_?_Xbad_function_call@std@@YAXXZ:PROC
;	COMDAT ??_C@_0P@GHFPNOJB@bad?5allocation@
CONST	SEGMENT
??_C@_0P@GHFPNOJB@bad?5allocation@ DB 'bad allocation', 00H ; `string'
CONST	ENDS
;	COMDAT ??_R4?$_Func_impl_no_alloc@V<lambda_7c64d632bde275759d15ad8612349e4b>@@XAEAV?$Matrix@M$0CFI@$00$0A@$0CFI@$00@Eigen@@@std@@6B@
rdata$r	SEGMENT
??_R4?$_Func_impl_no_alloc@V<lambda_7c64d632bde275759d15ad8612349e4b>@@XAEAV?$Matrix@M$0CFI@$00$0A@$0CFI@$00@Eigen@@@std@@6B@ DD 01H ; std::_Func_impl_no_alloc<<lambda_7c64d632bde275759d15ad8612349e4b>,void,Eigen::Matrix<float,600,1,0,600,1> &>::`RTTI Complete Object Locator'
	DD	00H
	DD	00H
	DD	imagerel ??_R0?AV?$_Func_impl_no_alloc@V<lambda_7c64d632bde275759d15ad8612349e4b>@@XAEAV?$Matrix@M$0CFI@$00$0A@$0CFI@$00@Eigen@@@std@@@8
	DD	imagerel ??_R3?$_Func_impl_no_alloc@V<lambda_7c64d632bde275759d15ad8612349e4b>@@XAEAV?$Matrix@M$0CFI@$00$0A@$0CFI@$00@Eigen@@@std@@8
	DD	imagerel ??_R4?$_Func_impl_no_alloc@V<lambda_7c64d632bde275759d15ad8612349e4b>@@XAEAV?$Matrix@M$0CFI@$00$0A@$0CFI@$00@Eigen@@@std@@6B@
rdata$r	ENDS
;	COMDAT ??_R2?$_Func_base@XAEAV?$Matrix@M$0CFI@$00$0A@$0CFI@$00@Eigen@@@std@@8
rdata$r	SEGMENT
??_R2?$_Func_base@XAEAV?$Matrix@M$0CFI@$00$0A@$0CFI@$00@Eigen@@@std@@8 DD imagerel ??_R1A@?0A@EA@?$_Func_base@XAEAV?$Matrix@M$0CFI@$00$0A@$0CFI@$00@Eigen@@@std@@8 ; std::_Func_base<void,Eigen::Matrix<float,600,1,0,600,1> &>::`RTTI Base Class Array'
	ORG $+3
rdata$r	ENDS
;	COMDAT _TI2?AVbad_alloc@std@@
xdata$x	SEGMENT
_TI2?AVbad_alloc@std@@ DD 00H
	DD	imagerel ??1bad_alloc@std@@UEAA@XZ
	DD	00H
	DD	imagerel _CTA2?AVbad_alloc@std@@
xdata$x	ENDS
;	COMDAT ??_R2?$_Func_impl_no_alloc@V<lambda_7c64d632bde275759d15ad8612349e4b>@@XAEAV?$Matrix@M$0CFI@$00$0A@$0CFI@$00@Eigen@@@std@@8
rdata$r	SEGMENT
??_R2?$_Func_impl_no_alloc@V<lambda_7c64d632bde275759d15ad8612349e4b>@@XAEAV?$Matrix@M$0CFI@$00$0A@$0CFI@$00@Eigen@@@std@@8 DD imagerel ??_R1A@?0A@EA@?$_Func_impl_no_alloc@V<lambda_7c64d632bde275759d15ad8612349e4b>@@XAEAV?$Matrix@M$0CFI@$00$0A@$0CFI@$00@Eigen@@@std@@8 ; std::_Func_impl_no_alloc<<lambda_7c64d632bde275759d15ad8612349e4b>,void,Eigen::Matrix<float,600,1,0,600,1> &>::`RTTI Base Class Array'
	DD	imagerel ??_R1A@?0A@EA@?$_Func_base@XAEAV?$Matrix@M$0CFI@$00$0A@$0CFI@$00@Eigen@@@std@@8
	ORG $+3
rdata$r	ENDS
;	COMDAT ??_R1A@?0A@EA@?$_Func_base@XAEAV?$Matrix@M$0CFI@$00$0A@$0CFI@$00@Eigen@@@std@@8
rdata$r	SEGMENT
??_R1A@?0A@EA@?$_Func_base@XAEAV?$Matrix@M$0CFI@$00$0A@$0CFI@$00@Eigen@@@std@@8 DD imagerel ??_R0?AV?$_Func_base@XAEAV?$Matrix@M$0CFI@$00$0A@$0CFI@$00@Eigen@@@std@@@8 ; std::_Func_base<void,Eigen::Matrix<float,600,1,0,600,1> &>::`RTTI Base Class Descriptor at (0,-1,0,64)'
	DD	00H
	DD	00H
	DD	0ffffffffH
	DD	00H
	DD	040H
	DD	imagerel ??_R3?$_Func_base@XAEAV?$Matrix@M$0CFI@$00$0A@$0CFI@$00@Eigen@@@std@@8
rdata$r	ENDS
;	COMDAT ??_R1A@?0A@EA@?$_Func_base@XAEAV?$Matrix@M$03$0FNM@$0A@$03$0FNM@@Eigen@@@std@@8
rdata$r	SEGMENT
??_R1A@?0A@EA@?$_Func_base@XAEAV?$Matrix@M$03$0FNM@$0A@$03$0FNM@@Eigen@@@std@@8 DD imagerel ??_R0?AV?$_Func_base@XAEAV?$Matrix@M$03$0FNM@$0A@$03$0FNM@@Eigen@@@std@@@8 ; std::_Func_base<void,Eigen::Matrix<float,4,1500,0,4,1500> &>::`RTTI Base Class Descriptor at (0,-1,0,64)'
	DD	00H
	DD	00H
	DD	0ffffffffH
	DD	00H
	DD	040H
	DD	imagerel ??_R3?$_Func_base@XAEAV?$Matrix@M$03$0FNM@$0A@$03$0FNM@@Eigen@@@std@@8
rdata$r	ENDS
;	COMDAT ??_R1A@?0A@EA@?$_Func_impl_no_alloc@V<lambda_e59a36d63fa9b180d2bdb46e4e73b762>@@XAEAV?$Matrix@M$00$0CFI@$00$00$0CFI@@Eigen@@@std@@8
rdata$r	SEGMENT
??_R1A@?0A@EA@?$_Func_impl_no_alloc@V<lambda_e59a36d63fa9b180d2bdb46e4e73b762>@@XAEAV?$Matrix@M$00$0CFI@$00$00$0CFI@@Eigen@@@std@@8 DD imagerel ??_R0?AV?$_Func_impl_no_alloc@V<lambda_e59a36d63fa9b180d2bdb46e4e73b762>@@XAEAV?$Matrix@M$00$0CFI@$00$00$0CFI@@Eigen@@@std@@@8 ; std::_Func_impl_no_alloc<<lambda_e59a36d63fa9b180d2bdb46e4e73b762>,void,Eigen::Matrix<float,1,600,1,1,600> &>::`RTTI Base Class Descriptor at (0,-1,0,64)'
	DD	01H
	DD	00H
	DD	0ffffffffH
	DD	00H
	DD	040H
	DD	imagerel ??_R3?$_Func_impl_no_alloc@V<lambda_e59a36d63fa9b180d2bdb46e4e73b762>@@XAEAV?$Matrix@M$00$0CFI@$00$00$0CFI@@Eigen@@@std@@8
rdata$r	ENDS
;	COMDAT ??_R1A@?0A@EA@?$_Func_impl_no_alloc@V<lambda_7c64d632bde275759d15ad8612349e4b>@@XAEAV?$Matrix@M$0CFI@$00$0A@$0CFI@$00@Eigen@@@std@@8
rdata$r	SEGMENT
??_R1A@?0A@EA@?$_Func_impl_no_alloc@V<lambda_7c64d632bde275759d15ad8612349e4b>@@XAEAV?$Matrix@M$0CFI@$00$0A@$0CFI@$00@Eigen@@@std@@8 DD imagerel ??_R0?AV?$_Func_impl_no_alloc@V<lambda_7c64d632bde275759d15ad8612349e4b>@@XAEAV?$Matrix@M$0CFI@$00$0A@$0CFI@$00@Eigen@@@std@@@8 ; std::_Func_impl_no_alloc<<lambda_7c64d632bde275759d15ad8612349e4b>,void,Eigen::Matrix<float,600,1,0,600,1> &>::`RTTI Base Class Descriptor at (0,-1,0,64)'
	DD	01H
	DD	00H
	DD	0ffffffffH
	DD	00H
	DD	040H
	DD	imagerel ??_R3?$_Func_impl_no_alloc@V<lambda_7c64d632bde275759d15ad8612349e4b>@@XAEAV?$Matrix@M$0CFI@$00$0A@$0CFI@$00@Eigen@@@std@@8
rdata$r	ENDS
;	COMDAT ??_R4?$_Func_impl_no_alloc@V<lambda_4b6a8a51850f5d545928c34009db14a7>@@XAEAV?$Matrix@M$02$0ELA@$0A@$02$0ELA@@Eigen@@@std@@6B@
rdata$r	SEGMENT
??_R4?$_Func_impl_no_alloc@V<lambda_4b6a8a51850f5d545928c34009db14a7>@@XAEAV?$Matrix@M$02$0ELA@$0A@$02$0ELA@@Eigen@@@std@@6B@ DD 01H ; std::_Func_impl_no_alloc<<lambda_4b6a8a51850f5d545928c34009db14a7>,void,Eigen::Matrix<float,3,1200,0,3,1200> &>::`RTTI Complete Object Locator'
	DD	00H
	DD	00H
	DD	imagerel ??_R0?AV?$_Func_impl_no_alloc@V<lambda_4b6a8a51850f5d545928c34009db14a7>@@XAEAV?$Matrix@M$02$0ELA@$0A@$02$0ELA@@Eigen@@@std@@@8
	DD	imagerel ??_R3?$_Func_impl_no_alloc@V<lambda_4b6a8a51850f5d545928c34009db14a7>@@XAEAV?$Matrix@M$02$0ELA@$0A@$02$0ELA@@Eigen@@@std@@8
	DD	imagerel ??_R4?$_Func_impl_no_alloc@V<lambda_4b6a8a51850f5d545928c34009db14a7>@@XAEAV?$Matrix@M$02$0ELA@$0A@$02$0ELA@@Eigen@@@std@@6B@
rdata$r	ENDS
;	COMDAT ??_R2?$_Func_base@XAEAV?$Matrix@M$00$0CFI@$00$00$0CFI@@Eigen@@@std@@8
rdata$r	SEGMENT
??_R2?$_Func_base@XAEAV?$Matrix@M$00$0CFI@$00$00$0CFI@@Eigen@@@std@@8 DD imagerel ??_R1A@?0A@EA@?$_Func_base@XAEAV?$Matrix@M$00$0CFI@$00$00$0CFI@@Eigen@@@std@@8 ; std::_Func_base<void,Eigen::Matrix<float,1,600,1,1,600> &>::`RTTI Base Class Array'
	ORG $+3
rdata$r	ENDS
;	COMDAT ??_R3?$_Func_base@XAEAV?$Matrix@M$00$0CFI@$00$00$0CFI@@Eigen@@@std@@8
rdata$r	SEGMENT
??_R3?$_Func_base@XAEAV?$Matrix@M$00$0CFI@$00$00$0CFI@@Eigen@@@std@@8 DD 00H ; std::_Func_base<void,Eigen::Matrix<float,1,600,1,1,600> &>::`RTTI Class Hierarchy Descriptor'
	DD	00H
	DD	01H
	DD	imagerel ??_R2?$_Func_base@XAEAV?$Matrix@M$00$0CFI@$00$00$0CFI@@Eigen@@@std@@8
rdata$r	ENDS
;	COMDAT ??_R4?$_Func_impl_no_alloc@V<lambda_0e2c7996eb0a75f26b49712cb9964e86>@@XAEAV?$Matrix@M$01$0DIE@$0A@$01$0DIE@@Eigen@@@std@@6B@
rdata$r	SEGMENT
??_R4?$_Func_impl_no_alloc@V<lambda_0e2c7996eb0a75f26b49712cb9964e86>@@XAEAV?$Matrix@M$01$0DIE@$0A@$01$0DIE@@Eigen@@@std@@6B@ DD 01H ; std::_Func_impl_no_alloc<<lambda_0e2c7996eb0a75f26b49712cb9964e86>,void,Eigen::Matrix<float,2,900,0,2,900> &>::`RTTI Complete Object Locator'
	DD	00H
	DD	00H
	DD	imagerel ??_R0?AV?$_Func_impl_no_alloc@V<lambda_0e2c7996eb0a75f26b49712cb9964e86>@@XAEAV?$Matrix@M$01$0DIE@$0A@$01$0DIE@@Eigen@@@std@@@8
	DD	imagerel ??_R3?$_Func_impl_no_alloc@V<lambda_0e2c7996eb0a75f26b49712cb9964e86>@@XAEAV?$Matrix@M$01$0DIE@$0A@$01$0DIE@@Eigen@@@std@@8
	DD	imagerel ??_R4?$_Func_impl_no_alloc@V<lambda_0e2c7996eb0a75f26b49712cb9964e86>@@XAEAV?$Matrix@M$01$0DIE@$0A@$01$0DIE@@Eigen@@@std@@6B@
rdata$r	ENDS
;	COMDAT ??_7?$_Func_impl_no_alloc@V<lambda_aaf9aeaf152be7efbf77ca6efb958e53>@@XAEAV?$Matrix@M$04$0HAI@$0A@$04$0HAI@@Eigen@@@std@@6B@
CONST	SEGMENT
??_7?$_Func_impl_no_alloc@V<lambda_aaf9aeaf152be7efbf77ca6efb958e53>@@XAEAV?$Matrix@M$04$0HAI@$0A@$04$0HAI@@Eigen@@@std@@6B@ DQ FLAT:??_R4?$_Func_impl_no_alloc@V<lambda_aaf9aeaf152be7efbf77ca6efb958e53>@@XAEAV?$Matrix@M$04$0HAI@$0A@$04$0HAI@@Eigen@@@std@@6B@ ; std::_Func_impl_no_alloc<<lambda_aaf9aeaf152be7efbf77ca6efb958e53>,void,Eigen::Matrix<float,5,1800,0,5,1800> &>::`vftable'
	DQ	FLAT:?_Copy@?$_Func_impl_no_alloc@V<lambda_aaf9aeaf152be7efbf77ca6efb958e53>@@XAEAV?$Matrix@M$04$0HAI@$0A@$04$0HAI@@Eigen@@@std@@EEBAPEAV?$_Func_base@XAEAV?$Matrix@M$04$0HAI@$0A@$04$0HAI@@Eigen@@@2@PEAX@Z
	DQ	FLAT:?_Move@?$_Func_impl_no_alloc@V<lambda_aaf9aeaf152be7efbf77ca6efb958e53>@@XAEAV?$Matrix@M$04$0HAI@$0A@$04$0HAI@@Eigen@@@std@@EEAAPEAV?$_Func_base@XAEAV?$Matrix@M$04$0HAI@$0A@$04$0HAI@@Eigen@@@2@PEAX@Z
	DQ	FLAT:?_Do_call@?$_Func_impl_no_alloc@V<lambda_aaf9aeaf152be7efbf77ca6efb958e53>@@XAEAV?$Matrix@M$04$0HAI@$0A@$04$0HAI@@Eigen@@@std@@EEAAXAEAV?$Matrix@M$04$0HAI@$0A@$04$0HAI@@Eigen@@@Z
	DQ	FLAT:?_Target_type@?$_Func_impl_no_alloc@V<lambda_aaf9aeaf152be7efbf77ca6efb958e53>@@XAEAV?$Matrix@M$04$0HAI@$0A@$04$0HAI@@Eigen@@@std@@EEBAAEBVtype_info@@XZ
	DQ	FLAT:?_Delete_this@?$_Func_impl_no_alloc@V<lambda_aaf9aeaf152be7efbf77ca6efb958e53>@@XAEAV?$Matrix@M$04$0HAI@$0A@$04$0HAI@@Eigen@@@std@@EEAAX_N@Z
	DQ	FLAT:?_Get@?$_Func_impl_no_alloc@V<lambda_aaf9aeaf152be7efbf77ca6efb958e53>@@XAEAV?$Matrix@M$04$0HAI@$0A@$04$0HAI@@Eigen@@@std@@EEBAPEBXXZ
CONST	ENDS
;	COMDAT ??_R3?$_Func_base@XAEAV?$Matrix@M$01$0DIE@$0A@$01$0DIE@@Eigen@@@std@@8
rdata$r	SEGMENT
??_R3?$_Func_base@XAEAV?$Matrix@M$01$0DIE@$0A@$01$0DIE@@Eigen@@@std@@8 DD 00H ; std::_Func_base<void,Eigen::Matrix<float,2,900,0,2,900> &>::`RTTI Class Hierarchy Descriptor'
	DD	00H
	DD	01H
	DD	imagerel ??_R2?$_Func_base@XAEAV?$Matrix@M$01$0DIE@$0A@$01$0DIE@@Eigen@@@std@@8
rdata$r	ENDS
;	COMDAT ??_R0?AV<lambda_f297720c149faf1753d51c302ed9fca1>@@@8
data$r	SEGMENT
??_R0?AV<lambda_f297720c149faf1753d51c302ed9fca1>@@@8 DQ FLAT:??_7type_info@@6B@ ; <lambda_f297720c149faf1753d51c302ed9fca1> `RTTI Type Descriptor'
	DQ	0000000000000000H
	DB	'.?AV<lambda_f297720c149faf1753d51c302ed9fca1>@@', 00H
data$r	ENDS
;	COMDAT ??_R0?AV?$_Func_impl_no_alloc@V<lambda_f297720c149faf1753d51c302ed9fca1>@@XAEAV?$Matrix@M$03$0FNM@$0A@$03$0FNM@@Eigen@@@std@@@8
data$r	SEGMENT
??_R0?AV?$_Func_impl_no_alloc@V<lambda_f297720c149faf1753d51c302ed9fca1>@@XAEAV?$Matrix@M$03$0FNM@$0A@$03$0FNM@@Eigen@@@std@@@8 DQ FLAT:??_7type_info@@6B@ ; std::_Func_impl_no_alloc<<lambda_f297720c149faf1753d51c302ed9fca1>,void,Eigen::Matrix<float,4,1500,0,4,1500> &> `RTTI Type Descriptor'
	DQ	0000000000000000H
	DB	'.?AV?$_Func_impl_no_alloc@V<lambda_f297720c149faf1753d51'
	DB	'c302ed9fca1>@@XAEAV?$Matrix@M$03$0FNM@$0A@$03$0FNM@@Eigen@@@s'
	DB	'td@@', 00H
data$r	ENDS
;	COMDAT ??_R0?AV?$_Func_impl_no_alloc@V<lambda_4b6a8a51850f5d545928c34009db14a7>@@XAEAV?$Matrix@M$02$0ELA@$0A@$02$0ELA@@Eigen@@@std@@@8
data$r	SEGMENT
??_R0?AV?$_Func_impl_no_alloc@V<lambda_4b6a8a51850f5d545928c34009db14a7>@@XAEAV?$Matrix@M$02$0ELA@$0A@$02$0ELA@@Eigen@@@std@@@8 DQ FLAT:??_7type_info@@6B@ ; std::_Func_impl_no_alloc<<lambda_4b6a8a51850f5d545928c34009db14a7>,void,Eigen::Matrix<float,3,1200,0,3,1200> &> `RTTI Type Descriptor'
	DQ	0000000000000000H
	DB	'.?AV?$_Func_impl_no_alloc@V<lambda_4b6a8a51850f5d545928c'
	DB	'34009db14a7>@@XAEAV?$Matrix@M$02$0ELA@$0A@$02$0ELA@@Eigen@@@s'
	DB	'td@@', 00H
data$r	ENDS
;	COMDAT ??_R0?AV<lambda_c657f287e15fc491416ba6e302275332>@@@8
data$r	SEGMENT
??_R0?AV<lambda_c657f287e15fc491416ba6e302275332>@@@8 DQ FLAT:??_7type_info@@6B@ ; <lambda_c657f287e15fc491416ba6e302275332> `RTTI Type Descriptor'
	DQ	0000000000000000H
	DB	'.?AV<lambda_c657f287e15fc491416ba6e302275332>@@', 00H
data$r	ENDS
;	COMDAT ??_R1A@?0A@EA@?$_Func_base@XAEAV?$Matrix@M$00$0CFI@$00$00$0CFI@@Eigen@@@std@@8
rdata$r	SEGMENT
??_R1A@?0A@EA@?$_Func_base@XAEAV?$Matrix@M$00$0CFI@$00$00$0CFI@@Eigen@@@std@@8 DD imagerel ??_R0?AV?$_Func_base@XAEAV?$Matrix@M$00$0CFI@$00$00$0CFI@@Eigen@@@std@@@8 ; std::_Func_base<void,Eigen::Matrix<float,1,600,1,1,600> &>::`RTTI Base Class Descriptor at (0,-1,0,64)'
	DD	00H
	DD	00H
	DD	0ffffffffH
	DD	00H
	DD	040H
	DD	imagerel ??_R3?$_Func_base@XAEAV?$Matrix@M$00$0CFI@$00$00$0CFI@@Eigen@@@std@@8
rdata$r	ENDS
;	COMDAT ??_R1A@?0A@EA@?$_Func_base@XAEAV?$Matrix@M$02$0ELA@$0A@$02$0ELA@@Eigen@@@std@@8
rdata$r	SEGMENT
??_R1A@?0A@EA@?$_Func_base@XAEAV?$Matrix@M$02$0ELA@$0A@$02$0ELA@@Eigen@@@std@@8 DD imagerel ??_R0?AV?$_Func_base@XAEAV?$Matrix@M$02$0ELA@$0A@$02$0ELA@@Eigen@@@std@@@8 ; std::_Func_base<void,Eigen::Matrix<float,3,1200,0,3,1200> &>::`RTTI Base Class Descriptor at (0,-1,0,64)'
	DD	00H
	DD	00H
	DD	0ffffffffH
	DD	00H
	DD	040H
	DD	imagerel ??_R3?$_Func_base@XAEAV?$Matrix@M$02$0ELA@$0A@$02$0ELA@@Eigen@@@std@@8
rdata$r	ENDS
;	COMDAT ??_R1A@?0A@EA@?$_Func_impl_no_alloc@V<lambda_f297720c149faf1753d51c302ed9fca1>@@XAEAV?$Matrix@M$03$0FNM@$0A@$03$0FNM@@Eigen@@@std@@8
rdata$r	SEGMENT
??_R1A@?0A@EA@?$_Func_impl_no_alloc@V<lambda_f297720c149faf1753d51c302ed9fca1>@@XAEAV?$Matrix@M$03$0FNM@$0A@$03$0FNM@@Eigen@@@std@@8 DD imagerel ??_R0?AV?$_Func_impl_no_alloc@V<lambda_f297720c149faf1753d51c302ed9fca1>@@XAEAV?$Matrix@M$03$0FNM@$0A@$03$0FNM@@Eigen@@@std@@@8 ; std::_Func_impl_no_alloc<<lambda_f297720c149faf1753d51c302ed9fca1>,void,Eigen::Matrix<float,4,1500,0,4,1500> &>::`RTTI Base Class Descriptor at (0,-1,0,64)'
	DD	01H
	DD	00H
	DD	0ffffffffH
	DD	00H
	DD	040H
	DD	imagerel ??_R3?$_Func_impl_no_alloc@V<lambda_f297720c149faf1753d51c302ed9fca1>@@XAEAV?$Matrix@M$03$0FNM@$0A@$03$0FNM@@Eigen@@@std@@8
rdata$r	ENDS
;	COMDAT ??_R1A@?0A@EA@?$_Func_base@XAEAV?$Matrix@M$04$0HAI@$0A@$04$0HAI@@Eigen@@@std@@8
rdata$r	SEGMENT
??_R1A@?0A@EA@?$_Func_base@XAEAV?$Matrix@M$04$0HAI@$0A@$04$0HAI@@Eigen@@@std@@8 DD imagerel ??_R0?AV?$_Func_base@XAEAV?$Matrix@M$04$0HAI@$0A@$04$0HAI@@Eigen@@@std@@@8 ; std::_Func_base<void,Eigen::Matrix<float,5,1800,0,5,1800> &>::`RTTI Base Class Descriptor at (0,-1,0,64)'
	DD	00H
	DD	00H
	DD	0ffffffffH
	DD	00H
	DD	040H
	DD	imagerel ??_R3?$_Func_base@XAEAV?$Matrix@M$04$0HAI@$0A@$04$0HAI@@Eigen@@@std@@8
rdata$r	ENDS
;	COMDAT ??_R0?AV?$_Func_base@XAEAV?$Matrix@M$01$0DIE@$0A@$01$0DIE@@Eigen@@@std@@@8
data$r	SEGMENT
??_R0?AV?$_Func_base@XAEAV?$Matrix@M$01$0DIE@$0A@$01$0DIE@@Eigen@@@std@@@8 DQ FLAT:??_7type_info@@6B@ ; std::_Func_base<void,Eigen::Matrix<float,2,900,0,2,900> &> `RTTI Type Descriptor'
	DQ	0000000000000000H
	DB	'.?AV?$_Func_base@XAEAV?$Matrix@M$01$0DIE@$0A@$01$0DIE@@E'
	DB	'igen@@@std@@', 00H
data$r	ENDS
;	COMDAT ??_R0?AV<lambda_7c64d632bde275759d15ad8612349e4b>@@@8
data$r	SEGMENT
??_R0?AV<lambda_7c64d632bde275759d15ad8612349e4b>@@@8 DQ FLAT:??_7type_info@@6B@ ; <lambda_7c64d632bde275759d15ad8612349e4b> `RTTI Type Descriptor'
	DQ	0000000000000000H
	DB	'.?AV<lambda_7c64d632bde275759d15ad8612349e4b>@@', 00H
data$r	ENDS
;	COMDAT ??_R4?$_Func_impl_no_alloc@V<lambda_bf46721522673a75721ecbf1b51f6e33>@@XAEAV?$Matrix@M$00$0CFI@$00$00$0CFI@@Eigen@@@std@@6B@
rdata$r	SEGMENT
??_R4?$_Func_impl_no_alloc@V<lambda_bf46721522673a75721ecbf1b51f6e33>@@XAEAV?$Matrix@M$00$0CFI@$00$00$0CFI@@Eigen@@@std@@6B@ DD 01H ; std::_Func_impl_no_alloc<<lambda_bf46721522673a75721ecbf1b51f6e33>,void,Eigen::Matrix<float,1,600,1,1,600> &>::`RTTI Complete Object Locator'
	DD	00H
	DD	00H
	DD	imagerel ??_R0?AV?$_Func_impl_no_alloc@V<lambda_bf46721522673a75721ecbf1b51f6e33>@@XAEAV?$Matrix@M$00$0CFI@$00$00$0CFI@@Eigen@@@std@@@8
	DD	imagerel ??_R3?$_Func_impl_no_alloc@V<lambda_bf46721522673a75721ecbf1b51f6e33>@@XAEAV?$Matrix@M$00$0CFI@$00$00$0CFI@@Eigen@@@std@@8
	DD	imagerel ??_R4?$_Func_impl_no_alloc@V<lambda_bf46721522673a75721ecbf1b51f6e33>@@XAEAV?$Matrix@M$00$0CFI@$00$00$0CFI@@Eigen@@@std@@6B@
rdata$r	ENDS
;	COMDAT ??_R3?$_Func_impl_no_alloc@V<lambda_f297720c149faf1753d51c302ed9fca1>@@XAEAV?$Matrix@M$03$0FNM@$0A@$03$0FNM@@Eigen@@@std@@8
rdata$r	SEGMENT
??_R3?$_Func_impl_no_alloc@V<lambda_f297720c149faf1753d51c302ed9fca1>@@XAEAV?$Matrix@M$03$0FNM@$0A@$03$0FNM@@Eigen@@@std@@8 DD 00H ; std::_Func_impl_no_alloc<<lambda_f297720c149faf1753d51c302ed9fca1>,void,Eigen::Matrix<float,4,1500,0,4,1500> &>::`RTTI Class Hierarchy Descriptor'
	DD	00H
	DD	02H
	DD	imagerel ??_R2?$_Func_impl_no_alloc@V<lambda_f297720c149faf1753d51c302ed9fca1>@@XAEAV?$Matrix@M$03$0FNM@$0A@$03$0FNM@@Eigen@@@std@@8
rdata$r	ENDS
;	COMDAT ??_R3?$_Func_base@XAEAV?$Matrix@M$0CFI@$00$0A@$0CFI@$00@Eigen@@@std@@8
rdata$r	SEGMENT
??_R3?$_Func_base@XAEAV?$Matrix@M$0CFI@$00$0A@$0CFI@$00@Eigen@@@std@@8 DD 00H ; std::_Func_base<void,Eigen::Matrix<float,600,1,0,600,1> &>::`RTTI Class Hierarchy Descriptor'
	DD	00H
	DD	01H
	DD	imagerel ??_R2?$_Func_base@XAEAV?$Matrix@M$0CFI@$00$0A@$0CFI@$00@Eigen@@@std@@8
rdata$r	ENDS
;	COMDAT ??_R0?AV?$_Func_impl_no_alloc@V<lambda_0e2c7996eb0a75f26b49712cb9964e86>@@XAEAV?$Matrix@M$01$0DIE@$0A@$01$0DIE@@Eigen@@@std@@@8
data$r	SEGMENT
??_R0?AV?$_Func_impl_no_alloc@V<lambda_0e2c7996eb0a75f26b49712cb9964e86>@@XAEAV?$Matrix@M$01$0DIE@$0A@$01$0DIE@@Eigen@@@std@@@8 DQ FLAT:??_7type_info@@6B@ ; std::_Func_impl_no_alloc<<lambda_0e2c7996eb0a75f26b49712cb9964e86>,void,Eigen::Matrix<float,2,900,0,2,900> &> `RTTI Type Descriptor'
	DQ	0000000000000000H
	DB	'.?AV?$_Func_impl_no_alloc@V<lambda_0e2c7996eb0a75f26b497'
	DB	'12cb9964e86>@@XAEAV?$Matrix@M$01$0DIE@$0A@$01$0DIE@@Eigen@@@s'
	DB	'td@@', 00H
data$r	ENDS
;	COMDAT ??_R2?$_Func_impl_no_alloc@V<lambda_4b6a8a51850f5d545928c34009db14a7>@@XAEAV?$Matrix@M$02$0ELA@$0A@$02$0ELA@@Eigen@@@std@@8
rdata$r	SEGMENT
??_R2?$_Func_impl_no_alloc@V<lambda_4b6a8a51850f5d545928c34009db14a7>@@XAEAV?$Matrix@M$02$0ELA@$0A@$02$0ELA@@Eigen@@@std@@8 DD imagerel ??_R1A@?0A@EA@?$_Func_impl_no_alloc@V<lambda_4b6a8a51850f5d545928c34009db14a7>@@XAEAV?$Matrix@M$02$0ELA@$0A@$02$0ELA@@Eigen@@@std@@8 ; std::_Func_impl_no_alloc<<lambda_4b6a8a51850f5d545928c34009db14a7>,void,Eigen::Matrix<float,3,1200,0,3,1200> &>::`RTTI Base Class Array'
	DD	imagerel ??_R1A@?0A@EA@?$_Func_base@XAEAV?$Matrix@M$02$0ELA@$0A@$02$0ELA@@Eigen@@@std@@8
	ORG $+3
rdata$r	ENDS
;	COMDAT _CTA2?AVbad_alloc@std@@
xdata$x	SEGMENT
_CTA2?AVbad_alloc@std@@ DD 02H
	DD	imagerel _CT??_R0?AVbad_alloc@std@@@8??0bad_alloc@std@@QEAA@AEBV01@@Z24
	DD	imagerel _CT??_R0?AVexception@std@@@8??0exception@std@@QEAA@AEBV01@@Z24
xdata$x	ENDS
;	COMDAT ??_R3?$_Func_base@XAEAV?$Matrix@M$03$0FNM@$0A@$03$0FNM@@Eigen@@@std@@8
rdata$r	SEGMENT
??_R3?$_Func_base@XAEAV?$Matrix@M$03$0FNM@$0A@$03$0FNM@@Eigen@@@std@@8 DD 00H ; std::_Func_base<void,Eigen::Matrix<float,4,1500,0,4,1500> &>::`RTTI Class Hierarchy Descriptor'
	DD	00H
	DD	01H
	DD	imagerel ??_R2?$_Func_base@XAEAV?$Matrix@M$03$0FNM@$0A@$03$0FNM@@Eigen@@@std@@8
rdata$r	ENDS
;	COMDAT ??_R2?$_Func_base@XAEAV?$Matrix@M$00$00$0A@$00$00@Eigen@@@std@@8
rdata$r	SEGMENT
??_R2?$_Func_base@XAEAV?$Matrix@M$00$00$0A@$00$00@Eigen@@@std@@8 DD imagerel ??_R1A@?0A@EA@?$_Func_base@XAEAV?$Matrix@M$00$00$0A@$00$00@Eigen@@@std@@8 ; std::_Func_base<void,Eigen::Matrix<float,1,1,0,1,1> &>::`RTTI Base Class Array'
	ORG $+3
rdata$r	ENDS
;	COMDAT ??_R2?$_Func_base@XAEAV?$Matrix@M$02$0ELA@$0A@$02$0ELA@@Eigen@@@std@@8
rdata$r	SEGMENT
??_R2?$_Func_base@XAEAV?$Matrix@M$02$0ELA@$0A@$02$0ELA@@Eigen@@@std@@8 DD imagerel ??_R1A@?0A@EA@?$_Func_base@XAEAV?$Matrix@M$02$0ELA@$0A@$02$0ELA@@Eigen@@@std@@8 ; std::_Func_base<void,Eigen::Matrix<float,3,1200,0,3,1200> &>::`RTTI Base Class Array'
	ORG $+3
rdata$r	ENDS
;	COMDAT ??_R1A@?0A@EA@?$_Func_impl_no_alloc@V<lambda_4b6a8a51850f5d545928c34009db14a7>@@XAEAV?$Matrix@M$02$0ELA@$0A@$02$0ELA@@Eigen@@@std@@8
rdata$r	SEGMENT
??_R1A@?0A@EA@?$_Func_impl_no_alloc@V<lambda_4b6a8a51850f5d545928c34009db14a7>@@XAEAV?$Matrix@M$02$0ELA@$0A@$02$0ELA@@Eigen@@@std@@8 DD imagerel ??_R0?AV?$_Func_impl_no_alloc@V<lambda_4b6a8a51850f5d545928c34009db14a7>@@XAEAV?$Matrix@M$02$0ELA@$0A@$02$0ELA@@Eigen@@@std@@@8 ; std::_Func_impl_no_alloc<<lambda_4b6a8a51850f5d545928c34009db14a7>,void,Eigen::Matrix<float,3,1200,0,3,1200> &>::`RTTI Base Class Descriptor at (0,-1,0,64)'
	DD	01H
	DD	00H
	DD	0ffffffffH
	DD	00H
	DD	040H
	DD	imagerel ??_R3?$_Func_impl_no_alloc@V<lambda_4b6a8a51850f5d545928c34009db14a7>@@XAEAV?$Matrix@M$02$0ELA@$0A@$02$0ELA@@Eigen@@@std@@8
rdata$r	ENDS
;	COMDAT ??_R3?$_Func_impl_no_alloc@V<lambda_c657f287e15fc491416ba6e302275332>@@XAEAV?$Matrix@M$00$00$0A@$00$00@Eigen@@@std@@8
rdata$r	SEGMENT
??_R3?$_Func_impl_no_alloc@V<lambda_c657f287e15fc491416ba6e302275332>@@XAEAV?$Matrix@M$00$00$0A@$00$00@Eigen@@@std@@8 DD 00H ; std::_Func_impl_no_alloc<<lambda_c657f287e15fc491416ba6e302275332>,void,Eigen::Matrix<float,1,1,0,1,1> &>::`RTTI Class Hierarchy Descriptor'
	DD	00H
	DD	02H
	DD	imagerel ??_R2?$_Func_impl_no_alloc@V<lambda_c657f287e15fc491416ba6e302275332>@@XAEAV?$Matrix@M$00$00$0A@$00$00@Eigen@@@std@@8
rdata$r	ENDS
;	COMDAT ??_R1A@?0A@EA@?$_Func_impl_no_alloc@V<lambda_c657f287e15fc491416ba6e302275332>@@XAEAV?$Matrix@M$00$00$0A@$00$00@Eigen@@@std@@8
rdata$r	SEGMENT
??_R1A@?0A@EA@?$_Func_impl_no_alloc@V<lambda_c657f287e15fc491416ba6e302275332>@@XAEAV?$Matrix@M$00$00$0A@$00$00@Eigen@@@std@@8 DD imagerel ??_R0?AV?$_Func_impl_no_alloc@V<lambda_c657f287e15fc491416ba6e302275332>@@XAEAV?$Matrix@M$00$00$0A@$00$00@Eigen@@@std@@@8 ; std::_Func_impl_no_alloc<<lambda_c657f287e15fc491416ba6e302275332>,void,Eigen::Matrix<float,1,1,0,1,1> &>::`RTTI Base Class Descriptor at (0,-1,0,64)'
	DD	01H
	DD	00H
	DD	0ffffffffH
	DD	00H
	DD	040H
	DD	imagerel ??_R3?$_Func_impl_no_alloc@V<lambda_c657f287e15fc491416ba6e302275332>@@XAEAV?$Matrix@M$00$00$0A@$00$00@Eigen@@@std@@8
rdata$r	ENDS
;	COMDAT ??_R0?AV?$_Func_impl_no_alloc@V<lambda_7c64d632bde275759d15ad8612349e4b>@@XAEAV?$Matrix@M$0CFI@$00$0A@$0CFI@$00@Eigen@@@std@@@8
data$r	SEGMENT
??_R0?AV?$_Func_impl_no_alloc@V<lambda_7c64d632bde275759d15ad8612349e4b>@@XAEAV?$Matrix@M$0CFI@$00$0A@$0CFI@$00@Eigen@@@std@@@8 DQ FLAT:??_7type_info@@6B@ ; std::_Func_impl_no_alloc<<lambda_7c64d632bde275759d15ad8612349e4b>,void,Eigen::Matrix<float,600,1,0,600,1> &> `RTTI Type Descriptor'
	DQ	0000000000000000H
	DB	'.?AV?$_Func_impl_no_alloc@V<lambda_7c64d632bde275759d15a'
	DB	'd8612349e4b>@@XAEAV?$Matrix@M$0CFI@$00$0A@$0CFI@$00@Eigen@@@s'
	DB	'td@@', 00H
data$r	ENDS
;	COMDAT ??_R0?AV?$_Func_impl_no_alloc@V<lambda_aaf9aeaf152be7efbf77ca6efb958e53>@@XAEAV?$Matrix@M$04$0HAI@$0A@$04$0HAI@@Eigen@@@std@@@8
data$r	SEGMENT
??_R0?AV?$_Func_impl_no_alloc@V<lambda_aaf9aeaf152be7efbf77ca6efb958e53>@@XAEAV?$Matrix@M$04$0HAI@$0A@$04$0HAI@@Eigen@@@std@@@8 DQ FLAT:??_7type_info@@6B@ ; std::_Func_impl_no_alloc<<lambda_aaf9aeaf152be7efbf77ca6efb958e53>,void,Eigen::Matrix<float,5,1800,0,5,1800> &> `RTTI Type Descriptor'
	DQ	0000000000000000H
	DB	'.?AV?$_Func_impl_no_alloc@V<lambda_aaf9aeaf152be7efbf77c'
	DB	'a6efb958e53>@@XAEAV?$Matrix@M$04$0HAI@$0A@$04$0HAI@@Eigen@@@s'
	DB	'td@@', 00H
data$r	ENDS
;	COMDAT ??_R3?$_Func_base@XAEAV?$Matrix@M$00$00$0A@$00$00@Eigen@@@std@@8
rdata$r	SEGMENT
??_R3?$_Func_base@XAEAV?$Matrix@M$00$00$0A@$00$00@Eigen@@@std@@8 DD 00H ; std::_Func_base<void,Eigen::Matrix<float,1,1,0,1,1> &>::`RTTI Class Hierarchy Descriptor'
	DD	00H
	DD	01H
	DD	imagerel ??_R2?$_Func_base@XAEAV?$Matrix@M$00$00$0A@$00$00@Eigen@@@std@@8
rdata$r	ENDS
;	COMDAT ??_R1A@?0A@EA@?$_Func_impl_no_alloc@V<lambda_bf46721522673a75721ecbf1b51f6e33>@@XAEAV?$Matrix@M$00$0CFI@$00$00$0CFI@@Eigen@@@std@@8
rdata$r	SEGMENT
??_R1A@?0A@EA@?$_Func_impl_no_alloc@V<lambda_bf46721522673a75721ecbf1b51f6e33>@@XAEAV?$Matrix@M$00$0CFI@$00$00$0CFI@@Eigen@@@std@@8 DD imagerel ??_R0?AV?$_Func_impl_no_alloc@V<lambda_bf46721522673a75721ecbf1b51f6e33>@@XAEAV?$Matrix@M$00$0CFI@$00$00$0CFI@@Eigen@@@std@@@8 ; std::_Func_impl_no_alloc<<lambda_bf46721522673a75721ecbf1b51f6e33>,void,Eigen::Matrix<float,1,600,1,1,600> &>::`RTTI Base Class Descriptor at (0,-1,0,64)'
	DD	01H
	DD	00H
	DD	0ffffffffH
	DD	00H
	DD	040H
	DD	imagerel ??_R3?$_Func_impl_no_alloc@V<lambda_bf46721522673a75721ecbf1b51f6e33>@@XAEAV?$Matrix@M$00$0CFI@$00$00$0CFI@@Eigen@@@std@@8
rdata$r	ENDS
;	COMDAT ??_7?$_Func_impl_no_alloc@V<lambda_c657f287e15fc491416ba6e302275332>@@XAEAV?$Matrix@M$00$00$0A@$00$00@Eigen@@@std@@6B@
CONST	SEGMENT
??_7?$_Func_impl_no_alloc@V<lambda_c657f287e15fc491416ba6e302275332>@@XAEAV?$Matrix@M$00$00$0A@$00$00@Eigen@@@std@@6B@ DQ FLAT:??_R4?$_Func_impl_no_alloc@V<lambda_c657f287e15fc491416ba6e302275332>@@XAEAV?$Matrix@M$00$00$0A@$00$00@Eigen@@@std@@6B@ ; std::_Func_impl_no_alloc<<lambda_c657f287e15fc491416ba6e302275332>,void,Eigen::Matrix<float,1,1,0,1,1> &>::`vftable'
	DQ	FLAT:?_Copy@?$_Func_impl_no_alloc@V<lambda_c657f287e15fc491416ba6e302275332>@@XAEAV?$Matrix@M$00$00$0A@$00$00@Eigen@@@std@@EEBAPEAV?$_Func_base@XAEAV?$Matrix@M$00$00$0A@$00$00@Eigen@@@2@PEAX@Z
	DQ	FLAT:?_Move@?$_Func_impl_no_alloc@V<lambda_c657f287e15fc491416ba6e302275332>@@XAEAV?$Matrix@M$00$00$0A@$00$00@Eigen@@@std@@EEAAPEAV?$_Func_base@XAEAV?$Matrix@M$00$00$0A@$00$00@Eigen@@@2@PEAX@Z
	DQ	FLAT:?_Do_call@?$_Func_impl_no_alloc@V<lambda_c657f287e15fc491416ba6e302275332>@@XAEAV?$Matrix@M$00$00$0A@$00$00@Eigen@@@std@@EEAAXAEAV?$Matrix@M$00$00$0A@$00$00@Eigen@@@Z
	DQ	FLAT:?_Target_type@?$_Func_impl_no_alloc@V<lambda_c657f287e15fc491416ba6e302275332>@@XAEAV?$Matrix@M$00$00$0A@$00$00@Eigen@@@std@@EEBAAEBVtype_info@@XZ
	DQ	FLAT:?_Delete_this@?$_Func_impl_no_alloc@V<lambda_c657f287e15fc491416ba6e302275332>@@XAEAV?$Matrix@M$00$00$0A@$00$00@Eigen@@@std@@EEAAX_N@Z
	DQ	FLAT:?_Get@?$_Func_impl_no_alloc@V<lambda_c657f287e15fc491416ba6e302275332>@@XAEAV?$Matrix@M$00$00$0A@$00$00@Eigen@@@std@@EEBAPEBXXZ
CONST	ENDS
;	COMDAT ??_R3?$_Func_impl_no_alloc@V<lambda_7c64d632bde275759d15ad8612349e4b>@@XAEAV?$Matrix@M$0CFI@$00$0A@$0CFI@$00@Eigen@@@std@@8
rdata$r	SEGMENT
??_R3?$_Func_impl_no_alloc@V<lambda_7c64d632bde275759d15ad8612349e4b>@@XAEAV?$Matrix@M$0CFI@$00$0A@$0CFI@$00@Eigen@@@std@@8 DD 00H ; std::_Func_impl_no_alloc<<lambda_7c64d632bde275759d15ad8612349e4b>,void,Eigen::Matrix<float,600,1,0,600,1> &>::`RTTI Class Hierarchy Descriptor'
	DD	00H
	DD	02H
	DD	imagerel ??_R2?$_Func_impl_no_alloc@V<lambda_7c64d632bde275759d15ad8612349e4b>@@XAEAV?$Matrix@M$0CFI@$00$0A@$0CFI@$00@Eigen@@@std@@8
rdata$r	ENDS
;	COMDAT ??_R0?AV<lambda_4b6a8a51850f5d545928c34009db14a7>@@@8
data$r	SEGMENT
??_R0?AV<lambda_4b6a8a51850f5d545928c34009db14a7>@@@8 DQ FLAT:??_7type_info@@6B@ ; <lambda_4b6a8a51850f5d545928c34009db14a7> `RTTI Type Descriptor'
	DQ	0000000000000000H
	DB	'.?AV<lambda_4b6a8a51850f5d545928c34009db14a7>@@', 00H
data$r	ENDS
;	COMDAT ??_R0?AV<lambda_0e2c7996eb0a75f26b49712cb9964e86>@@@8
data$r	SEGMENT
??_R0?AV<lambda_0e2c7996eb0a75f26b49712cb9964e86>@@@8 DQ FLAT:??_7type_info@@6B@ ; <lambda_0e2c7996eb0a75f26b49712cb9964e86> `RTTI Type Descriptor'
	DQ	0000000000000000H
	DB	'.?AV<lambda_0e2c7996eb0a75f26b49712cb9964e86>@@', 00H
data$r	ENDS
;	COMDAT ??_R0?AV<lambda_aaf9aeaf152be7efbf77ca6efb958e53>@@@8
data$r	SEGMENT
??_R0?AV<lambda_aaf9aeaf152be7efbf77ca6efb958e53>@@@8 DQ FLAT:??_7type_info@@6B@ ; <lambda_aaf9aeaf152be7efbf77ca6efb958e53> `RTTI Type Descriptor'
	DQ	0000000000000000H
	DB	'.?AV<lambda_aaf9aeaf152be7efbf77ca6efb958e53>@@', 00H
data$r	ENDS
;	COMDAT ??_R2?$_Func_impl_no_alloc@V<lambda_c657f287e15fc491416ba6e302275332>@@XAEAV?$Matrix@M$00$00$0A@$00$00@Eigen@@@std@@8
rdata$r	SEGMENT
??_R2?$_Func_impl_no_alloc@V<lambda_c657f287e15fc491416ba6e302275332>@@XAEAV?$Matrix@M$00$00$0A@$00$00@Eigen@@@std@@8 DD imagerel ??_R1A@?0A@EA@?$_Func_impl_no_alloc@V<lambda_c657f287e15fc491416ba6e302275332>@@XAEAV?$Matrix@M$00$00$0A@$00$00@Eigen@@@std@@8 ; std::_Func_impl_no_alloc<<lambda_c657f287e15fc491416ba6e302275332>,void,Eigen::Matrix<float,1,1,0,1,1> &>::`RTTI Base Class Array'
	DD	imagerel ??_R1A@?0A@EA@?$_Func_base@XAEAV?$Matrix@M$00$00$0A@$00$00@Eigen@@@std@@8
	ORG $+3
rdata$r	ENDS
;	COMDAT ??_R2?$_Func_impl_no_alloc@V<lambda_aaf9aeaf152be7efbf77ca6efb958e53>@@XAEAV?$Matrix@M$04$0HAI@$0A@$04$0HAI@@Eigen@@@std@@8
rdata$r	SEGMENT
??_R2?$_Func_impl_no_alloc@V<lambda_aaf9aeaf152be7efbf77ca6efb958e53>@@XAEAV?$Matrix@M$04$0HAI@$0A@$04$0HAI@@Eigen@@@std@@8 DD imagerel ??_R1A@?0A@EA@?$_Func_impl_no_alloc@V<lambda_aaf9aeaf152be7efbf77ca6efb958e53>@@XAEAV?$Matrix@M$04$0HAI@$0A@$04$0HAI@@Eigen@@@std@@8 ; std::_Func_impl_no_alloc<<lambda_aaf9aeaf152be7efbf77ca6efb958e53>,void,Eigen::Matrix<float,5,1800,0,5,1800> &>::`RTTI Base Class Array'
	DD	imagerel ??_R1A@?0A@EA@?$_Func_base@XAEAV?$Matrix@M$04$0HAI@$0A@$04$0HAI@@Eigen@@@std@@8
	ORG $+3
rdata$r	ENDS
;	COMDAT ??_R2?$_Func_base@XAEAV?$Matrix@M$04$0HAI@$0A@$04$0HAI@@Eigen@@@std@@8
rdata$r	SEGMENT
??_R2?$_Func_base@XAEAV?$Matrix@M$04$0HAI@$0A@$04$0HAI@@Eigen@@@std@@8 DD imagerel ??_R1A@?0A@EA@?$_Func_base@XAEAV?$Matrix@M$04$0HAI@$0A@$04$0HAI@@Eigen@@@std@@8 ; std::_Func_base<void,Eigen::Matrix<float,5,1800,0,5,1800> &>::`RTTI Base Class Array'
	ORG $+3
rdata$r	ENDS
;	COMDAT ??_7?$_Func_impl_no_alloc@V<lambda_bf46721522673a75721ecbf1b51f6e33>@@XAEAV?$Matrix@M$00$0CFI@$00$00$0CFI@@Eigen@@@std@@6B@
CONST	SEGMENT
??_7?$_Func_impl_no_alloc@V<lambda_bf46721522673a75721ecbf1b51f6e33>@@XAEAV?$Matrix@M$00$0CFI@$00$00$0CFI@@Eigen@@@std@@6B@ DQ FLAT:??_R4?$_Func_impl_no_alloc@V<lambda_bf46721522673a75721ecbf1b51f6e33>@@XAEAV?$Matrix@M$00$0CFI@$00$00$0CFI@@Eigen@@@std@@6B@ ; std::_Func_impl_no_alloc<<lambda_bf46721522673a75721ecbf1b51f6e33>,void,Eigen::Matrix<float,1,600,1,1,600> &>::`vftable'
	DQ	FLAT:?_Copy@?$_Func_impl_no_alloc@V<lambda_bf46721522673a75721ecbf1b51f6e33>@@XAEAV?$Matrix@M$00$0CFI@$00$00$0CFI@@Eigen@@@std@@EEBAPEAV?$_Func_base@XAEAV?$Matrix@M$00$0CFI@$00$00$0CFI@@Eigen@@@2@PEAX@Z
	DQ	FLAT:?_Move@?$_Func_impl_no_alloc@V<lambda_bf46721522673a75721ecbf1b51f6e33>@@XAEAV?$Matrix@M$00$0CFI@$00$00$0CFI@@Eigen@@@std@@EEAAPEAV?$_Func_base@XAEAV?$Matrix@M$00$0CFI@$00$00$0CFI@@Eigen@@@2@PEAX@Z
	DQ	FLAT:?_Do_call@?$_Func_impl_no_alloc@V<lambda_bf46721522673a75721ecbf1b51f6e33>@@XAEAV?$Matrix@M$00$0CFI@$00$00$0CFI@@Eigen@@@std@@EEAAXAEAV?$Matrix@M$00$0CFI@$00$00$0CFI@@Eigen@@@Z
	DQ	FLAT:?_Target_type@?$_Func_impl_no_alloc@V<lambda_bf46721522673a75721ecbf1b51f6e33>@@XAEAV?$Matrix@M$00$0CFI@$00$00$0CFI@@Eigen@@@std@@EEBAAEBVtype_info@@XZ
	DQ	FLAT:?_Delete_this@?$_Func_impl_no_alloc@V<lambda_bf46721522673a75721ecbf1b51f6e33>@@XAEAV?$Matrix@M$00$0CFI@$00$00$0CFI@@Eigen@@@std@@EEAAX_N@Z
	DQ	FLAT:?_Get@?$_Func_impl_no_alloc@V<lambda_bf46721522673a75721ecbf1b51f6e33>@@XAEAV?$Matrix@M$00$0CFI@$00$00$0CFI@@Eigen@@@std@@EEBAPEBXXZ
CONST	ENDS
;	COMDAT ??_R4?$_Func_impl_no_alloc@V<lambda_aaf9aeaf152be7efbf77ca6efb958e53>@@XAEAV?$Matrix@M$04$0HAI@$0A@$04$0HAI@@Eigen@@@std@@6B@
rdata$r	SEGMENT
??_R4?$_Func_impl_no_alloc@V<lambda_aaf9aeaf152be7efbf77ca6efb958e53>@@XAEAV?$Matrix@M$04$0HAI@$0A@$04$0HAI@@Eigen@@@std@@6B@ DD 01H ; std::_Func_impl_no_alloc<<lambda_aaf9aeaf152be7efbf77ca6efb958e53>,void,Eigen::Matrix<float,5,1800,0,5,1800> &>::`RTTI Complete Object Locator'
	DD	00H
	DD	00H
	DD	imagerel ??_R0?AV?$_Func_impl_no_alloc@V<lambda_aaf9aeaf152be7efbf77ca6efb958e53>@@XAEAV?$Matrix@M$04$0HAI@$0A@$04$0HAI@@Eigen@@@std@@@8
	DD	imagerel ??_R3?$_Func_impl_no_alloc@V<lambda_aaf9aeaf152be7efbf77ca6efb958e53>@@XAEAV?$Matrix@M$04$0HAI@$0A@$04$0HAI@@Eigen@@@std@@8
	DD	imagerel ??_R4?$_Func_impl_no_alloc@V<lambda_aaf9aeaf152be7efbf77ca6efb958e53>@@XAEAV?$Matrix@M$04$0HAI@$0A@$04$0HAI@@Eigen@@@std@@6B@
rdata$r	ENDS
;	COMDAT ??_7?$_Func_impl_no_alloc@V<lambda_e59a36d63fa9b180d2bdb46e4e73b762>@@XAEAV?$Matrix@M$00$0CFI@$00$00$0CFI@@Eigen@@@std@@6B@
CONST	SEGMENT
??_7?$_Func_impl_no_alloc@V<lambda_e59a36d63fa9b180d2bdb46e4e73b762>@@XAEAV?$Matrix@M$00$0CFI@$00$00$0CFI@@Eigen@@@std@@6B@ DQ FLAT:??_R4?$_Func_impl_no_alloc@V<lambda_e59a36d63fa9b180d2bdb46e4e73b762>@@XAEAV?$Matrix@M$00$0CFI@$00$00$0CFI@@Eigen@@@std@@6B@ ; std::_Func_impl_no_alloc<<lambda_e59a36d63fa9b180d2bdb46e4e73b762>,void,Eigen::Matrix<float,1,600,1,1,600> &>::`vftable'
	DQ	FLAT:?_Copy@?$_Func_impl_no_alloc@V<lambda_e59a36d63fa9b180d2bdb46e4e73b762>@@XAEAV?$Matrix@M$00$0CFI@$00$00$0CFI@@Eigen@@@std@@EEBAPEAV?$_Func_base@XAEAV?$Matrix@M$00$0CFI@$00$00$0CFI@@Eigen@@@2@PEAX@Z
	DQ	FLAT:?_Move@?$_Func_impl_no_alloc@V<lambda_e59a36d63fa9b180d2bdb46e4e73b762>@@XAEAV?$Matrix@M$00$0CFI@$00$00$0CFI@@Eigen@@@std@@EEAAPEAV?$_Func_base@XAEAV?$Matrix@M$00$0CFI@$00$00$0CFI@@Eigen@@@2@PEAX@Z
	DQ	FLAT:?_Do_call@?$_Func_impl_no_alloc@V<lambda_e59a36d63fa9b180d2bdb46e4e73b762>@@XAEAV?$Matrix@M$00$0CFI@$00$00$0CFI@@Eigen@@@std@@EEAAXAEAV?$Matrix@M$00$0CFI@$00$00$0CFI@@Eigen@@@Z
	DQ	FLAT:?_Target_type@?$_Func_impl_no_alloc@V<lambda_e59a36d63fa9b180d2bdb46e4e73b762>@@XAEAV?$Matrix@M$00$0CFI@$00$00$0CFI@@Eigen@@@std@@EEBAAEBVtype_info@@XZ
	DQ	FLAT:?_Delete_this@?$_Func_impl_no_alloc@V<lambda_e59a36d63fa9b180d2bdb46e4e73b762>@@XAEAV?$Matrix@M$00$0CFI@$00$00$0CFI@@Eigen@@@std@@EEAAX_N@Z
	DQ	FLAT:?_Get@?$_Func_impl_no_alloc@V<lambda_e59a36d63fa9b180d2bdb46e4e73b762>@@XAEAV?$Matrix@M$00$0CFI@$00$00$0CFI@@Eigen@@@std@@EEBAPEBXXZ
CONST	ENDS
;	COMDAT ??_R4?$_Func_impl_no_alloc@V<lambda_c657f287e15fc491416ba6e302275332>@@XAEAV?$Matrix@M$00$00$0A@$00$00@Eigen@@@std@@6B@
rdata$r	SEGMENT
??_R4?$_Func_impl_no_alloc@V<lambda_c657f287e15fc491416ba6e302275332>@@XAEAV?$Matrix@M$00$00$0A@$00$00@Eigen@@@std@@6B@ DD 01H ; std::_Func_impl_no_alloc<<lambda_c657f287e15fc491416ba6e302275332>,void,Eigen::Matrix<float,1,1,0,1,1> &>::`RTTI Complete Object Locator'
	DD	00H
	DD	00H
	DD	imagerel ??_R0?AV?$_Func_impl_no_alloc@V<lambda_c657f287e15fc491416ba6e302275332>@@XAEAV?$Matrix@M$00$00$0A@$00$00@Eigen@@@std@@@8
	DD	imagerel ??_R3?$_Func_impl_no_alloc@V<lambda_c657f287e15fc491416ba6e302275332>@@XAEAV?$Matrix@M$00$00$0A@$00$00@Eigen@@@std@@8
	DD	imagerel ??_R4?$_Func_impl_no_alloc@V<lambda_c657f287e15fc491416ba6e302275332>@@XAEAV?$Matrix@M$00$00$0A@$00$00@Eigen@@@std@@6B@
rdata$r	ENDS
;	COMDAT ??_R1A@?0A@EA@?$_Func_impl_no_alloc@V<lambda_0e2c7996eb0a75f26b49712cb9964e86>@@XAEAV?$Matrix@M$01$0DIE@$0A@$01$0DIE@@Eigen@@@std@@8
rdata$r	SEGMENT
??_R1A@?0A@EA@?$_Func_impl_no_alloc@V<lambda_0e2c7996eb0a75f26b49712cb9964e86>@@XAEAV?$Matrix@M$01$0DIE@$0A@$01$0DIE@@Eigen@@@std@@8 DD imagerel ??_R0?AV?$_Func_impl_no_alloc@V<lambda_0e2c7996eb0a75f26b49712cb9964e86>@@XAEAV?$Matrix@M$01$0DIE@$0A@$01$0DIE@@Eigen@@@std@@@8 ; std::_Func_impl_no_alloc<<lambda_0e2c7996eb0a75f26b49712cb9964e86>,void,Eigen::Matrix<float,2,900,0,2,900> &>::`RTTI Base Class Descriptor at (0,-1,0,64)'
	DD	01H
	DD	00H
	DD	0ffffffffH
	DD	00H
	DD	040H
	DD	imagerel ??_R3?$_Func_impl_no_alloc@V<lambda_0e2c7996eb0a75f26b49712cb9964e86>@@XAEAV?$Matrix@M$01$0DIE@$0A@$01$0DIE@@Eigen@@@std@@8
rdata$r	ENDS
;	COMDAT ??_R1A@?0A@EA@?$_Func_base@XAEAV?$Matrix@M$01$0DIE@$0A@$01$0DIE@@Eigen@@@std@@8
rdata$r	SEGMENT
??_R1A@?0A@EA@?$_Func_base@XAEAV?$Matrix@M$01$0DIE@$0A@$01$0DIE@@Eigen@@@std@@8 DD imagerel ??_R0?AV?$_Func_base@XAEAV?$Matrix@M$01$0DIE@$0A@$01$0DIE@@Eigen@@@std@@@8 ; std::_Func_base<void,Eigen::Matrix<float,2,900,0,2,900> &>::`RTTI Base Class Descriptor at (0,-1,0,64)'
	DD	00H
	DD	00H
	DD	0ffffffffH
	DD	00H
	DD	040H
	DD	imagerel ??_R3?$_Func_base@XAEAV?$Matrix@M$01$0DIE@$0A@$01$0DIE@@Eigen@@@std@@8
rdata$r	ENDS
;	COMDAT ??_R0?AV?$_Func_impl_no_alloc@V<lambda_bf46721522673a75721ecbf1b51f6e33>@@XAEAV?$Matrix@M$00$0CFI@$00$00$0CFI@@Eigen@@@std@@@8
data$r	SEGMENT
??_R0?AV?$_Func_impl_no_alloc@V<lambda_bf46721522673a75721ecbf1b51f6e33>@@XAEAV?$Matrix@M$00$0CFI@$00$00$0CFI@@Eigen@@@std@@@8 DQ FLAT:??_7type_info@@6B@ ; std::_Func_impl_no_alloc<<lambda_bf46721522673a75721ecbf1b51f6e33>,void,Eigen::Matrix<float,1,600,1,1,600> &> `RTTI Type Descriptor'
	DQ	0000000000000000H
	DB	'.?AV?$_Func_impl_no_alloc@V<lambda_bf46721522673a75721ec'
	DB	'bf1b51f6e33>@@XAEAV?$Matrix@M$00$0CFI@$00$00$0CFI@@Eigen@@@st'
	DB	'd@@', 00H
data$r	ENDS
;	COMDAT ??_R0?AV?$_Func_base@XAEAV?$Matrix@M$00$0CFI@$00$00$0CFI@@Eigen@@@std@@@8
data$r	SEGMENT
??_R0?AV?$_Func_base@XAEAV?$Matrix@M$00$0CFI@$00$00$0CFI@@Eigen@@@std@@@8 DQ FLAT:??_7type_info@@6B@ ; std::_Func_base<void,Eigen::Matrix<float,1,600,1,1,600> &> `RTTI Type Descriptor'
	DQ	0000000000000000H
	DB	'.?AV?$_Func_base@XAEAV?$Matrix@M$00$0CFI@$00$00$0CFI@@Ei'
	DB	'gen@@@std@@', 00H
data$r	ENDS
;	COMDAT ??_R3?$_Func_impl_no_alloc@V<lambda_aaf9aeaf152be7efbf77ca6efb958e53>@@XAEAV?$Matrix@M$04$0HAI@$0A@$04$0HAI@@Eigen@@@std@@8
rdata$r	SEGMENT
??_R3?$_Func_impl_no_alloc@V<lambda_aaf9aeaf152be7efbf77ca6efb958e53>@@XAEAV?$Matrix@M$04$0HAI@$0A@$04$0HAI@@Eigen@@@std@@8 DD 00H ; std::_Func_impl_no_alloc<<lambda_aaf9aeaf152be7efbf77ca6efb958e53>,void,Eigen::Matrix<float,5,1800,0,5,1800> &>::`RTTI Class Hierarchy Descriptor'
	DD	00H
	DD	02H
	DD	imagerel ??_R2?$_Func_impl_no_alloc@V<lambda_aaf9aeaf152be7efbf77ca6efb958e53>@@XAEAV?$Matrix@M$04$0HAI@$0A@$04$0HAI@@Eigen@@@std@@8
rdata$r	ENDS
;	COMDAT ??_R0?AV?$_Func_base@XAEAV?$Matrix@M$04$0HAI@$0A@$04$0HAI@@Eigen@@@std@@@8
data$r	SEGMENT
??_R0?AV?$_Func_base@XAEAV?$Matrix@M$04$0HAI@$0A@$04$0HAI@@Eigen@@@std@@@8 DQ FLAT:??_7type_info@@6B@ ; std::_Func_base<void,Eigen::Matrix<float,5,1800,0,5,1800> &> `RTTI Type Descriptor'
	DQ	0000000000000000H
	DB	'.?AV?$_Func_base@XAEAV?$Matrix@M$04$0HAI@$0A@$04$0HAI@@E'
	DB	'igen@@@std@@', 00H
data$r	ENDS
;	COMDAT ??_R3?$_Func_impl_no_alloc@V<lambda_0e2c7996eb0a75f26b49712cb9964e86>@@XAEAV?$Matrix@M$01$0DIE@$0A@$01$0DIE@@Eigen@@@std@@8
rdata$r	SEGMENT
??_R3?$_Func_impl_no_alloc@V<lambda_0e2c7996eb0a75f26b49712cb9964e86>@@XAEAV?$Matrix@M$01$0DIE@$0A@$01$0DIE@@Eigen@@@std@@8 DD 00H ; std::_Func_impl_no_alloc<<lambda_0e2c7996eb0a75f26b49712cb9964e86>,void,Eigen::Matrix<float,2,900,0,2,900> &>::`RTTI Class Hierarchy Descriptor'
	DD	00H
	DD	02H
	DD	imagerel ??_R2?$_Func_impl_no_alloc@V<lambda_0e2c7996eb0a75f26b49712cb9964e86>@@XAEAV?$Matrix@M$01$0DIE@$0A@$01$0DIE@@Eigen@@@std@@8
rdata$r	ENDS
;	COMDAT ??_R0?AV?$_Func_impl_no_alloc@V<lambda_c657f287e15fc491416ba6e302275332>@@XAEAV?$Matrix@M$00$00$0A@$00$00@Eigen@@@std@@@8
data$r	SEGMENT
??_R0?AV?$_Func_impl_no_alloc@V<lambda_c657f287e15fc491416ba6e302275332>@@XAEAV?$Matrix@M$00$00$0A@$00$00@Eigen@@@std@@@8 DQ FLAT:??_7type_info@@6B@ ; std::_Func_impl_no_alloc<<lambda_c657f287e15fc491416ba6e302275332>,void,Eigen::Matrix<float,1,1,0,1,1> &> `RTTI Type Descriptor'
	DQ	0000000000000000H
	DB	'.?AV?$_Func_impl_no_alloc@V<lambda_c657f287e15fc491416ba'
	DB	'6e302275332>@@XAEAV?$Matrix@M$00$00$0A@$00$00@Eigen@@@std@@', 00H
data$r	ENDS
;	COMDAT ??_R0?AV?$_Func_base@XAEAV?$Matrix@M$0CFI@$00$0A@$0CFI@$00@Eigen@@@std@@@8
data$r	SEGMENT
??_R0?AV?$_Func_base@XAEAV?$Matrix@M$0CFI@$00$0A@$0CFI@$00@Eigen@@@std@@@8 DQ FLAT:??_7type_info@@6B@ ; std::_Func_base<void,Eigen::Matrix<float,600,1,0,600,1> &> `RTTI Type Descriptor'
	DQ	0000000000000000H
	DB	'.?AV?$_Func_base@XAEAV?$Matrix@M$0CFI@$00$0A@$0CFI@$00@E'
	DB	'igen@@@std@@', 00H
data$r	ENDS
;	COMDAT ??_R0?AV?$_Func_impl_no_alloc@V<lambda_e59a36d63fa9b180d2bdb46e4e73b762>@@XAEAV?$Matrix@M$00$0CFI@$00$00$0CFI@@Eigen@@@std@@@8
data$r	SEGMENT
??_R0?AV?$_Func_impl_no_alloc@V<lambda_e59a36d63fa9b180d2bdb46e4e73b762>@@XAEAV?$Matrix@M$00$0CFI@$00$00$0CFI@@Eigen@@@std@@@8 DQ FLAT:??_7type_info@@6B@ ; std::_Func_impl_no_alloc<<lambda_e59a36d63fa9b180d2bdb46e4e73b762>,void,Eigen::Matrix<float,1,600,1,1,600> &> `RTTI Type Descriptor'
	DQ	0000000000000000H
	DB	'.?AV?$_Func_impl_no_alloc@V<lambda_e59a36d63fa9b180d2bdb'
	DB	'46e4e73b762>@@XAEAV?$Matrix@M$00$0CFI@$00$00$0CFI@@Eigen@@@st'
	DB	'd@@', 00H
data$r	ENDS
;	COMDAT ??_7?$_Func_impl_no_alloc@V<lambda_4b6a8a51850f5d545928c34009db14a7>@@XAEAV?$Matrix@M$02$0ELA@$0A@$02$0ELA@@Eigen@@@std@@6B@
CONST	SEGMENT
??_7?$_Func_impl_no_alloc@V<lambda_4b6a8a51850f5d545928c34009db14a7>@@XAEAV?$Matrix@M$02$0ELA@$0A@$02$0ELA@@Eigen@@@std@@6B@ DQ FLAT:??_R4?$_Func_impl_no_alloc@V<lambda_4b6a8a51850f5d545928c34009db14a7>@@XAEAV?$Matrix@M$02$0ELA@$0A@$02$0ELA@@Eigen@@@std@@6B@ ; std::_Func_impl_no_alloc<<lambda_4b6a8a51850f5d545928c34009db14a7>,void,Eigen::Matrix<float,3,1200,0,3,1200> &>::`vftable'
	DQ	FLAT:?_Copy@?$_Func_impl_no_alloc@V<lambda_4b6a8a51850f5d545928c34009db14a7>@@XAEAV?$Matrix@M$02$0ELA@$0A@$02$0ELA@@Eigen@@@std@@EEBAPEAV?$_Func_base@XAEAV?$Matrix@M$02$0ELA@$0A@$02$0ELA@@Eigen@@@2@PEAX@Z
	DQ	FLAT:?_Move@?$_Func_impl_no_alloc@V<lambda_4b6a8a51850f5d545928c34009db14a7>@@XAEAV?$Matrix@M$02$0ELA@$0A@$02$0ELA@@Eigen@@@std@@EEAAPEAV?$_Func_base@XAEAV?$Matrix@M$02$0ELA@$0A@$02$0ELA@@Eigen@@@2@PEAX@Z
	DQ	FLAT:?_Do_call@?$_Func_impl_no_alloc@V<lambda_4b6a8a51850f5d545928c34009db14a7>@@XAEAV?$Matrix@M$02$0ELA@$0A@$02$0ELA@@Eigen@@@std@@EEAAXAEAV?$Matrix@M$02$0ELA@$0A@$02$0ELA@@Eigen@@@Z
	DQ	FLAT:?_Target_type@?$_Func_impl_no_alloc@V<lambda_4b6a8a51850f5d545928c34009db14a7>@@XAEAV?$Matrix@M$02$0ELA@$0A@$02$0ELA@@Eigen@@@std@@EEBAAEBVtype_info@@XZ
	DQ	FLAT:?_Delete_this@?$_Func_impl_no_alloc@V<lambda_4b6a8a51850f5d545928c34009db14a7>@@XAEAV?$Matrix@M$02$0ELA@$0A@$02$0ELA@@Eigen@@@std@@EEAAX_N@Z
	DQ	FLAT:?_Get@?$_Func_impl_no_alloc@V<lambda_4b6a8a51850f5d545928c34009db14a7>@@XAEAV?$Matrix@M$02$0ELA@$0A@$02$0ELA@@Eigen@@@std@@EEBAPEBXXZ
CONST	ENDS
;	COMDAT ??_R2?$_Func_base@XAEAV?$Matrix@M$03$0FNM@$0A@$03$0FNM@@Eigen@@@std@@8
rdata$r	SEGMENT
??_R2?$_Func_base@XAEAV?$Matrix@M$03$0FNM@$0A@$03$0FNM@@Eigen@@@std@@8 DD imagerel ??_R1A@?0A@EA@?$_Func_base@XAEAV?$Matrix@M$03$0FNM@$0A@$03$0FNM@@Eigen@@@std@@8 ; std::_Func_base<void,Eigen::Matrix<float,4,1500,0,4,1500> &>::`RTTI Base Class Array'
	ORG $+3
rdata$r	ENDS
;	COMDAT ??_R2?$_Func_impl_no_alloc@V<lambda_e59a36d63fa9b180d2bdb46e4e73b762>@@XAEAV?$Matrix@M$00$0CFI@$00$00$0CFI@@Eigen@@@std@@8
rdata$r	SEGMENT
??_R2?$_Func_impl_no_alloc@V<lambda_e59a36d63fa9b180d2bdb46e4e73b762>@@XAEAV?$Matrix@M$00$0CFI@$00$00$0CFI@@Eigen@@@std@@8 DD imagerel ??_R1A@?0A@EA@?$_Func_impl_no_alloc@V<lambda_e59a36d63fa9b180d2bdb46e4e73b762>@@XAEAV?$Matrix@M$00$0CFI@$00$00$0CFI@@Eigen@@@std@@8 ; std::_Func_impl_no_alloc<<lambda_e59a36d63fa9b180d2bdb46e4e73b762>,void,Eigen::Matrix<float,1,600,1,1,600> &>::`RTTI Base Class Array'
	DD	imagerel ??_R1A@?0A@EA@?$_Func_base@XAEAV?$Matrix@M$00$0CFI@$00$00$0CFI@@Eigen@@@std@@8
	ORG $+3
rdata$r	ENDS
;	COMDAT ??_R2?$_Func_impl_no_alloc@V<lambda_0e2c7996eb0a75f26b49712cb9964e86>@@XAEAV?$Matrix@M$01$0DIE@$0A@$01$0DIE@@Eigen@@@std@@8
rdata$r	SEGMENT
??_R2?$_Func_impl_no_alloc@V<lambda_0e2c7996eb0a75f26b49712cb9964e86>@@XAEAV?$Matrix@M$01$0DIE@$0A@$01$0DIE@@Eigen@@@std@@8 DD imagerel ??_R1A@?0A@EA@?$_Func_impl_no_alloc@V<lambda_0e2c7996eb0a75f26b49712cb9964e86>@@XAEAV?$Matrix@M$01$0DIE@$0A@$01$0DIE@@Eigen@@@std@@8 ; std::_Func_impl_no_alloc<<lambda_0e2c7996eb0a75f26b49712cb9964e86>,void,Eigen::Matrix<float,2,900,0,2,900> &>::`RTTI Base Class Array'
	DD	imagerel ??_R1A@?0A@EA@?$_Func_base@XAEAV?$Matrix@M$01$0DIE@$0A@$01$0DIE@@Eigen@@@std@@8
	ORG $+3
rdata$r	ENDS
;	COMDAT ??_R2?$_Func_impl_no_alloc@V<lambda_bf46721522673a75721ecbf1b51f6e33>@@XAEAV?$Matrix@M$00$0CFI@$00$00$0CFI@@Eigen@@@std@@8
rdata$r	SEGMENT
??_R2?$_Func_impl_no_alloc@V<lambda_bf46721522673a75721ecbf1b51f6e33>@@XAEAV?$Matrix@M$00$0CFI@$00$00$0CFI@@Eigen@@@std@@8 DD imagerel ??_R1A@?0A@EA@?$_Func_impl_no_alloc@V<lambda_bf46721522673a75721ecbf1b51f6e33>@@XAEAV?$Matrix@M$00$0CFI@$00$00$0CFI@@Eigen@@@std@@8 ; std::_Func_impl_no_alloc<<lambda_bf46721522673a75721ecbf1b51f6e33>,void,Eigen::Matrix<float,1,600,1,1,600> &>::`RTTI Base Class Array'
	DD	imagerel ??_R1A@?0A@EA@?$_Func_base@XAEAV?$Matrix@M$00$0CFI@$00$00$0CFI@@Eigen@@@std@@8
	ORG $+3
rdata$r	ENDS
;	COMDAT ??_7?$_Func_impl_no_alloc@V<lambda_0e2c7996eb0a75f26b49712cb9964e86>@@XAEAV?$Matrix@M$01$0DIE@$0A@$01$0DIE@@Eigen@@@std@@6B@
CONST	SEGMENT
??_7?$_Func_impl_no_alloc@V<lambda_0e2c7996eb0a75f26b49712cb9964e86>@@XAEAV?$Matrix@M$01$0DIE@$0A@$01$0DIE@@Eigen@@@std@@6B@ DQ FLAT:??_R4?$_Func_impl_no_alloc@V<lambda_0e2c7996eb0a75f26b49712cb9964e86>@@XAEAV?$Matrix@M$01$0DIE@$0A@$01$0DIE@@Eigen@@@std@@6B@ ; std::_Func_impl_no_alloc<<lambda_0e2c7996eb0a75f26b49712cb9964e86>,void,Eigen::Matrix<float,2,900,0,2,900> &>::`vftable'
	DQ	FLAT:?_Copy@?$_Func_impl_no_alloc@V<lambda_0e2c7996eb0a75f26b49712cb9964e86>@@XAEAV?$Matrix@M$01$0DIE@$0A@$01$0DIE@@Eigen@@@std@@EEBAPEAV?$_Func_base@XAEAV?$Matrix@M$01$0DIE@$0A@$01$0DIE@@Eigen@@@2@PEAX@Z
	DQ	FLAT:?_Move@?$_Func_impl_no_alloc@V<lambda_0e2c7996eb0a75f26b49712cb9964e86>@@XAEAV?$Matrix@M$01$0DIE@$0A@$01$0DIE@@Eigen@@@std@@EEAAPEAV?$_Func_base@XAEAV?$Matrix@M$01$0DIE@$0A@$01$0DIE@@Eigen@@@2@PEAX@Z
	DQ	FLAT:?_Do_call@?$_Func_impl_no_alloc@V<lambda_0e2c7996eb0a75f26b49712cb9964e86>@@XAEAV?$Matrix@M$01$0DIE@$0A@$01$0DIE@@Eigen@@@std@@EEAAXAEAV?$Matrix@M$01$0DIE@$0A@$01$0DIE@@Eigen@@@Z
	DQ	FLAT:?_Target_type@?$_Func_impl_no_alloc@V<lambda_0e2c7996eb0a75f26b49712cb9964e86>@@XAEAV?$Matrix@M$01$0DIE@$0A@$01$0DIE@@Eigen@@@std@@EEBAAEBVtype_info@@XZ
	DQ	FLAT:?_Delete_this@?$_Func_impl_no_alloc@V<lambda_0e2c7996eb0a75f26b49712cb9964e86>@@XAEAV?$Matrix@M$01$0DIE@$0A@$01$0DIE@@Eigen@@@std@@EEAAX_N@Z
	DQ	FLAT:?_Get@?$_Func_impl_no_alloc@V<lambda_0e2c7996eb0a75f26b49712cb9964e86>@@XAEAV?$Matrix@M$01$0DIE@$0A@$01$0DIE@@Eigen@@@std@@EEBAPEBXXZ
CONST	ENDS
;	COMDAT ?layersInformation@@3QBUlayerInfo@@B
CONST	SEGMENT
?layersInformation@@3QBUlayerInfo@@B DD 02328H		; layersInformation
	DD	02H
	DD	02H
	DD	06H
	DD	07H
	DD	03H
	DD	012cH
	DD	01770H
	DD	02H
	DD	02H
	DD	05H
	DD	06H
	DD	012cH
	DD	012cH
	DD	0e10H
	DD	02H
	DD	02H
	DD	04H
	DD	05H
	DD	012cH
	DD	012cH
	DD	0708H
	DD	02H
	DD	02H
	DD	03H
	DD	04H
	DD	012cH
	DD	012cH
	DD	0258H
	DD	02H
	DD	02H
	DD	02H
	DD	03H
	DD	012cH
	DD	012cH
	DD	0258H
	DD	01H
	DD	01H
	DD	01H
	DD	02H
	DD	012cH
	DD	012cH
	DD	0258H
	DD	0ffffffffH
	DD	0ffffffffH
	DD	0ffffffffH
	DD	0ffffffffH
	DD	0ffffffffH
	DD	0ffffffffH
	DD	01H
	DD	0ffffffffH
	DD	0ffffffffH
	DD	0ffffffffH
	DD	0ffffffffH
	DD	0ffffffffH
	DD	0ffffffffH
CONST	ENDS
;	COMDAT ??_R3?$_Func_impl_no_alloc@V<lambda_4b6a8a51850f5d545928c34009db14a7>@@XAEAV?$Matrix@M$02$0ELA@$0A@$02$0ELA@@Eigen@@@std@@8
rdata$r	SEGMENT
??_R3?$_Func_impl_no_alloc@V<lambda_4b6a8a51850f5d545928c34009db14a7>@@XAEAV?$Matrix@M$02$0ELA@$0A@$02$0ELA@@Eigen@@@std@@8 DD 00H ; std::_Func_impl_no_alloc<<lambda_4b6a8a51850f5d545928c34009db14a7>,void,Eigen::Matrix<float,3,1200,0,3,1200> &>::`RTTI Class Hierarchy Descriptor'
	DD	00H
	DD	02H
	DD	imagerel ??_R2?$_Func_impl_no_alloc@V<lambda_4b6a8a51850f5d545928c34009db14a7>@@XAEAV?$Matrix@M$02$0ELA@$0A@$02$0ELA@@Eigen@@@std@@8
rdata$r	ENDS
;	COMDAT ??_R0?AV<lambda_bf46721522673a75721ecbf1b51f6e33>@@@8
data$r	SEGMENT
??_R0?AV<lambda_bf46721522673a75721ecbf1b51f6e33>@@@8 DQ FLAT:??_7type_info@@6B@ ; <lambda_bf46721522673a75721ecbf1b51f6e33> `RTTI Type Descriptor'
	DQ	0000000000000000H
	DB	'.?AV<lambda_bf46721522673a75721ecbf1b51f6e33>@@', 00H
data$r	ENDS
;	COMDAT ??_R0?AV?$_Func_base@XAEAV?$Matrix@M$03$0FNM@$0A@$03$0FNM@@Eigen@@@std@@@8
data$r	SEGMENT
??_R0?AV?$_Func_base@XAEAV?$Matrix@M$03$0FNM@$0A@$03$0FNM@@Eigen@@@std@@@8 DQ FLAT:??_7type_info@@6B@ ; std::_Func_base<void,Eigen::Matrix<float,4,1500,0,4,1500> &> `RTTI Type Descriptor'
	DQ	0000000000000000H
	DB	'.?AV?$_Func_base@XAEAV?$Matrix@M$03$0FNM@$0A@$03$0FNM@@E'
	DB	'igen@@@std@@', 00H
data$r	ENDS
;	COMDAT ??_R4?$_Func_impl_no_alloc@V<lambda_f297720c149faf1753d51c302ed9fca1>@@XAEAV?$Matrix@M$03$0FNM@$0A@$03$0FNM@@Eigen@@@std@@6B@
rdata$r	SEGMENT
??_R4?$_Func_impl_no_alloc@V<lambda_f297720c149faf1753d51c302ed9fca1>@@XAEAV?$Matrix@M$03$0FNM@$0A@$03$0FNM@@Eigen@@@std@@6B@ DD 01H ; std::_Func_impl_no_alloc<<lambda_f297720c149faf1753d51c302ed9fca1>,void,Eigen::Matrix<float,4,1500,0,4,1500> &>::`RTTI Complete Object Locator'
	DD	00H
	DD	00H
	DD	imagerel ??_R0?AV?$_Func_impl_no_alloc@V<lambda_f297720c149faf1753d51c302ed9fca1>@@XAEAV?$Matrix@M$03$0FNM@$0A@$03$0FNM@@Eigen@@@std@@@8
	DD	imagerel ??_R3?$_Func_impl_no_alloc@V<lambda_f297720c149faf1753d51c302ed9fca1>@@XAEAV?$Matrix@M$03$0FNM@$0A@$03$0FNM@@Eigen@@@std@@8
	DD	imagerel ??_R4?$_Func_impl_no_alloc@V<lambda_f297720c149faf1753d51c302ed9fca1>@@XAEAV?$Matrix@M$03$0FNM@$0A@$03$0FNM@@Eigen@@@std@@6B@
rdata$r	ENDS
;	COMDAT ??_R3?$_Func_impl_no_alloc@V<lambda_bf46721522673a75721ecbf1b51f6e33>@@XAEAV?$Matrix@M$00$0CFI@$00$00$0CFI@@Eigen@@@std@@8
rdata$r	SEGMENT
??_R3?$_Func_impl_no_alloc@V<lambda_bf46721522673a75721ecbf1b51f6e33>@@XAEAV?$Matrix@M$00$0CFI@$00$00$0CFI@@Eigen@@@std@@8 DD 00H ; std::_Func_impl_no_alloc<<lambda_bf46721522673a75721ecbf1b51f6e33>,void,Eigen::Matrix<float,1,600,1,1,600> &>::`RTTI Class Hierarchy Descriptor'
	DD	00H
	DD	02H
	DD	imagerel ??_R2?$_Func_impl_no_alloc@V<lambda_bf46721522673a75721ecbf1b51f6e33>@@XAEAV?$Matrix@M$00$0CFI@$00$00$0CFI@@Eigen@@@std@@8
rdata$r	ENDS
;	COMDAT ??_R1A@?0A@EA@?$_Func_impl_no_alloc@V<lambda_aaf9aeaf152be7efbf77ca6efb958e53>@@XAEAV?$Matrix@M$04$0HAI@$0A@$04$0HAI@@Eigen@@@std@@8
rdata$r	SEGMENT
??_R1A@?0A@EA@?$_Func_impl_no_alloc@V<lambda_aaf9aeaf152be7efbf77ca6efb958e53>@@XAEAV?$Matrix@M$04$0HAI@$0A@$04$0HAI@@Eigen@@@std@@8 DD imagerel ??_R0?AV?$_Func_impl_no_alloc@V<lambda_aaf9aeaf152be7efbf77ca6efb958e53>@@XAEAV?$Matrix@M$04$0HAI@$0A@$04$0HAI@@Eigen@@@std@@@8 ; std::_Func_impl_no_alloc<<lambda_aaf9aeaf152be7efbf77ca6efb958e53>,void,Eigen::Matrix<float,5,1800,0,5,1800> &>::`RTTI Base Class Descriptor at (0,-1,0,64)'
	DD	01H
	DD	00H
	DD	0ffffffffH
	DD	00H
	DD	040H
	DD	imagerel ??_R3?$_Func_impl_no_alloc@V<lambda_aaf9aeaf152be7efbf77ca6efb958e53>@@XAEAV?$Matrix@M$04$0HAI@$0A@$04$0HAI@@Eigen@@@std@@8
rdata$r	ENDS
;	COMDAT ??_R2?$_Func_base@XAEAV?$Matrix@M$01$0DIE@$0A@$01$0DIE@@Eigen@@@std@@8
rdata$r	SEGMENT
??_R2?$_Func_base@XAEAV?$Matrix@M$01$0DIE@$0A@$01$0DIE@@Eigen@@@std@@8 DD imagerel ??_R1A@?0A@EA@?$_Func_base@XAEAV?$Matrix@M$01$0DIE@$0A@$01$0DIE@@Eigen@@@std@@8 ; std::_Func_base<void,Eigen::Matrix<float,2,900,0,2,900> &>::`RTTI Base Class Array'
	ORG $+3
rdata$r	ENDS
;	COMDAT ??_R3?$_Func_base@XAEAV?$Matrix@M$02$0ELA@$0A@$02$0ELA@@Eigen@@@std@@8
rdata$r	SEGMENT
??_R3?$_Func_base@XAEAV?$Matrix@M$02$0ELA@$0A@$02$0ELA@@Eigen@@@std@@8 DD 00H ; std::_Func_base<void,Eigen::Matrix<float,3,1200,0,3,1200> &>::`RTTI Class Hierarchy Descriptor'
	DD	00H
	DD	01H
	DD	imagerel ??_R2?$_Func_base@XAEAV?$Matrix@M$02$0ELA@$0A@$02$0ELA@@Eigen@@@std@@8
rdata$r	ENDS
;	COMDAT ??_R0?AV<lambda_e59a36d63fa9b180d2bdb46e4e73b762>@@@8
data$r	SEGMENT
??_R0?AV<lambda_e59a36d63fa9b180d2bdb46e4e73b762>@@@8 DQ FLAT:??_7type_info@@6B@ ; <lambda_e59a36d63fa9b180d2bdb46e4e73b762> `RTTI Type Descriptor'
	DQ	0000000000000000H
	DB	'.?AV<lambda_e59a36d63fa9b180d2bdb46e4e73b762>@@', 00H
data$r	ENDS
;	COMDAT ??_7?$_Func_impl_no_alloc@V<lambda_f297720c149faf1753d51c302ed9fca1>@@XAEAV?$Matrix@M$03$0FNM@$0A@$03$0FNM@@Eigen@@@std@@6B@
CONST	SEGMENT
??_7?$_Func_impl_no_alloc@V<lambda_f297720c149faf1753d51c302ed9fca1>@@XAEAV?$Matrix@M$03$0FNM@$0A@$03$0FNM@@Eigen@@@std@@6B@ DQ FLAT:??_R4?$_Func_impl_no_alloc@V<lambda_f297720c149faf1753d51c302ed9fca1>@@XAEAV?$Matrix@M$03$0FNM@$0A@$03$0FNM@@Eigen@@@std@@6B@ ; std::_Func_impl_no_alloc<<lambda_f297720c149faf1753d51c302ed9fca1>,void,Eigen::Matrix<float,4,1500,0,4,1500> &>::`vftable'
	DQ	FLAT:?_Copy@?$_Func_impl_no_alloc@V<lambda_f297720c149faf1753d51c302ed9fca1>@@XAEAV?$Matrix@M$03$0FNM@$0A@$03$0FNM@@Eigen@@@std@@EEBAPEAV?$_Func_base@XAEAV?$Matrix@M$03$0FNM@$0A@$03$0FNM@@Eigen@@@2@PEAX@Z
	DQ	FLAT:?_Move@?$_Func_impl_no_alloc@V<lambda_f297720c149faf1753d51c302ed9fca1>@@XAEAV?$Matrix@M$03$0FNM@$0A@$03$0FNM@@Eigen@@@std@@EEAAPEAV?$_Func_base@XAEAV?$Matrix@M$03$0FNM@$0A@$03$0FNM@@Eigen@@@2@PEAX@Z
	DQ	FLAT:?_Do_call@?$_Func_impl_no_alloc@V<lambda_f297720c149faf1753d51c302ed9fca1>@@XAEAV?$Matrix@M$03$0FNM@$0A@$03$0FNM@@Eigen@@@std@@EEAAXAEAV?$Matrix@M$03$0FNM@$0A@$03$0FNM@@Eigen@@@Z
	DQ	FLAT:?_Target_type@?$_Func_impl_no_alloc@V<lambda_f297720c149faf1753d51c302ed9fca1>@@XAEAV?$Matrix@M$03$0FNM@$0A@$03$0FNM@@Eigen@@@std@@EEBAAEBVtype_info@@XZ
	DQ	FLAT:?_Delete_this@?$_Func_impl_no_alloc@V<lambda_f297720c149faf1753d51c302ed9fca1>@@XAEAV?$Matrix@M$03$0FNM@$0A@$03$0FNM@@Eigen@@@std@@EEAAX_N@Z
	DQ	FLAT:?_Get@?$_Func_impl_no_alloc@V<lambda_f297720c149faf1753d51c302ed9fca1>@@XAEAV?$Matrix@M$03$0FNM@$0A@$03$0FNM@@Eigen@@@std@@EEBAPEBXXZ
CONST	ENDS
;	COMDAT ??_R1A@?0A@EA@?$_Func_base@XAEAV?$Matrix@M$00$00$0A@$00$00@Eigen@@@std@@8
rdata$r	SEGMENT
??_R1A@?0A@EA@?$_Func_base@XAEAV?$Matrix@M$00$00$0A@$00$00@Eigen@@@std@@8 DD imagerel ??_R0?AV?$_Func_base@XAEAV?$Matrix@M$00$00$0A@$00$00@Eigen@@@std@@@8 ; std::_Func_base<void,Eigen::Matrix<float,1,1,0,1,1> &>::`RTTI Base Class Descriptor at (0,-1,0,64)'
	DD	00H
	DD	00H
	DD	0ffffffffH
	DD	00H
	DD	040H
	DD	imagerel ??_R3?$_Func_base@XAEAV?$Matrix@M$00$00$0A@$00$00@Eigen@@@std@@8
rdata$r	ENDS
;	COMDAT ??_7?$_Func_impl_no_alloc@V<lambda_7c64d632bde275759d15ad8612349e4b>@@XAEAV?$Matrix@M$0CFI@$00$0A@$0CFI@$00@Eigen@@@std@@6B@
CONST	SEGMENT
??_7?$_Func_impl_no_alloc@V<lambda_7c64d632bde275759d15ad8612349e4b>@@XAEAV?$Matrix@M$0CFI@$00$0A@$0CFI@$00@Eigen@@@std@@6B@ DQ FLAT:??_R4?$_Func_impl_no_alloc@V<lambda_7c64d632bde275759d15ad8612349e4b>@@XAEAV?$Matrix@M$0CFI@$00$0A@$0CFI@$00@Eigen@@@std@@6B@ ; std::_Func_impl_no_alloc<<lambda_7c64d632bde275759d15ad8612349e4b>,void,Eigen::Matrix<float,600,1,0,600,1> &>::`vftable'
	DQ	FLAT:?_Copy@?$_Func_impl_no_alloc@V<lambda_7c64d632bde275759d15ad8612349e4b>@@XAEAV?$Matrix@M$0CFI@$00$0A@$0CFI@$00@Eigen@@@std@@EEBAPEAV?$_Func_base@XAEAV?$Matrix@M$0CFI@$00$0A@$0CFI@$00@Eigen@@@2@PEAX@Z
	DQ	FLAT:?_Move@?$_Func_impl_no_alloc@V<lambda_7c64d632bde275759d15ad8612349e4b>@@XAEAV?$Matrix@M$0CFI@$00$0A@$0CFI@$00@Eigen@@@std@@EEAAPEAV?$_Func_base@XAEAV?$Matrix@M$0CFI@$00$0A@$0CFI@$00@Eigen@@@2@PEAX@Z
	DQ	FLAT:?_Do_call@?$_Func_impl_no_alloc@V<lambda_7c64d632bde275759d15ad8612349e4b>@@XAEAV?$Matrix@M$0CFI@$00$0A@$0CFI@$00@Eigen@@@std@@EEAAXAEAV?$Matrix@M$0CFI@$00$0A@$0CFI@$00@Eigen@@@Z
	DQ	FLAT:?_Target_type@?$_Func_impl_no_alloc@V<lambda_7c64d632bde275759d15ad8612349e4b>@@XAEAV?$Matrix@M$0CFI@$00$0A@$0CFI@$00@Eigen@@@std@@EEBAAEBVtype_info@@XZ
	DQ	FLAT:?_Delete_this@?$_Func_impl_no_alloc@V<lambda_7c64d632bde275759d15ad8612349e4b>@@XAEAV?$Matrix@M$0CFI@$00$0A@$0CFI@$00@Eigen@@@std@@EEAAX_N@Z
	DQ	FLAT:?_Get@?$_Func_impl_no_alloc@V<lambda_7c64d632bde275759d15ad8612349e4b>@@XAEAV?$Matrix@M$0CFI@$00$0A@$0CFI@$00@Eigen@@@std@@EEBAPEBXXZ
CONST	ENDS
;	COMDAT ??_R4?$_Func_impl_no_alloc@V<lambda_e59a36d63fa9b180d2bdb46e4e73b762>@@XAEAV?$Matrix@M$00$0CFI@$00$00$0CFI@@Eigen@@@std@@6B@
rdata$r	SEGMENT
??_R4?$_Func_impl_no_alloc@V<lambda_e59a36d63fa9b180d2bdb46e4e73b762>@@XAEAV?$Matrix@M$00$0CFI@$00$00$0CFI@@Eigen@@@std@@6B@ DD 01H ; std::_Func_impl_no_alloc<<lambda_e59a36d63fa9b180d2bdb46e4e73b762>,void,Eigen::Matrix<float,1,600,1,1,600> &>::`RTTI Complete Object Locator'
	DD	00H
	DD	00H
	DD	imagerel ??_R0?AV?$_Func_impl_no_alloc@V<lambda_e59a36d63fa9b180d2bdb46e4e73b762>@@XAEAV?$Matrix@M$00$0CFI@$00$00$0CFI@@Eigen@@@std@@@8
	DD	imagerel ??_R3?$_Func_impl_no_alloc@V<lambda_e59a36d63fa9b180d2bdb46e4e73b762>@@XAEAV?$Matrix@M$00$0CFI@$00$00$0CFI@@Eigen@@@std@@8
	DD	imagerel ??_R4?$_Func_impl_no_alloc@V<lambda_e59a36d63fa9b180d2bdb46e4e73b762>@@XAEAV?$Matrix@M$00$0CFI@$00$00$0CFI@@Eigen@@@std@@6B@
rdata$r	ENDS
;	COMDAT ??_R3?$_Func_impl_no_alloc@V<lambda_e59a36d63fa9b180d2bdb46e4e73b762>@@XAEAV?$Matrix@M$00$0CFI@$00$00$0CFI@@Eigen@@@std@@8
rdata$r	SEGMENT
??_R3?$_Func_impl_no_alloc@V<lambda_e59a36d63fa9b180d2bdb46e4e73b762>@@XAEAV?$Matrix@M$00$0CFI@$00$00$0CFI@@Eigen@@@std@@8 DD 00H ; std::_Func_impl_no_alloc<<lambda_e59a36d63fa9b180d2bdb46e4e73b762>,void,Eigen::Matrix<float,1,600,1,1,600> &>::`RTTI Class Hierarchy Descriptor'
	DD	00H
	DD	02H
	DD	imagerel ??_R2?$_Func_impl_no_alloc@V<lambda_e59a36d63fa9b180d2bdb46e4e73b762>@@XAEAV?$Matrix@M$00$0CFI@$00$00$0CFI@@Eigen@@@std@@8
rdata$r	ENDS
;	COMDAT ??_R2?$_Func_impl_no_alloc@V<lambda_f297720c149faf1753d51c302ed9fca1>@@XAEAV?$Matrix@M$03$0FNM@$0A@$03$0FNM@@Eigen@@@std@@8
rdata$r	SEGMENT
??_R2?$_Func_impl_no_alloc@V<lambda_f297720c149faf1753d51c302ed9fca1>@@XAEAV?$Matrix@M$03$0FNM@$0A@$03$0FNM@@Eigen@@@std@@8 DD imagerel ??_R1A@?0A@EA@?$_Func_impl_no_alloc@V<lambda_f297720c149faf1753d51c302ed9fca1>@@XAEAV?$Matrix@M$03$0FNM@$0A@$03$0FNM@@Eigen@@@std@@8 ; std::_Func_impl_no_alloc<<lambda_f297720c149faf1753d51c302ed9fca1>,void,Eigen::Matrix<float,4,1500,0,4,1500> &>::`RTTI Base Class Array'
	DD	imagerel ??_R1A@?0A@EA@?$_Func_base@XAEAV?$Matrix@M$03$0FNM@$0A@$03$0FNM@@Eigen@@@std@@8
	ORG $+3
rdata$r	ENDS
;	COMDAT ??_R0?AV?$_Func_base@XAEAV?$Matrix@M$00$00$0A@$00$00@Eigen@@@std@@@8
data$r	SEGMENT
??_R0?AV?$_Func_base@XAEAV?$Matrix@M$00$00$0A@$00$00@Eigen@@@std@@@8 DQ FLAT:??_7type_info@@6B@ ; std::_Func_base<void,Eigen::Matrix<float,1,1,0,1,1> &> `RTTI Type Descriptor'
	DQ	0000000000000000H
	DB	'.?AV?$_Func_base@XAEAV?$Matrix@M$00$00$0A@$00$00@Eigen@@'
	DB	'@std@@', 00H
data$r	ENDS
;	COMDAT ??_R3?$_Func_base@XAEAV?$Matrix@M$04$0HAI@$0A@$04$0HAI@@Eigen@@@std@@8
rdata$r	SEGMENT
??_R3?$_Func_base@XAEAV?$Matrix@M$04$0HAI@$0A@$04$0HAI@@Eigen@@@std@@8 DD 00H ; std::_Func_base<void,Eigen::Matrix<float,5,1800,0,5,1800> &>::`RTTI Class Hierarchy Descriptor'
	DD	00H
	DD	01H
	DD	imagerel ??_R2?$_Func_base@XAEAV?$Matrix@M$04$0HAI@$0A@$04$0HAI@@Eigen@@@std@@8
rdata$r	ENDS
;	COMDAT ??_R0?AV?$_Func_base@XAEAV?$Matrix@M$02$0ELA@$0A@$02$0ELA@@Eigen@@@std@@@8
data$r	SEGMENT
??_R0?AV?$_Func_base@XAEAV?$Matrix@M$02$0ELA@$0A@$02$0ELA@@Eigen@@@std@@@8 DQ FLAT:??_7type_info@@6B@ ; std::_Func_base<void,Eigen::Matrix<float,3,1200,0,3,1200> &> `RTTI Type Descriptor'
	DQ	0000000000000000H
	DB	'.?AV?$_Func_base@XAEAV?$Matrix@M$02$0ELA@$0A@$02$0ELA@@E'
	DB	'igen@@@std@@', 00H
PUBLIC	??$coeff@_J@?$evaluator@V?$CwiseNullaryOp@U?$scalar_constant_op@M@internal@Eigen@@V?$Matrix@M$0?0$00$0A@$0?0$00@3@@Eigen@@@internal@Eigen@@QEBAM_J@Z ; Eigen::internal::evaluator<Eigen::CwiseNullaryOp<Eigen::internal::scalar_constant_op<float>,Eigen::Matrix<float,-1,1,0,-1,1> > >::coeff<__int64>
PUBLIC	??$packet@$03T__m128@@_J@?$evaluator@V?$CwiseNullaryOp@U?$scalar_constant_op@M@internal@Eigen@@V?$Matrix@M$0?0$00$0A@$0?0$00@3@@Eigen@@@internal@Eigen@@QEBA?AT__m128@@_J@Z ; Eigen::internal::evaluator<Eigen::CwiseNullaryOp<Eigen::internal::scalar_constant_op<float>,Eigen::Matrix<float,-1,1,0,-1,1> > >::packet<4,__m128,__int64>
PUBLIC	?rows@?$CwiseNullaryOp@U?$scalar_constant_op@M@internal@Eigen@@V?$Matrix@M$0?0$00$0A@$0?0$00@3@@Eigen@@QEBA_JXZ ; Eigen::CwiseNullaryOp<Eigen::internal::scalar_constant_op<float>,Eigen::Matrix<float,-1,1,0,-1,1> >::rows
PUBLIC	?cols@?$CwiseNullaryOp@U?$scalar_constant_op@M@internal@Eigen@@V?$Matrix@M$0?0$00$0A@$0?0$00@3@@Eigen@@QEBA_JXZ ; Eigen::CwiseNullaryOp<Eigen::internal::scalar_constant_op<float>,Eigen::Matrix<float,-1,1,0,-1,1> >::cols
PUBLIC	?rowStride@?$mapbase_evaluator@V?$Map@V?$Matrix@M$0?0$00$0A@$0?0$00@Eigen@@$03V?$Stride@$0A@$0A@@2@@Eigen@@V?$Matrix@M$0?0$00$0A@$0?0$00@2@@internal@Eigen@@IEBA_JXZ ; Eigen::internal::mapbase_evaluator<Eigen::Map<Eigen::Matrix<float,-1,1,0,-1,1>,4,Eigen::Stride<0,0> >,Eigen::Matrix<float,-1,1,0,-1,1> >::rowStride
PUBLIC	?colStride@?$mapbase_evaluator@V?$Map@V?$Matrix@M$0?0$00$0A@$0?0$00@Eigen@@$03V?$Stride@$0A@$0A@@2@@Eigen@@V?$Matrix@M$0?0$00$0A@$0?0$00@2@@internal@Eigen@@IEBA_JXZ ; Eigen::internal::mapbase_evaluator<Eigen::Map<Eigen::Matrix<float,-1,1,0,-1,1>,4,Eigen::Stride<0,0> >,Eigen::Matrix<float,-1,1,0,-1,1> >::colStride
PUBLIC	?assignCoeff@?$generic_dense_assignment_kernel@U?$evaluator@V?$Map@V?$Matrix@M$0?0$00$0A@$0?0$00@Eigen@@$03V?$Stride@$0A@$0A@@2@@Eigen@@@internal@Eigen@@U?$evaluator@V?$CwiseNullaryOp@U?$scalar_constant_op@M@internal@Eigen@@V?$Matrix@M$0?0$00$0A@$0?0$00@3@@Eigen@@@23@U?$assign_op@MM@23@$0A@@internal@Eigen@@QEAAX_J@Z ; Eigen::internal::generic_dense_assignment_kernel<Eigen::internal::evaluator<Eigen::Map<Eigen::Matrix<float,-1,1,0,-1,1>,4,Eigen::Stride<0,0> > >,Eigen::internal::evaluator<Eigen::CwiseNullaryOp<Eigen::internal::scalar_constant_op<float>,Eigen::Matrix<float,-1,1,0,-1,1> > >,Eigen::internal::assign_op<float,float>,0>::assignCoeff
PUBLIC	??$assignPacket@$0BA@$03T__m128@@@?$generic_dense_assignment_kernel@U?$evaluator@V?$Map@V?$Matrix@M$0?0$00$0A@$0?0$00@Eigen@@$03V?$Stride@$0A@$0A@@2@@Eigen@@@internal@Eigen@@U?$evaluator@V?$CwiseNullaryOp@U?$scalar_constant_op@M@internal@Eigen@@V?$Matrix@M$0?0$00$0A@$0?0$00@3@@Eigen@@@23@U?$assign_op@MM@23@$0A@@internal@Eigen@@QEAAX_J@Z ; Eigen::internal::generic_dense_assignment_kernel<Eigen::internal::evaluator<Eigen::Map<Eigen::Matrix<float,-1,1,0,-1,1>,4,Eigen::Stride<0,0> > >,Eigen::internal::evaluator<Eigen::CwiseNullaryOp<Eigen::internal::scalar_constant_op<float>,Eigen::Matrix<float,-1,1,0,-1,1> > >,Eigen::internal::assign_op<float,float>,0>::assignPacket<16,4,__m128>
PUBLIC	??$run@V?$generic_dense_assignment_kernel@U?$evaluator@V?$Map@V?$Matrix@M$0?0$00$0A@$0?0$00@Eigen@@$03V?$Stride@$0A@$0A@@2@@Eigen@@@internal@Eigen@@U?$evaluator@V?$CwiseNullaryOp@U?$scalar_constant_op@M@internal@Eigen@@V?$Matrix@M$0?0$00$0A@$0?0$00@3@@Eigen@@@23@U?$assign_op@MM@23@$0A@@internal@Eigen@@@?$unaligned_dense_assignment_loop@$0A@@internal@Eigen@@SAXAEAV?$generic_dense_assignment_kernel@U?$evaluator@V?$Map@V?$Matrix@M$0?0$00$0A@$0?0$00@Eigen@@$03V?$Stride@$0A@$0A@@2@@Eigen@@@internal@Eigen@@U?$evaluator@V?$CwiseNullaryOp@U?$scalar_constant_op@M@internal@Eigen@@V?$Matrix@M$0?0$00$0A@$0?0$00@3@@Eigen@@@23@U?$assign_op@MM@23@$0A@@12@_J1@Z ; Eigen::internal::unaligned_dense_assignment_loop<0>::run<Eigen::internal::generic_dense_assignment_kernel<Eigen::internal::evaluator<Eigen::Map<Eigen::Matrix<float,-1,1,0,-1,1>,4,Eigen::Stride<0,0> > >,Eigen::internal::evaluator<Eigen::CwiseNullaryOp<Eigen::internal::scalar_constant_op<float>,Eigen::Matrix<float,-1,1,0,-1,1> > >,Eigen::internal::assign_op<float,float>,0> >
PUBLIC	??$resize_if_allowed@V?$Map@V?$Matrix@M$0?0$00$0A@$0?0$00@Eigen@@$03V?$Stride@$0A@$0A@@2@@Eigen@@V?$CwiseNullaryOp@U?$scalar_constant_op@M@internal@Eigen@@V?$Matrix@M$0?0$00$0A@$0?0$00@3@@2@MM@internal@Eigen@@YAXAEAV?$Map@V?$Matrix@M$0?0$00$0A@$0?0$00@Eigen@@$03V?$Stride@$0A@$0A@@2@@1@AEBV?$CwiseNullaryOp@U?$scalar_constant_op@M@internal@Eigen@@V?$Matrix@M$0?0$00$0A@$0?0$00@3@@1@AEBU?$assign_op@MM@01@@Z ; Eigen::internal::resize_if_allowed<Eigen::Map<Eigen::Matrix<float,-1,1,0,-1,1>,4,Eigen::Stride<0,0> >,Eigen::CwiseNullaryOp<Eigen::internal::scalar_constant_op<float>,Eigen::Matrix<float,-1,1,0,-1,1> >,float,float>
PUBLIC	??$assignPacket@$0BA@$03T__m128@@@?$generic_dense_assignment_kernel@U?$evaluator@V?$Matrix@M$0CFI@$00$0A@$0CFI@$00@Eigen@@@internal@Eigen@@U?$evaluator@V?$Map@V?$Matrix@M$0?0$00$0A@$0?0$00@Eigen@@$03V?$Stride@$0A@$0A@@2@@Eigen@@@23@U?$assign_op@MM@23@$0A@@internal@Eigen@@QEAAX_J0@Z ; Eigen::internal::generic_dense_assignment_kernel<Eigen::internal::evaluator<Eigen::Matrix<float,600,1,0,600,1> >,Eigen::internal::evaluator<Eigen::Map<Eigen::Matrix<float,-1,1,0,-1,1>,4,Eigen::Stride<0,0> > >,Eigen::internal::assign_op<float,float>,0>::assignPacket<16,4,__m128>
PUBLIC	??$ploadt@T__m128@@$03@internal@Eigen@@YA?AT__m128@@PEBM@Z ; Eigen::internal::ploadt<__m128,4>
PUBLIC	??$packet@$0BA@T__m128@@_J@?$evaluator@V?$CwiseNullaryOp@U?$scalar_constant_op@M@internal@Eigen@@V?$Matrix@M$0CFI@$00$0A@$0CFI@$00@3@@Eigen@@@internal@Eigen@@QEBA?AT__m128@@_J0@Z ; Eigen::internal::evaluator<Eigen::CwiseNullaryOp<Eigen::internal::scalar_constant_op<float>,Eigen::Matrix<float,600,1,0,600,1> > >::packet<16,__m128,__int64>
PUBLIC	??$packet@$03T__m128@@@?$mapbase_evaluator@V?$Map@V?$Matrix@M$0?0$00$0A@$0?0$00@Eigen@@$03V?$Stride@$0A@$0A@@2@@Eigen@@V?$Matrix@M$0?0$00$0A@$0?0$00@2@@internal@Eigen@@QEBA?AT__m128@@_J0@Z ; Eigen::internal::mapbase_evaluator<Eigen::Map<Eigen::Matrix<float,-1,1,0,-1,1>,4,Eigen::Stride<0,0> >,Eigen::Matrix<float,-1,1,0,-1,1> >::packet<4,__m128>
PUBLIC	??$packet@$03T__m128@@_J@?$evaluator@V?$CwiseNullaryOp@U?$scalar_constant_op@M@internal@Eigen@@$$CBV?$Matrix@M$0?0$00$0A@$0?0$00@3@@Eigen@@@internal@Eigen@@QEBA?AT__m128@@_J0@Z ; Eigen::internal::evaluator<Eigen::CwiseNullaryOp<Eigen::internal::scalar_constant_op<float>,Eigen::Matrix<float,-1,1,0,-1,1> const > >::packet<4,__m128,__int64>
PUBLIC	?functor@?$CwiseNullaryOp@U?$scalar_constant_op@M@internal@Eigen@@V?$Matrix@M$0?0$00$0A@$0?0$00@3@@Eigen@@QEBAAEBU?$scalar_constant_op@M@internal@2@XZ ; Eigen::CwiseNullaryOp<Eigen::internal::scalar_constant_op<float>,Eigen::Matrix<float,-1,1,0,-1,1> >::functor
PUBLIC	??0?$evaluator_base@V?$CwiseNullaryOp@U?$scalar_constant_op@M@internal@Eigen@@V?$Matrix@M$0?0$00$0A@$0?0$00@3@@Eigen@@@internal@Eigen@@QEAA@XZ ; Eigen::internal::evaluator_base<Eigen::CwiseNullaryOp<Eigen::internal::scalar_constant_op<float>,Eigen::Matrix<float,-1,1,0,-1,1> > >::evaluator_base<Eigen::CwiseNullaryOp<Eigen::internal::scalar_constant_op<float>,Eigen::Matrix<float,-1,1,0,-1,1> > >
PUBLIC	?size@?$generic_dense_assignment_kernel@U?$evaluator@V?$Map@V?$Matrix@M$0?0$00$0A@$0?0$00@Eigen@@$03V?$Stride@$0A@$0A@@2@@Eigen@@@internal@Eigen@@U?$evaluator@V?$CwiseNullaryOp@U?$scalar_constant_op@M@internal@Eigen@@V?$Matrix@M$0?0$00$0A@$0?0$00@3@@Eigen@@@23@U?$assign_op@MM@23@$0A@@internal@Eigen@@QEBA_JXZ ; Eigen::internal::generic_dense_assignment_kernel<Eigen::internal::evaluator<Eigen::Map<Eigen::Matrix<float,-1,1,0,-1,1>,4,Eigen::Stride<0,0> > >,Eigen::internal::evaluator<Eigen::CwiseNullaryOp<Eigen::internal::scalar_constant_op<float>,Eigen::Matrix<float,-1,1,0,-1,1> > >,Eigen::internal::assign_op<float,float>,0>::size
PUBLIC	?dstDataPtr@?$generic_dense_assignment_kernel@U?$evaluator@V?$Map@V?$Matrix@M$0?0$00$0A@$0?0$00@Eigen@@$03V?$Stride@$0A@$0A@@2@@Eigen@@@internal@Eigen@@U?$evaluator@V?$CwiseNullaryOp@U?$scalar_constant_op@M@internal@Eigen@@V?$Matrix@M$0?0$00$0A@$0?0$00@3@@Eigen@@@23@U?$assign_op@MM@23@$0A@@internal@Eigen@@QEBAPEBMXZ ; Eigen::internal::generic_dense_assignment_kernel<Eigen::internal::evaluator<Eigen::Map<Eigen::Matrix<float,-1,1,0,-1,1>,4,Eigen::Stride<0,0> > >,Eigen::internal::evaluator<Eigen::CwiseNullaryOp<Eigen::internal::scalar_constant_op<float>,Eigen::Matrix<float,-1,1,0,-1,1> > >,Eigen::internal::assign_op<float,float>,0>::dstDataPtr
PUBLIC	?func@Data@?$binary_evaluator@V?$CwiseBinaryOp@U?$scalar_product_op@MM@internal@Eigen@@$$CBV?$CwiseNullaryOp@U?$scalar_constant_op@M@internal@Eigen@@$$CBV?$Matrix@M$0?0$00$0A@$0?0$00@3@@3@$$CBV?$Map@V?$Matrix@M$0?0$00$0A@$0?0$00@Eigen@@$03V?$Stride@$0A@$0A@@2@@3@@Eigen@@UIndexBased@internal@2@U342@MM@internal@Eigen@@QEBAAEBU?$scalar_product_op@MM@34@XZ ; Eigen::internal::binary_evaluator<Eigen::CwiseBinaryOp<Eigen::internal::scalar_product_op<float,float>,Eigen::CwiseNullaryOp<Eigen::internal::scalar_constant_op<float>,Eigen::Matrix<float,-1,1,0,-1,1> const > const ,Eigen::Map<Eigen::Matrix<float,-1,1,0,-1,1>,4,Eigen::Stride<0,0> > const >,Eigen::internal::IndexBased,Eigen::internal::IndexBased,float,float>::Data::func
PUBLIC	?rowIndexByOuterInner@?$generic_dense_assignment_kernel@U?$evaluator@V?$Matrix@M$0CFI@$00$0A@$0CFI@$00@Eigen@@@internal@Eigen@@U?$evaluator@V?$Map@V?$Matrix@M$0?0$00$0A@$0?0$00@Eigen@@$03V?$Stride@$0A@$0A@@2@@Eigen@@@23@U?$assign_op@MM@23@$0A@@internal@Eigen@@SA_J_J0@Z ; Eigen::internal::generic_dense_assignment_kernel<Eigen::internal::evaluator<Eigen::Matrix<float,600,1,0,600,1> >,Eigen::internal::evaluator<Eigen::Map<Eigen::Matrix<float,-1,1,0,-1,1>,4,Eigen::Stride<0,0> > >,Eigen::internal::assign_op<float,float>,0>::rowIndexByOuterInner
PUBLIC	?colIndexByOuterInner@?$generic_dense_assignment_kernel@U?$evaluator@V?$Matrix@M$0CFI@$00$0A@$0CFI@$00@Eigen@@@internal@Eigen@@U?$evaluator@V?$Map@V?$Matrix@M$0?0$00$0A@$0?0$00@Eigen@@$03V?$Stride@$0A@$0A@@2@@Eigen@@@23@U?$assign_op@MM@23@$0A@@internal@Eigen@@SA_J_J0@Z ; Eigen::internal::generic_dense_assignment_kernel<Eigen::internal::evaluator<Eigen::Matrix<float,600,1,0,600,1> >,Eigen::internal::evaluator<Eigen::Map<Eigen::Matrix<float,-1,1,0,-1,1>,4,Eigen::Stride<0,0> > >,Eigen::internal::assign_op<float,float>,0>::colIndexByOuterInner
PUBLIC	??1?$evaluator_base@V?$CwiseNullaryOp@U?$scalar_constant_op@M@internal@Eigen@@V?$Matrix@M$0?0$00$0A@$0?0$00@3@@Eigen@@@internal@Eigen@@QEAA@XZ ; Eigen::internal::evaluator_base<Eigen::CwiseNullaryOp<Eigen::internal::scalar_constant_op<float>,Eigen::Matrix<float,-1,1,0,-1,1> > >::~evaluator_base<Eigen::CwiseNullaryOp<Eigen::internal::scalar_constant_op<float>,Eigen::Matrix<float,-1,1,0,-1,1> > >
PUBLIC	??0?$evaluator@V?$CwiseNullaryOp@U?$scalar_constant_op@M@internal@Eigen@@V?$Matrix@M$0?0$00$0A@$0?0$00@3@@Eigen@@@internal@Eigen@@QEAA@AEBV?$CwiseNullaryOp@U?$scalar_constant_op@M@internal@Eigen@@V?$Matrix@M$0?0$00$0A@$0?0$00@3@@2@@Z ; Eigen::internal::evaluator<Eigen::CwiseNullaryOp<Eigen::internal::scalar_constant_op<float>,Eigen::Matrix<float,-1,1,0,-1,1> > >::evaluator<Eigen::CwiseNullaryOp<Eigen::internal::scalar_constant_op<float>,Eigen::Matrix<float,-1,1,0,-1,1> > >
PUBLIC	??0?$generic_dense_assignment_kernel@U?$evaluator@V?$Map@V?$Matrix@M$0?0$00$0A@$0?0$00@Eigen@@$03V?$Stride@$0A@$0A@@2@@Eigen@@@internal@Eigen@@U?$evaluator@V?$CwiseNullaryOp@U?$scalar_constant_op@M@internal@Eigen@@V?$Matrix@M$0?0$00$0A@$0?0$00@3@@Eigen@@@23@U?$assign_op@MM@23@$0A@@internal@Eigen@@QEAA@AEAU?$evaluator@V?$Map@V?$Matrix@M$0?0$00$0A@$0?0$00@Eigen@@$03V?$Stride@$0A@$0A@@2@@Eigen@@@12@AEBU?$evaluator@V?$CwiseNullaryOp@U?$scalar_constant_op@M@internal@Eigen@@V?$Matrix@M$0?0$00$0A@$0?0$00@3@@Eigen@@@12@AEBU?$assign_op@MM@12@AEAV?$Map@V?$Matrix@M$0?0$00$0A@$0?0$00@Eigen@@$03V?$Stride@$0A@$0A@@2@@2@@Z ; Eigen::internal::generic_dense_assignment_kernel<Eigen::internal::evaluator<Eigen::Map<Eigen::Matrix<float,-1,1,0,-1,1>,4,Eigen::Stride<0,0> > >,Eigen::internal::evaluator<Eigen::CwiseNullaryOp<Eigen::internal::scalar_constant_op<float>,Eigen::Matrix<float,-1,1,0,-1,1> > >,Eigen::internal::assign_op<float,float>,0>::generic_dense_assignment_kernel<Eigen::internal::evaluator<Eigen::Map<Eigen::Matrix<float,-1,1,0,-1,1>,4,Eigen::Stride<0,0> > >,Eigen::internal::evaluator<Eigen::CwiseNullaryOp<Eigen::internal::scalar_constant_op<float>,Eigen::Matrix<float,-1,1,0,-1,1> > >,Eigen::internal::assign_op<float,float>,0>
PUBLIC	?run@?$dense_assignment_loop@V?$generic_dense_assignment_kernel@U?$evaluator@V?$Map@V?$Matrix@M$0?0$00$0A@$0?0$00@Eigen@@$03V?$Stride@$0A@$0A@@2@@Eigen@@@internal@Eigen@@U?$evaluator@V?$CwiseNullaryOp@U?$scalar_constant_op@M@internal@Eigen@@V?$Matrix@M$0?0$00$0A@$0?0$00@3@@Eigen@@@23@U?$assign_op@MM@23@$0A@@internal@Eigen@@$02$0A@@internal@Eigen@@SAXAEAV?$generic_dense_assignment_kernel@U?$evaluator@V?$Map@V?$Matrix@M$0?0$00$0A@$0?0$00@Eigen@@$03V?$Stride@$0A@$0A@@2@@Eigen@@@internal@Eigen@@U?$evaluator@V?$CwiseNullaryOp@U?$scalar_constant_op@M@internal@Eigen@@V?$Matrix@M$0?0$00$0A@$0?0$00@3@@Eigen@@@23@U?$assign_op@MM@23@$0A@@23@@Z ; Eigen::internal::dense_assignment_loop<Eigen::internal::generic_dense_assignment_kernel<Eigen::internal::evaluator<Eigen::Map<Eigen::Matrix<float,-1,1,0,-1,1>,4,Eigen::Stride<0,0> > >,Eigen::internal::evaluator<Eigen::CwiseNullaryOp<Eigen::internal::scalar_constant_op<float>,Eigen::Matrix<float,-1,1,0,-1,1> > >,Eigen::internal::assign_op<float,float>,0>,3,0>::run
PUBLIC	??1?$evaluator@V?$CwiseNullaryOp@U?$scalar_constant_op@M@internal@Eigen@@V?$Matrix@M$0?0$00$0A@$0?0$00@3@@Eigen@@@internal@Eigen@@QEAA@XZ ; Eigen::internal::evaluator<Eigen::CwiseNullaryOp<Eigen::internal::scalar_constant_op<float>,Eigen::Matrix<float,-1,1,0,-1,1> > >::~evaluator<Eigen::CwiseNullaryOp<Eigen::internal::scalar_constant_op<float>,Eigen::Matrix<float,-1,1,0,-1,1> > >
PUBLIC	??$call_dense_assignment_loop@V?$Map@V?$Matrix@M$0?0$00$0A@$0?0$00@Eigen@@$03V?$Stride@$0A@$0A@@2@@Eigen@@V?$CwiseNullaryOp@U?$scalar_constant_op@M@internal@Eigen@@V?$Matrix@M$0?0$00$0A@$0?0$00@3@@2@U?$assign_op@MM@internal@2@@internal@Eigen@@YAXAEAV?$Map@V?$Matrix@M$0?0$00$0A@$0?0$00@Eigen@@$03V?$Stride@$0A@$0A@@2@@1@AEBV?$CwiseNullaryOp@U?$scalar_constant_op@M@internal@Eigen@@V?$Matrix@M$0?0$00$0A@$0?0$00@3@@1@AEBU?$assign_op@MM@01@@Z ; Eigen::internal::call_dense_assignment_loop<Eigen::Map<Eigen::Matrix<float,-1,1,0,-1,1>,4,Eigen::Stride<0,0> >,Eigen::CwiseNullaryOp<Eigen::internal::scalar_constant_op<float>,Eigen::Matrix<float,-1,1,0,-1,1> >,Eigen::internal::assign_op<float,float> >
PUBLIC	??$assignPacketByOuterInner@$0BA@$03T__m128@@@?$generic_dense_assignment_kernel@U?$evaluator@V?$Matrix@M$0CFI@$00$0A@$0CFI@$00@Eigen@@@internal@Eigen@@U?$evaluator@V?$Map@V?$Matrix@M$0?0$00$0A@$0?0$00@Eigen@@$03V?$Stride@$0A@$0A@@2@@Eigen@@@23@U?$assign_op@MM@23@$0A@@internal@Eigen@@QEAAX_J0@Z ; Eigen::internal::generic_dense_assignment_kernel<Eigen::internal::evaluator<Eigen::Matrix<float,600,1,0,600,1> >,Eigen::internal::evaluator<Eigen::Map<Eigen::Matrix<float,-1,1,0,-1,1>,4,Eigen::Stride<0,0> > >,Eigen::internal::assign_op<float,float>,0>::assignPacketByOuterInner<16,4,__m128>
PUBLIC	??$resize_if_allowed@V?$Matrix@M$0CFI@$00$0A@$0CFI@$00@Eigen@@V?$Map@V?$Matrix@M$0?0$00$0A@$0?0$00@Eigen@@$03V?$Stride@$0A@$0A@@2@@2@MM@internal@Eigen@@YAXAEAV?$Matrix@M$0CFI@$00$0A@$0CFI@$00@1@AEBV?$Map@V?$Matrix@M$0?0$00$0A@$0?0$00@Eigen@@$03V?$Stride@$0A@$0A@@2@@1@AEBU?$assign_op@MM@01@@Z ; Eigen::internal::resize_if_allowed<Eigen::Matrix<float,600,1,0,600,1>,Eigen::Map<Eigen::Matrix<float,-1,1,0,-1,1>,4,Eigen::Stride<0,0> >,float,float>
PUBLIC	??$packet@$03T__m128@@@?$evaluator@V?$PlainObjectBase@V?$Matrix@M$0CFI@$00$0A@$0CFI@$00@Eigen@@@Eigen@@@internal@Eigen@@QEBA?AT__m128@@_J@Z ; Eigen::internal::evaluator<Eigen::PlainObjectBase<Eigen::Matrix<float,600,1,0,600,1> > >::packet<4,__m128>
PUBLIC	??$assignPacket@$0BA@$0BA@T__m128@@@?$generic_dense_assignment_kernel@U?$evaluator@V?$Matrix@M$0CFI@$00$0A@$0CFI@$00@Eigen@@@internal@Eigen@@U?$evaluator@V?$CwiseNullaryOp@U?$scalar_constant_op@M@internal@Eigen@@V?$Matrix@M$0CFI@$00$0A@$0CFI@$00@3@@Eigen@@@23@U?$assign_op@MM@23@$0A@@internal@Eigen@@QEAAX_J0@Z ; Eigen::internal::generic_dense_assignment_kernel<Eigen::internal::evaluator<Eigen::Matrix<float,600,1,0,600,1> >,Eigen::internal::evaluator<Eigen::CwiseNullaryOp<Eigen::internal::scalar_constant_op<float>,Eigen::Matrix<float,600,1,0,600,1> > >,Eigen::internal::assign_op<float,float>,0>::assignPacket<16,16,__m128>
PUBLIC	??$assignPacket@$0BA@T__m128@@@?$add_assign_op@MM@internal@Eigen@@QEBAXPEAMAEBT__m128@@@Z ; Eigen::internal::add_assign_op<float,float>::assignPacket<16,__m128>
PUBLIC	??$packet@$03T__m128@@@?$binary_evaluator@V?$CwiseBinaryOp@U?$scalar_product_op@MM@internal@Eigen@@$$CBV?$CwiseNullaryOp@U?$scalar_constant_op@M@internal@Eigen@@$$CBV?$Matrix@M$0?0$00$0A@$0?0$00@3@@3@$$CBV?$Map@V?$Matrix@M$0?0$00$0A@$0?0$00@Eigen@@$03V?$Stride@$0A@$0A@@2@@3@@Eigen@@UIndexBased@internal@2@U342@MM@internal@Eigen@@QEBA?AT__m128@@_J0@Z ; Eigen::internal::binary_evaluator<Eigen::CwiseBinaryOp<Eigen::internal::scalar_product_op<float,float>,Eigen::CwiseNullaryOp<Eigen::internal::scalar_constant_op<float>,Eigen::Matrix<float,-1,1,0,-1,1> const > const ,Eigen::Map<Eigen::Matrix<float,-1,1,0,-1,1>,4,Eigen::Stride<0,0> > const >,Eigen::internal::IndexBased,Eigen::internal::IndexBased,float,float>::packet<4,__m128>
PUBLIC	?innerSize@?$generic_dense_assignment_kernel@U?$evaluator@V?$Matrix@M$0CFI@$00$0A@$0CFI@$00@Eigen@@@internal@Eigen@@U?$evaluator@V?$Map@V?$Matrix@M$0?0$00$0A@$0?0$00@Eigen@@$03V?$Stride@$0A@$0A@@2@@Eigen@@@23@U?$assign_op@MM@23@$0A@@internal@Eigen@@QEBA_JXZ ; Eigen::internal::generic_dense_assignment_kernel<Eigen::internal::evaluator<Eigen::Matrix<float,600,1,0,600,1> >,Eigen::internal::evaluator<Eigen::Map<Eigen::Matrix<float,-1,1,0,-1,1>,4,Eigen::Stride<0,0> > >,Eigen::internal::assign_op<float,float>,0>::innerSize
PUBLIC	?outerSize@?$generic_dense_assignment_kernel@U?$evaluator@V?$Matrix@M$0CFI@$00$0A@$0CFI@$00@Eigen@@@internal@Eigen@@U?$evaluator@V?$Map@V?$Matrix@M$0?0$00$0A@$0?0$00@Eigen@@$03V?$Stride@$0A@$0A@@2@@Eigen@@@23@U?$assign_op@MM@23@$0A@@internal@Eigen@@QEBA_JXZ ; Eigen::internal::generic_dense_assignment_kernel<Eigen::internal::evaluator<Eigen::Matrix<float,600,1,0,600,1> >,Eigen::internal::evaluator<Eigen::Map<Eigen::Matrix<float,-1,1,0,-1,1>,4,Eigen::Stride<0,0> > >,Eigen::internal::assign_op<float,float>,0>::outerSize
PUBLIC	?rows@?$CwiseNullaryOp@U?$scalar_constant_op@M@internal@Eigen@@V?$Matrix@M$0CFI@$00$0A@$0CFI@$00@3@@Eigen@@QEBA_JXZ ; Eigen::CwiseNullaryOp<Eigen::internal::scalar_constant_op<float>,Eigen::Matrix<float,600,1,0,600,1> >::rows
PUBLIC	?cols@?$CwiseNullaryOp@U?$scalar_constant_op@M@internal@Eigen@@V?$Matrix@M$0CFI@$00$0A@$0CFI@$00@3@@Eigen@@QEBA_JXZ ; Eigen::CwiseNullaryOp<Eigen::internal::scalar_constant_op<float>,Eigen::Matrix<float,600,1,0,600,1> >::cols
PUBLIC	?resize@?$DenseBase@V?$Map@V?$Matrix@M$0?0$00$0A@$0?0$00@Eigen@@$03V?$Stride@$0A@$0A@@2@@Eigen@@@Eigen@@QEAAX_J0@Z ; Eigen::DenseBase<Eigen::Map<Eigen::Matrix<float,-1,1,0,-1,1>,4,Eigen::Stride<0,0> > >::resize
PUBLIC	?coeffRef@?$mapbase_evaluator@V?$Map@V?$Matrix@M$0?0$00$0A@$0?0$00@Eigen@@$03V?$Stride@$0A@$0A@@2@@Eigen@@V?$Matrix@M$0?0$00$0A@$0?0$00@2@@internal@Eigen@@QEAAAEAM_J@Z ; Eigen::internal::mapbase_evaluator<Eigen::Map<Eigen::Matrix<float,-1,1,0,-1,1>,4,Eigen::Stride<0,0> >,Eigen::Matrix<float,-1,1,0,-1,1> >::coeffRef
PUBLIC	?assignCoeff@?$generic_dense_assignment_kernel@U?$evaluator@V?$Map@V?$Matrix@M$0?0$00$0A@$0?0$00@Eigen@@$03V?$Stride@$0A@$0A@@2@@Eigen@@@internal@Eigen@@U?$evaluator@V?$Matrix@M$0CFI@$00$0A@$0CFI@$00@Eigen@@@23@U?$assign_op@MM@23@$0A@@internal@Eigen@@QEAAX_J@Z ; Eigen::internal::generic_dense_assignment_kernel<Eigen::internal::evaluator<Eigen::Map<Eigen::Matrix<float,-1,1,0,-1,1>,4,Eigen::Stride<0,0> > >,Eigen::internal::evaluator<Eigen::Matrix<float,600,1,0,600,1> >,Eigen::internal::assign_op<float,float>,0>::assignCoeff
PUBLIC	?rowIndexByOuterInner@?$generic_dense_assignment_kernel@U?$evaluator@V?$Matrix@M$0CFI@$00$0A@$0CFI@$00@Eigen@@@internal@Eigen@@U?$evaluator@V?$CwiseNullaryOp@U?$scalar_constant_op@M@internal@Eigen@@V?$Matrix@M$0CFI@$00$0A@$0CFI@$00@3@@Eigen@@@23@U?$assign_op@MM@23@$0A@@internal@Eigen@@SA_J_J0@Z ; Eigen::internal::generic_dense_assignment_kernel<Eigen::internal::evaluator<Eigen::Matrix<float,600,1,0,600,1> >,Eigen::internal::evaluator<Eigen::CwiseNullaryOp<Eigen::internal::scalar_constant_op<float>,Eigen::Matrix<float,600,1,0,600,1> > >,Eigen::internal::assign_op<float,float>,0>::rowIndexByOuterInner
PUBLIC	?colIndexByOuterInner@?$generic_dense_assignment_kernel@U?$evaluator@V?$Matrix@M$0CFI@$00$0A@$0CFI@$00@Eigen@@@internal@Eigen@@U?$evaluator@V?$CwiseNullaryOp@U?$scalar_constant_op@M@internal@Eigen@@V?$Matrix@M$0CFI@$00$0A@$0CFI@$00@3@@Eigen@@@23@U?$assign_op@MM@23@$0A@@internal@Eigen@@SA_J_J0@Z ; Eigen::internal::generic_dense_assignment_kernel<Eigen::internal::evaluator<Eigen::Matrix<float,600,1,0,600,1> >,Eigen::internal::evaluator<Eigen::CwiseNullaryOp<Eigen::internal::scalar_constant_op<float>,Eigen::Matrix<float,600,1,0,600,1> > >,Eigen::internal::assign_op<float,float>,0>::colIndexByOuterInner
PUBLIC	?run@?$Assignment@V?$Map@V?$Matrix@M$0?0$00$0A@$0?0$00@Eigen@@$03V?$Stride@$0A@$0A@@2@@Eigen@@V?$CwiseNullaryOp@U?$scalar_constant_op@M@internal@Eigen@@V?$Matrix@M$0?0$00$0A@$0?0$00@3@@2@U?$assign_op@MM@internal@2@UDense2Dense@52@X@internal@Eigen@@SAXAEAV?$Map@V?$Matrix@M$0?0$00$0A@$0?0$00@Eigen@@$03V?$Stride@$0A@$0A@@2@@3@AEBV?$CwiseNullaryOp@U?$scalar_constant_op@M@internal@Eigen@@V?$Matrix@M$0?0$00$0A@$0?0$00@3@@3@AEBU?$assign_op@MM@23@@Z ; Eigen::internal::Assignment<Eigen::Map<Eigen::Matrix<float,-1,1,0,-1,1>,4,Eigen::Stride<0,0> >,Eigen::CwiseNullaryOp<Eigen::internal::scalar_constant_op<float>,Eigen::Matrix<float,-1,1,0,-1,1> >,Eigen::internal::assign_op<float,float>,Eigen::internal::Dense2Dense,void>::run
PUBLIC	??0?$generic_dense_assignment_kernel@U?$evaluator@V?$Matrix@M$0CFI@$00$0A@$0CFI@$00@Eigen@@@internal@Eigen@@U?$evaluator@V?$Map@V?$Matrix@M$0?0$00$0A@$0?0$00@Eigen@@$03V?$Stride@$0A@$0A@@2@@Eigen@@@23@U?$assign_op@MM@23@$0A@@internal@Eigen@@QEAA@AEAU?$evaluator@V?$Matrix@M$0CFI@$00$0A@$0CFI@$00@Eigen@@@12@AEBU?$evaluator@V?$Map@V?$Matrix@M$0?0$00$0A@$0?0$00@Eigen@@$03V?$Stride@$0A@$0A@@2@@Eigen@@@12@AEBU?$assign_op@MM@12@AEAV?$Matrix@M$0CFI@$00$0A@$0CFI@$00@2@@Z ; Eigen::internal::generic_dense_assignment_kernel<Eigen::internal::evaluator<Eigen::Matrix<float,600,1,0,600,1> >,Eigen::internal::evaluator<Eigen::Map<Eigen::Matrix<float,-1,1,0,-1,1>,4,Eigen::Stride<0,0> > >,Eigen::internal::assign_op<float,float>,0>::generic_dense_assignment_kernel<Eigen::internal::evaluator<Eigen::Matrix<float,600,1,0,600,1> >,Eigen::internal::evaluator<Eigen::Map<Eigen::Matrix<float,-1,1,0,-1,1>,4,Eigen::Stride<0,0> > >,Eigen::internal::assign_op<float,float>,0>
PUBLIC	?run@?$dense_assignment_loop@V?$generic_dense_assignment_kernel@U?$evaluator@V?$Matrix@M$0CFI@$00$0A@$0CFI@$00@Eigen@@@internal@Eigen@@U?$evaluator@V?$Map@V?$Matrix@M$0?0$00$0A@$0?0$00@Eigen@@$03V?$Stride@$0A@$0A@@2@@Eigen@@@23@U?$assign_op@MM@23@$0A@@internal@Eigen@@$01$0A@@internal@Eigen@@SAXAEAV?$generic_dense_assignment_kernel@U?$evaluator@V?$Matrix@M$0CFI@$00$0A@$0CFI@$00@Eigen@@@internal@Eigen@@U?$evaluator@V?$Map@V?$Matrix@M$0?0$00$0A@$0?0$00@Eigen@@$03V?$Stride@$0A@$0A@@2@@Eigen@@@23@U?$assign_op@MM@23@$0A@@23@@Z ; Eigen::internal::dense_assignment_loop<Eigen::internal::generic_dense_assignment_kernel<Eigen::internal::evaluator<Eigen::Matrix<float,600,1,0,600,1> >,Eigen::internal::evaluator<Eigen::Map<Eigen::Matrix<float,-1,1,0,-1,1>,4,Eigen::Stride<0,0> > >,Eigen::internal::assign_op<float,float>,0>,2,0>::run
PUBLIC	??$call_dense_assignment_loop@V?$Matrix@M$0CFI@$00$0A@$0CFI@$00@Eigen@@V?$Map@V?$Matrix@M$0?0$00$0A@$0?0$00@Eigen@@$03V?$Stride@$0A@$0A@@2@@2@U?$assign_op@MM@internal@2@@internal@Eigen@@YAXAEAV?$Matrix@M$0CFI@$00$0A@$0CFI@$00@1@AEBV?$Map@V?$Matrix@M$0?0$00$0A@$0?0$00@Eigen@@$03V?$Stride@$0A@$0A@@2@@1@AEBU?$assign_op@MM@01@@Z ; Eigen::internal::call_dense_assignment_loop<Eigen::Matrix<float,600,1,0,600,1>,Eigen::Map<Eigen::Matrix<float,-1,1,0,-1,1>,4,Eigen::Stride<0,0> >,Eigen::internal::assign_op<float,float> >
PUBLIC	??$assignPacket@$0BA@$03T__m128@@@?$generic_dense_assignment_kernel@U?$evaluator@V?$Map@V?$Matrix@M$0?0$00$0A@$0?0$00@Eigen@@$03V?$Stride@$0A@$0A@@2@@Eigen@@@internal@Eigen@@U?$evaluator@V?$Matrix@M$0CFI@$00$0A@$0CFI@$00@Eigen@@@23@U?$assign_op@MM@23@$0A@@internal@Eigen@@QEAAX_J@Z ; Eigen::internal::generic_dense_assignment_kernel<Eigen::internal::evaluator<Eigen::Map<Eigen::Matrix<float,-1,1,0,-1,1>,4,Eigen::Stride<0,0> > >,Eigen::internal::evaluator<Eigen::Matrix<float,600,1,0,600,1> >,Eigen::internal::assign_op<float,float>,0>::assignPacket<16,4,__m128>
PUBLIC	??$run@V?$generic_dense_assignment_kernel@U?$evaluator@V?$Map@V?$Matrix@M$0?0$00$0A@$0?0$00@Eigen@@$03V?$Stride@$0A@$0A@@2@@Eigen@@@internal@Eigen@@U?$evaluator@V?$Matrix@M$0CFI@$00$0A@$0CFI@$00@Eigen@@@23@U?$assign_op@MM@23@$0A@@internal@Eigen@@@?$unaligned_dense_assignment_loop@$0A@@internal@Eigen@@SAXAEAV?$generic_dense_assignment_kernel@U?$evaluator@V?$Map@V?$Matrix@M$0?0$00$0A@$0?0$00@Eigen@@$03V?$Stride@$0A@$0A@@2@@Eigen@@@internal@Eigen@@U?$evaluator@V?$Matrix@M$0CFI@$00$0A@$0CFI@$00@Eigen@@@23@U?$assign_op@MM@23@$0A@@12@_J1@Z ; Eigen::internal::unaligned_dense_assignment_loop<0>::run<Eigen::internal::generic_dense_assignment_kernel<Eigen::internal::evaluator<Eigen::Map<Eigen::Matrix<float,-1,1,0,-1,1>,4,Eigen::Stride<0,0> > >,Eigen::internal::evaluator<Eigen::Matrix<float,600,1,0,600,1> >,Eigen::internal::assign_op<float,float>,0> >
PUBLIC	??$assignPacketByOuterInner@$0BA@$0BA@T__m128@@@?$generic_dense_assignment_kernel@U?$evaluator@V?$Matrix@M$0CFI@$00$0A@$0CFI@$00@Eigen@@@internal@Eigen@@U?$evaluator@V?$CwiseNullaryOp@U?$scalar_constant_op@M@internal@Eigen@@V?$Matrix@M$0CFI@$00$0A@$0CFI@$00@3@@Eigen@@@23@U?$assign_op@MM@23@$0A@@internal@Eigen@@QEAAX_J0@Z ; Eigen::internal::generic_dense_assignment_kernel<Eigen::internal::evaluator<Eigen::Matrix<float,600,1,0,600,1> >,Eigen::internal::evaluator<Eigen::CwiseNullaryOp<Eigen::internal::scalar_constant_op<float>,Eigen::Matrix<float,600,1,0,600,1> > >,Eigen::internal::assign_op<float,float>,0>::assignPacketByOuterInner<16,16,__m128>
PUBLIC	??$resize_if_allowed@V?$Matrix@M$0CFI@$00$0A@$0CFI@$00@Eigen@@V?$CwiseNullaryOp@U?$scalar_constant_op@M@internal@Eigen@@V?$Matrix@M$0CFI@$00$0A@$0CFI@$00@3@@2@MM@internal@Eigen@@YAXAEAV?$Matrix@M$0CFI@$00$0A@$0CFI@$00@1@AEBV?$CwiseNullaryOp@U?$scalar_constant_op@M@internal@Eigen@@V?$Matrix@M$0CFI@$00$0A@$0CFI@$00@3@@1@AEBU?$assign_op@MM@01@@Z ; Eigen::internal::resize_if_allowed<Eigen::Matrix<float,600,1,0,600,1>,Eigen::CwiseNullaryOp<Eigen::internal::scalar_constant_op<float>,Eigen::Matrix<float,600,1,0,600,1> >,float,float>
PUBLIC	??$resize_if_allowed@V?$Map@V?$Matrix@M$0?0$00$0A@$0?0$00@Eigen@@$03V?$Stride@$0A@$0A@@2@@Eigen@@V?$Matrix@M$0CFI@$00$0A@$0CFI@$00@2@MM@internal@Eigen@@YAXAEAV?$Map@V?$Matrix@M$0?0$00$0A@$0?0$00@Eigen@@$03V?$Stride@$0A@$0A@@2@@1@AEBV?$Matrix@M$0CFI@$00$0A@$0CFI@$00@1@AEBU?$assign_op@MM@01@@Z ; Eigen::internal::resize_if_allowed<Eigen::Map<Eigen::Matrix<float,-1,1,0,-1,1>,4,Eigen::Stride<0,0> >,Eigen::Matrix<float,600,1,0,600,1>,float,float>
PUBLIC	??$assignPacket@$0BA@$03T__m128@@@?$generic_dense_assignment_kernel@U?$evaluator@V?$Matrix@M$0CFI@$00$0A@$0CFI@$00@Eigen@@@internal@Eigen@@U?$evaluator@V?$CwiseBinaryOp@U?$scalar_product_op@MM@internal@Eigen@@$$CBV?$CwiseNullaryOp@U?$scalar_constant_op@M@internal@Eigen@@$$CBV?$Matrix@M$0?0$00$0A@$0?0$00@3@@3@$$CBV?$Map@V?$Matrix@M$0?0$00$0A@$0?0$00@Eigen@@$03V?$Stride@$0A@$0A@@2@@3@@Eigen@@@23@U?$add_assign_op@MM@23@$0A@@internal@Eigen@@QEAAX_J0@Z ; Eigen::internal::generic_dense_assignment_kernel<Eigen::internal::evaluator<Eigen::Matrix<float,600,1,0,600,1> >,Eigen::internal::evaluator<Eigen::CwiseBinaryOp<Eigen::internal::scalar_product_op<float,float>,Eigen::CwiseNullaryOp<Eigen::internal::scalar_constant_op<float>,Eigen::Matrix<float,-1,1,0,-1,1> const > const ,Eigen::Map<Eigen::Matrix<float,-1,1,0,-1,1>,4,Eigen::Stride<0,0> > const > >,Eigen::internal::add_assign_op<float,float>,0>::assignPacket<16,4,__m128>
PUBLIC	??$ignore_unused_variable@V?$CwiseBinaryOp@U?$scalar_product_op@MM@internal@Eigen@@$$CBV?$CwiseNullaryOp@U?$scalar_constant_op@M@internal@Eigen@@$$CBV?$Matrix@M$0?0$00$0A@$0?0$00@3@@3@$$CBV?$Map@V?$Matrix@M$0?0$00$0A@$0?0$00@Eigen@@$03V?$Stride@$0A@$0A@@2@@3@@Eigen@@@internal@Eigen@@YAXAEBV?$CwiseBinaryOp@U?$scalar_product_op@MM@internal@Eigen@@$$CBV?$CwiseNullaryOp@U?$scalar_constant_op@M@internal@Eigen@@$$CBV?$Matrix@M$0?0$00$0A@$0?0$00@3@@3@$$CBV?$Map@V?$Matrix@M$0?0$00$0A@$0?0$00@Eigen@@$03V?$Stride@$0A@$0A@@2@@3@@1@@Z ; Eigen::internal::ignore_unused_variable<Eigen::CwiseBinaryOp<Eigen::internal::scalar_product_op<float,float>,Eigen::CwiseNullaryOp<Eigen::internal::scalar_constant_op<float>,Eigen::Matrix<float,-1,1,0,-1,1> const > const ,Eigen::Map<Eigen::Matrix<float,-1,1,0,-1,1>,4,Eigen::Stride<0,0> > const > >
PUBLIC	??$call_assignment_no_alias@V?$Map@V?$Matrix@M$0?0$00$0A@$0?0$00@Eigen@@$03V?$Stride@$0A@$0A@@2@@Eigen@@V?$CwiseNullaryOp@U?$scalar_constant_op@M@internal@Eigen@@V?$Matrix@M$0?0$00$0A@$0?0$00@3@@2@U?$assign_op@MM@internal@2@@internal@Eigen@@YAXAEAV?$Map@V?$Matrix@M$0?0$00$0A@$0?0$00@Eigen@@$03V?$Stride@$0A@$0A@@2@@1@AEBV?$CwiseNullaryOp@U?$scalar_constant_op@M@internal@Eigen@@V?$Matrix@M$0?0$00$0A@$0?0$00@3@@1@AEBU?$assign_op@MM@01@@Z ; Eigen::internal::call_assignment_no_alias<Eigen::Map<Eigen::Matrix<float,-1,1,0,-1,1>,4,Eigen::Stride<0,0> >,Eigen::CwiseNullaryOp<Eigen::internal::scalar_constant_op<float>,Eigen::Matrix<float,-1,1,0,-1,1> >,Eigen::internal::assign_op<float,float> >
PUBLIC	?data@?$MapBase@V?$Map@V?$Matrix@M$0?0$00$0A@$0?0$00@Eigen@@$03V?$Stride@$0A@$0A@@2@@Eigen@@$00@Eigen@@QEAAPEAMXZ ; Eigen::MapBase<Eigen::Map<Eigen::Matrix<float,-1,1,0,-1,1>,4,Eigen::Stride<0,0> >,1>::data
PUBLIC	?functor@?$CwiseNullaryOp@U?$scalar_constant_op@M@internal@Eigen@@V?$Matrix@M$0CFI@$00$0A@$0CFI@$00@3@@Eigen@@QEBAAEBU?$scalar_constant_op@M@internal@2@XZ ; Eigen::CwiseNullaryOp<Eigen::internal::scalar_constant_op<float>,Eigen::Matrix<float,600,1,0,600,1> >::functor
PUBLIC	?size@?$generic_dense_assignment_kernel@U?$evaluator@V?$Map@V?$Matrix@M$0?0$00$0A@$0?0$00@Eigen@@$03V?$Stride@$0A@$0A@@2@@Eigen@@@internal@Eigen@@U?$evaluator@V?$Matrix@M$0CFI@$00$0A@$0CFI@$00@Eigen@@@23@U?$assign_op@MM@23@$0A@@internal@Eigen@@QEBA_JXZ ; Eigen::internal::generic_dense_assignment_kernel<Eigen::internal::evaluator<Eigen::Map<Eigen::Matrix<float,-1,1,0,-1,1>,4,Eigen::Stride<0,0> > >,Eigen::internal::evaluator<Eigen::Matrix<float,600,1,0,600,1> >,Eigen::internal::assign_op<float,float>,0>::size
PUBLIC	?dstDataPtr@?$generic_dense_assignment_kernel@U?$evaluator@V?$Map@V?$Matrix@M$0?0$00$0A@$0?0$00@Eigen@@$03V?$Stride@$0A@$0A@@2@@Eigen@@@internal@Eigen@@U?$evaluator@V?$Matrix@M$0CFI@$00$0A@$0CFI@$00@Eigen@@@23@U?$assign_op@MM@23@$0A@@internal@Eigen@@QEBAPEBMXZ ; Eigen::internal::generic_dense_assignment_kernel<Eigen::internal::evaluator<Eigen::Map<Eigen::Matrix<float,-1,1,0,-1,1>,4,Eigen::Stride<0,0> > >,Eigen::internal::evaluator<Eigen::Matrix<float,600,1,0,600,1> >,Eigen::internal::assign_op<float,float>,0>::dstDataPtr
PUBLIC	??0?$evaluator_base@V?$CwiseNullaryOp@U?$scalar_constant_op@M@internal@Eigen@@V?$Matrix@M$0CFI@$00$0A@$0CFI@$00@3@@Eigen@@@internal@Eigen@@QEAA@XZ ; Eigen::internal::evaluator_base<Eigen::CwiseNullaryOp<Eigen::internal::scalar_constant_op<float>,Eigen::Matrix<float,600,1,0,600,1> > >::evaluator_base<Eigen::CwiseNullaryOp<Eigen::internal::scalar_constant_op<float>,Eigen::Matrix<float,600,1,0,600,1> > >
PUBLIC	?innerSize@?$generic_dense_assignment_kernel@U?$evaluator@V?$Matrix@M$0CFI@$00$0A@$0CFI@$00@Eigen@@@internal@Eigen@@U?$evaluator@V?$CwiseNullaryOp@U?$scalar_constant_op@M@internal@Eigen@@V?$Matrix@M$0CFI@$00$0A@$0CFI@$00@3@@Eigen@@@23@U?$assign_op@MM@23@$0A@@internal@Eigen@@QEBA_JXZ ; Eigen::internal::generic_dense_assignment_kernel<Eigen::internal::evaluator<Eigen::Matrix<float,600,1,0,600,1> >,Eigen::internal::evaluator<Eigen::CwiseNullaryOp<Eigen::internal::scalar_constant_op<float>,Eigen::Matrix<float,600,1,0,600,1> > >,Eigen::internal::assign_op<float,float>,0>::innerSize
PUBLIC	?outerSize@?$generic_dense_assignment_kernel@U?$evaluator@V?$Matrix@M$0CFI@$00$0A@$0CFI@$00@Eigen@@@internal@Eigen@@U?$evaluator@V?$CwiseNullaryOp@U?$scalar_constant_op@M@internal@Eigen@@V?$Matrix@M$0CFI@$00$0A@$0CFI@$00@3@@Eigen@@@23@U?$assign_op@MM@23@$0A@@internal@Eigen@@QEBA_JXZ ; Eigen::internal::generic_dense_assignment_kernel<Eigen::internal::evaluator<Eigen::Matrix<float,600,1,0,600,1> >,Eigen::internal::evaluator<Eigen::CwiseNullaryOp<Eigen::internal::scalar_constant_op<float>,Eigen::Matrix<float,600,1,0,600,1> > >,Eigen::internal::assign_op<float,float>,0>::outerSize
PUBLIC	?const_cast_derived@?$EigenBase@V?$Map@V?$Matrix@M$0?0$00$0A@$0?0$00@Eigen@@$03V?$Stride@$0A@$0A@@2@@Eigen@@@Eigen@@QEBAAEAV?$Map@V?$Matrix@M$0?0$00$0A@$0?0$00@Eigen@@$03V?$Stride@$0A@$0A@@2@@2@XZ ; Eigen::EigenBase<Eigen::Map<Eigen::Matrix<float,-1,1,0,-1,1>,4,Eigen::Stride<0,0> > >::const_cast_derived
PUBLIC	?rowIndexByOuterInner@?$generic_dense_assignment_kernel@U?$evaluator@V?$Matrix@M$0CFI@$00$0A@$0CFI@$00@Eigen@@@internal@Eigen@@U?$evaluator@V?$CwiseBinaryOp@U?$scalar_product_op@MM@internal@Eigen@@$$CBV?$CwiseNullaryOp@U?$scalar_constant_op@M@internal@Eigen@@$$CBV?$Matrix@M$0?0$00$0A@$0?0$00@3@@3@$$CBV?$Map@V?$Matrix@M$0?0$00$0A@$0?0$00@Eigen@@$03V?$Stride@$0A@$0A@@2@@3@@Eigen@@@23@U?$add_assign_op@MM@23@$0A@@internal@Eigen@@SA_J_J0@Z ; Eigen::internal::generic_dense_assignment_kernel<Eigen::internal::evaluator<Eigen::Matrix<float,600,1,0,600,1> >,Eigen::internal::evaluator<Eigen::CwiseBinaryOp<Eigen::internal::scalar_product_op<float,float>,Eigen::CwiseNullaryOp<Eigen::internal::scalar_constant_op<float>,Eigen::Matrix<float,-1,1,0,-1,1> const > const ,Eigen::Map<Eigen::Matrix<float,-1,1,0,-1,1>,4,Eigen::Stride<0,0> > const > >,Eigen::internal::add_assign_op<float,float>,0>::rowIndexByOuterInner
PUBLIC	?colIndexByOuterInner@?$generic_dense_assignment_kernel@U?$evaluator@V?$Matrix@M$0CFI@$00$0A@$0CFI@$00@Eigen@@@internal@Eigen@@U?$evaluator@V?$CwiseBinaryOp@U?$scalar_product_op@MM@internal@Eigen@@$$CBV?$CwiseNullaryOp@U?$scalar_constant_op@M@internal@Eigen@@$$CBV?$Matrix@M$0?0$00$0A@$0?0$00@3@@3@$$CBV?$Map@V?$Matrix@M$0?0$00$0A@$0?0$00@Eigen@@$03V?$Stride@$0A@$0A@@2@@3@@Eigen@@@23@U?$add_assign_op@MM@23@$0A@@internal@Eigen@@SA_J_J0@Z ; Eigen::internal::generic_dense_assignment_kernel<Eigen::internal::evaluator<Eigen::Matrix<float,600,1,0,600,1> >,Eigen::internal::evaluator<Eigen::CwiseBinaryOp<Eigen::internal::scalar_product_op<float,float>,Eigen::CwiseNullaryOp<Eigen::internal::scalar_constant_op<float>,Eigen::Matrix<float,-1,1,0,-1,1> const > const ,Eigen::Map<Eigen::Matrix<float,-1,1,0,-1,1>,4,Eigen::Stride<0,0> > const > >,Eigen::internal::add_assign_op<float,float>,0>::colIndexByOuterInner
PUBLIC	?run@?$Assignment@V?$Matrix@M$0CFI@$00$0A@$0CFI@$00@Eigen@@V?$Map@V?$Matrix@M$0?0$00$0A@$0?0$00@Eigen@@$03V?$Stride@$0A@$0A@@2@@2@U?$assign_op@MM@internal@2@UDense2Dense@52@X@internal@Eigen@@SAXAEAV?$Matrix@M$0CFI@$00$0A@$0CFI@$00@3@AEBV?$Map@V?$Matrix@M$0?0$00$0A@$0?0$00@Eigen@@$03V?$Stride@$0A@$0A@@2@@3@AEBU?$assign_op@MM@23@@Z ; Eigen::internal::Assignment<Eigen::Matrix<float,600,1,0,600,1>,Eigen::Map<Eigen::Matrix<float,-1,1,0,-1,1>,4,Eigen::Stride<0,0> >,Eigen::internal::assign_op<float,float>,Eigen::internal::Dense2Dense,void>::run
PUBLIC	??0?$generic_dense_assignment_kernel@U?$evaluator@V?$Map@V?$Matrix@M$0?0$00$0A@$0?0$00@Eigen@@$03V?$Stride@$0A@$0A@@2@@Eigen@@@internal@Eigen@@U?$evaluator@V?$Matrix@M$0CFI@$00$0A@$0CFI@$00@Eigen@@@23@U?$assign_op@MM@23@$0A@@internal@Eigen@@QEAA@AEAU?$evaluator@V?$Map@V?$Matrix@M$0?0$00$0A@$0?0$00@Eigen@@$03V?$Stride@$0A@$0A@@2@@Eigen@@@12@AEBU?$evaluator@V?$Matrix@M$0CFI@$00$0A@$0CFI@$00@Eigen@@@12@AEBU?$assign_op@MM@12@AEAV?$Map@V?$Matrix@M$0?0$00$0A@$0?0$00@Eigen@@$03V?$Stride@$0A@$0A@@2@@2@@Z ; Eigen::internal::generic_dense_assignment_kernel<Eigen::internal::evaluator<Eigen::Map<Eigen::Matrix<float,-1,1,0,-1,1>,4,Eigen::Stride<0,0> > >,Eigen::internal::evaluator<Eigen::Matrix<float,600,1,0,600,1> >,Eigen::internal::assign_op<float,float>,0>::generic_dense_assignment_kernel<Eigen::internal::evaluator<Eigen::Map<Eigen::Matrix<float,-1,1,0,-1,1>,4,Eigen::Stride<0,0> > >,Eigen::internal::evaluator<Eigen::Matrix<float,600,1,0,600,1> >,Eigen::internal::assign_op<float,float>,0>
PUBLIC	?run@?$dense_assignment_loop@V?$generic_dense_assignment_kernel@U?$evaluator@V?$Map@V?$Matrix@M$0?0$00$0A@$0?0$00@Eigen@@$03V?$Stride@$0A@$0A@@2@@Eigen@@@internal@Eigen@@U?$evaluator@V?$Matrix@M$0CFI@$00$0A@$0CFI@$00@Eigen@@@23@U?$assign_op@MM@23@$0A@@internal@Eigen@@$02$0A@@internal@Eigen@@SAXAEAV?$generic_dense_assignment_kernel@U?$evaluator@V?$Map@V?$Matrix@M$0?0$00$0A@$0?0$00@Eigen@@$03V?$Stride@$0A@$0A@@2@@Eigen@@@internal@Eigen@@U?$evaluator@V?$Matrix@M$0CFI@$00$0A@$0CFI@$00@Eigen@@@23@U?$assign_op@MM@23@$0A@@23@@Z ; Eigen::internal::dense_assignment_loop<Eigen::internal::generic_dense_assignment_kernel<Eigen::internal::evaluator<Eigen::Map<Eigen::Matrix<float,-1,1,0,-1,1>,4,Eigen::Stride<0,0> > >,Eigen::internal::evaluator<Eigen::Matrix<float,600,1,0,600,1> >,Eigen::internal::assign_op<float,float>,0>,3,0>::run
PUBLIC	??1?$evaluator_base@V?$CwiseNullaryOp@U?$scalar_constant_op@M@internal@Eigen@@V?$Matrix@M$0CFI@$00$0A@$0CFI@$00@3@@Eigen@@@internal@Eigen@@QEAA@XZ ; Eigen::internal::evaluator_base<Eigen::CwiseNullaryOp<Eigen::internal::scalar_constant_op<float>,Eigen::Matrix<float,600,1,0,600,1> > >::~evaluator_base<Eigen::CwiseNullaryOp<Eigen::internal::scalar_constant_op<float>,Eigen::Matrix<float,600,1,0,600,1> > >
PUBLIC	??0?$evaluator@V?$CwiseNullaryOp@U?$scalar_constant_op@M@internal@Eigen@@V?$Matrix@M$0CFI@$00$0A@$0CFI@$00@3@@Eigen@@@internal@Eigen@@QEAA@AEBV?$CwiseNullaryOp@U?$scalar_constant_op@M@internal@Eigen@@V?$Matrix@M$0CFI@$00$0A@$0CFI@$00@3@@2@@Z ; Eigen::internal::evaluator<Eigen::CwiseNullaryOp<Eigen::internal::scalar_constant_op<float>,Eigen::Matrix<float,600,1,0,600,1> > >::evaluator<Eigen::CwiseNullaryOp<Eigen::internal::scalar_constant_op<float>,Eigen::Matrix<float,600,1,0,600,1> > >
PUBLIC	??0?$generic_dense_assignment_kernel@U?$evaluator@V?$Matrix@M$0CFI@$00$0A@$0CFI@$00@Eigen@@@internal@Eigen@@U?$evaluator@V?$CwiseNullaryOp@U?$scalar_constant_op@M@internal@Eigen@@V?$Matrix@M$0CFI@$00$0A@$0CFI@$00@3@@Eigen@@@23@U?$assign_op@MM@23@$0A@@internal@Eigen@@QEAA@AEAU?$evaluator@V?$Matrix@M$0CFI@$00$0A@$0CFI@$00@Eigen@@@12@AEBU?$evaluator@V?$CwiseNullaryOp@U?$scalar_constant_op@M@internal@Eigen@@V?$Matrix@M$0CFI@$00$0A@$0CFI@$00@3@@Eigen@@@12@AEBU?$assign_op@MM@12@AEAV?$Matrix@M$0CFI@$00$0A@$0CFI@$00@2@@Z ; Eigen::internal::generic_dense_assignment_kernel<Eigen::internal::evaluator<Eigen::Matrix<float,600,1,0,600,1> >,Eigen::internal::evaluator<Eigen::CwiseNullaryOp<Eigen::internal::scalar_constant_op<float>,Eigen::Matrix<float,600,1,0,600,1> > >,Eigen::internal::assign_op<float,float>,0>::generic_dense_assignment_kernel<Eigen::internal::evaluator<Eigen::Matrix<float,600,1,0,600,1> >,Eigen::internal::evaluator<Eigen::CwiseNullaryOp<Eigen::internal::scalar_constant_op<float>,Eigen::Matrix<float,600,1,0,600,1> > >,Eigen::internal::assign_op<float,float>,0>
PUBLIC	?run@?$dense_assignment_loop@V?$generic_dense_assignment_kernel@U?$evaluator@V?$Matrix@M$0CFI@$00$0A@$0CFI@$00@Eigen@@@internal@Eigen@@U?$evaluator@V?$CwiseNullaryOp@U?$scalar_constant_op@M@internal@Eigen@@V?$Matrix@M$0CFI@$00$0A@$0CFI@$00@3@@Eigen@@@23@U?$assign_op@MM@23@$0A@@internal@Eigen@@$01$0A@@internal@Eigen@@SAXAEAV?$generic_dense_assignment_kernel@U?$evaluator@V?$Matrix@M$0CFI@$00$0A@$0CFI@$00@Eigen@@@internal@Eigen@@U?$evaluator@V?$CwiseNullaryOp@U?$scalar_constant_op@M@internal@Eigen@@V?$Matrix@M$0CFI@$00$0A@$0CFI@$00@3@@Eigen@@@23@U?$assign_op@MM@23@$0A@@23@@Z ; Eigen::internal::dense_assignment_loop<Eigen::internal::generic_dense_assignment_kernel<Eigen::internal::evaluator<Eigen::Matrix<float,600,1,0,600,1> >,Eigen::internal::evaluator<Eigen::CwiseNullaryOp<Eigen::internal::scalar_constant_op<float>,Eigen::Matrix<float,600,1,0,600,1> > >,Eigen::internal::assign_op<float,float>,0>,2,0>::run
PUBLIC	??1?$evaluator@V?$CwiseNullaryOp@U?$scalar_constant_op@M@internal@Eigen@@V?$Matrix@M$0CFI@$00$0A@$0CFI@$00@3@@Eigen@@@internal@Eigen@@QEAA@XZ ; Eigen::internal::evaluator<Eigen::CwiseNullaryOp<Eigen::internal::scalar_constant_op<float>,Eigen::Matrix<float,600,1,0,600,1> > >::~evaluator<Eigen::CwiseNullaryOp<Eigen::internal::scalar_constant_op<float>,Eigen::Matrix<float,600,1,0,600,1> > >
PUBLIC	??$call_dense_assignment_loop@V?$Matrix@M$0CFI@$00$0A@$0CFI@$00@Eigen@@V?$CwiseNullaryOp@U?$scalar_constant_op@M@internal@Eigen@@V?$Matrix@M$0CFI@$00$0A@$0CFI@$00@3@@2@U?$assign_op@MM@internal@2@@internal@Eigen@@YAXAEAV?$Matrix@M$0CFI@$00$0A@$0CFI@$00@1@AEBV?$CwiseNullaryOp@U?$scalar_constant_op@M@internal@Eigen@@V?$Matrix@M$0CFI@$00$0A@$0CFI@$00@3@@1@AEBU?$assign_op@MM@01@@Z ; Eigen::internal::call_dense_assignment_loop<Eigen::Matrix<float,600,1,0,600,1>,Eigen::CwiseNullaryOp<Eigen::internal::scalar_constant_op<float>,Eigen::Matrix<float,600,1,0,600,1> >,Eigen::internal::assign_op<float,float> >
PUBLIC	??$call_dense_assignment_loop@V?$Map@V?$Matrix@M$0?0$00$0A@$0?0$00@Eigen@@$03V?$Stride@$0A@$0A@@2@@Eigen@@V?$Matrix@M$0CFI@$00$0A@$0CFI@$00@2@U?$assign_op@MM@internal@2@@internal@Eigen@@YAXAEAV?$Map@V?$Matrix@M$0?0$00$0A@$0?0$00@Eigen@@$03V?$Stride@$0A@$0A@@2@@1@AEBV?$Matrix@M$0CFI@$00$0A@$0CFI@$00@1@AEBU?$assign_op@MM@01@@Z ; Eigen::internal::call_dense_assignment_loop<Eigen::Map<Eigen::Matrix<float,-1,1,0,-1,1>,4,Eigen::Stride<0,0> >,Eigen::Matrix<float,600,1,0,600,1>,Eigen::internal::assign_op<float,float> >
PUBLIC	??$assignPacketByOuterInner@$0BA@$03T__m128@@@?$generic_dense_assignment_kernel@U?$evaluator@V?$Matrix@M$0CFI@$00$0A@$0CFI@$00@Eigen@@@internal@Eigen@@U?$evaluator@V?$CwiseBinaryOp@U?$scalar_product_op@MM@internal@Eigen@@$$CBV?$CwiseNullaryOp@U?$scalar_constant_op@M@internal@Eigen@@$$CBV?$Matrix@M$0?0$00$0A@$0?0$00@3@@3@$$CBV?$Map@V?$Matrix@M$0?0$00$0A@$0?0$00@Eigen@@$03V?$Stride@$0A@$0A@@2@@3@@Eigen@@@23@U?$add_assign_op@MM@23@$0A@@internal@Eigen@@QEAAX_J0@Z ; Eigen::internal::generic_dense_assignment_kernel<Eigen::internal::evaluator<Eigen::Matrix<float,600,1,0,600,1> >,Eigen::internal::evaluator<Eigen::CwiseBinaryOp<Eigen::internal::scalar_product_op<float,float>,Eigen::CwiseNullaryOp<Eigen::internal::scalar_constant_op<float>,Eigen::Matrix<float,-1,1,0,-1,1> const > const ,Eigen::Map<Eigen::Matrix<float,-1,1,0,-1,1>,4,Eigen::Stride<0,0> > const > >,Eigen::internal::add_assign_op<float,float>,0>::assignPacketByOuterInner<16,4,__m128>
PUBLIC	??$resize_if_allowed@V?$Matrix@M$0CFI@$00$0A@$0CFI@$00@Eigen@@V?$CwiseBinaryOp@U?$scalar_product_op@MM@internal@Eigen@@$$CBV?$CwiseNullaryOp@U?$scalar_constant_op@M@internal@Eigen@@$$CBV?$Matrix@M$0?0$00$0A@$0?0$00@3@@3@$$CBV?$Map@V?$Matrix@M$0?0$00$0A@$0?0$00@Eigen@@$03V?$Stride@$0A@$0A@@2@@3@@2@U?$add_assign_op@MM@internal@2@@internal@Eigen@@YAXAEAV?$Matrix@M$0CFI@$00$0A@$0CFI@$00@1@AEBV?$CwiseBinaryOp@U?$scalar_product_op@MM@internal@Eigen@@$$CBV?$CwiseNullaryOp@U?$scalar_constant_op@M@internal@Eigen@@$$CBV?$Matrix@M$0?0$00$0A@$0?0$00@3@@3@$$CBV?$Map@V?$Matrix@M$0?0$00$0A@$0?0$00@Eigen@@$03V?$Stride@$0A@$0A@@2@@3@@1@AEBU?$add_assign_op@MM@01@@Z ; Eigen::internal::resize_if_allowed<Eigen::Matrix<float,600,1,0,600,1>,Eigen::CwiseBinaryOp<Eigen::internal::scalar_product_op<float,float>,Eigen::CwiseNullaryOp<Eigen::internal::scalar_constant_op<float>,Eigen::Matrix<float,-1,1,0,-1,1> const > const ,Eigen::Map<Eigen::Matrix<float,-1,1,0,-1,1>,4,Eigen::Stride<0,0> > const >,Eigen::internal::add_assign_op<float,float> >
PUBLIC	??$call_assignment_no_alias@V?$Matrix@M$0CFI@$00$0A@$0CFI@$00@Eigen@@V?$Map@V?$Matrix@M$0?0$00$0A@$0?0$00@Eigen@@$03V?$Stride@$0A@$0A@@2@@2@U?$assign_op@MM@internal@2@@internal@Eigen@@YAXAEAV?$Matrix@M$0CFI@$00$0A@$0CFI@$00@1@AEBV?$Map@V?$Matrix@M$0?0$00$0A@$0?0$00@Eigen@@$03V?$Stride@$0A@$0A@@2@@1@AEBU?$assign_op@MM@01@@Z ; Eigen::internal::call_assignment_no_alias<Eigen::Matrix<float,600,1,0,600,1>,Eigen::Map<Eigen::Matrix<float,-1,1,0,-1,1>,4,Eigen::Stride<0,0> >,Eigen::internal::assign_op<float,float> >
PUBLIC	??$call_assignment@V?$Map@V?$Matrix@M$0?0$00$0A@$0?0$00@Eigen@@$03V?$Stride@$0A@$0A@@2@@Eigen@@V?$CwiseNullaryOp@U?$scalar_constant_op@M@internal@Eigen@@V?$Matrix@M$0?0$00$0A@$0?0$00@3@@2@U?$assign_op@MM@internal@2@@internal@Eigen@@YAXAEAV?$Map@V?$Matrix@M$0?0$00$0A@$0?0$00@Eigen@@$03V?$Stride@$0A@$0A@@2@@1@AEBV?$CwiseNullaryOp@U?$scalar_constant_op@M@internal@Eigen@@V?$Matrix@M$0?0$00$0A@$0?0$00@3@@1@AEBU?$assign_op@MM@01@PEAX@Z ; Eigen::internal::call_assignment<Eigen::Map<Eigen::Matrix<float,-1,1,0,-1,1>,4,Eigen::Stride<0,0> >,Eigen::CwiseNullaryOp<Eigen::internal::scalar_constant_op<float>,Eigen::Matrix<float,-1,1,0,-1,1> >,Eigen::internal::assign_op<float,float> >
PUBLIC	?size@?$EigenBase@V?$Map@V?$Matrix@M$0?0$00$0A@$0?0$00@Eigen@@$03V?$Stride@$0A@$0A@@2@@Eigen@@@Eigen@@QEBA_JXZ ; Eigen::EigenBase<Eigen::Map<Eigen::Matrix<float,-1,1,0,-1,1>,4,Eigen::Stride<0,0> > >::size
PUBLIC	?data@?$MapBase@V?$Map@V?$Matrix@M$0?0$00$0A@$0?0$00@Eigen@@$03V?$Stride@$0A@$0A@@2@@Eigen@@$00@Eigen@@QEBAPEBMXZ ; Eigen::MapBase<Eigen::Map<Eigen::Matrix<float,-1,1,0,-1,1>,4,Eigen::Stride<0,0> >,1>::data
PUBLIC	?innerStride@?$Map@V?$Matrix@M$0?0$00$0A@$0?0$00@Eigen@@$03V?$Stride@$0A@$0A@@2@@Eigen@@QEBA_JXZ ; Eigen::Map<Eigen::Matrix<float,-1,1,0,-1,1>,4,Eigen::Stride<0,0> >::innerStride
PUBLIC	?outerStride@?$Map@V?$Matrix@M$0?0$00$0A@$0?0$00@Eigen@@$03V?$Stride@$0A@$0A@@2@@Eigen@@QEBA_JXZ ; Eigen::Map<Eigen::Matrix<float,-1,1,0,-1,1>,4,Eigen::Stride<0,0> >::outerStride
PUBLIC	??0?$evaluator_base@V?$Map@V?$Matrix@M$0?0$00$0A@$0?0$00@Eigen@@$03V?$Stride@$0A@$0A@@2@@Eigen@@@internal@Eigen@@QEAA@XZ ; Eigen::internal::evaluator_base<Eigen::Map<Eigen::Matrix<float,-1,1,0,-1,1>,4,Eigen::Stride<0,0> > >::evaluator_base<Eigen::Map<Eigen::Matrix<float,-1,1,0,-1,1>,4,Eigen::Stride<0,0> > >
PUBLIC	?functor@?$CwiseNullaryOp@U?$scalar_constant_op@M@internal@Eigen@@$$CBV?$Matrix@M$0?0$00$0A@$0?0$00@3@@Eigen@@QEBAAEBU?$scalar_constant_op@M@internal@2@XZ ; Eigen::CwiseNullaryOp<Eigen::internal::scalar_constant_op<float>,Eigen::Matrix<float,-1,1,0,-1,1> const >::functor
PUBLIC	??0?$evaluator_base@V?$CwiseNullaryOp@U?$scalar_constant_op@M@internal@Eigen@@$$CBV?$Matrix@M$0?0$00$0A@$0?0$00@3@@Eigen@@@internal@Eigen@@QEAA@XZ ; Eigen::internal::evaluator_base<Eigen::CwiseNullaryOp<Eigen::internal::scalar_constant_op<float>,Eigen::Matrix<float,-1,1,0,-1,1> const > >::evaluator_base<Eigen::CwiseNullaryOp<Eigen::internal::scalar_constant_op<float>,Eigen::Matrix<float,-1,1,0,-1,1> const > >
PUBLIC	??0?$mapbase_evaluator@V?$Map@V?$Matrix@M$0?0$00$0A@$0?0$00@Eigen@@$03V?$Stride@$0A@$0A@@2@@Eigen@@V?$Matrix@M$0?0$00$0A@$0?0$00@2@@internal@Eigen@@QEAA@AEBV?$Map@V?$Matrix@M$0?0$00$0A@$0?0$00@Eigen@@$03V?$Stride@$0A@$0A@@2@@2@@Z ; Eigen::internal::mapbase_evaluator<Eigen::Map<Eigen::Matrix<float,-1,1,0,-1,1>,4,Eigen::Stride<0,0> >,Eigen::Matrix<float,-1,1,0,-1,1> >::mapbase_evaluator<Eigen::Map<Eigen::Matrix<float,-1,1,0,-1,1>,4,Eigen::Stride<0,0> >,Eigen::Matrix<float,-1,1,0,-1,1> >
PUBLIC	??0?$evaluator@V?$CwiseNullaryOp@U?$scalar_constant_op@M@internal@Eigen@@$$CBV?$Matrix@M$0?0$00$0A@$0?0$00@3@@Eigen@@@internal@Eigen@@QEAA@AEBV?$CwiseNullaryOp@U?$scalar_constant_op@M@internal@Eigen@@$$CBV?$Matrix@M$0?0$00$0A@$0?0$00@3@@2@@Z ; Eigen::internal::evaluator<Eigen::CwiseNullaryOp<Eigen::internal::scalar_constant_op<float>,Eigen::Matrix<float,-1,1,0,-1,1> const > >::evaluator<Eigen::CwiseNullaryOp<Eigen::internal::scalar_constant_op<float>,Eigen::Matrix<float,-1,1,0,-1,1> const > >
PUBLIC	??0?$evaluator@V?$Map@V?$Matrix@M$0?0$00$0A@$0?0$00@Eigen@@$03V?$Stride@$0A@$0A@@2@@Eigen@@@internal@Eigen@@QEAA@AEBV?$Map@V?$Matrix@M$0?0$00$0A@$0?0$00@Eigen@@$03V?$Stride@$0A@$0A@@2@@2@@Z ; Eigen::internal::evaluator<Eigen::Map<Eigen::Matrix<float,-1,1,0,-1,1>,4,Eigen::Stride<0,0> > >::evaluator<Eigen::Map<Eigen::Matrix<float,-1,1,0,-1,1>,4,Eigen::Stride<0,0> > >
PUBLIC	?lhs@?$CwiseBinaryOp@U?$scalar_product_op@MM@internal@Eigen@@$$CBV?$CwiseNullaryOp@U?$scalar_constant_op@M@internal@Eigen@@$$CBV?$Matrix@M$0?0$00$0A@$0?0$00@3@@3@$$CBV?$Map@V?$Matrix@M$0?0$00$0A@$0?0$00@Eigen@@$03V?$Stride@$0A@$0A@@2@@3@@Eigen@@QEBAAEBV?$CwiseNullaryOp@U?$scalar_constant_op@M@internal@Eigen@@$$CBV?$Matrix@M$0?0$00$0A@$0?0$00@3@@2@XZ ; Eigen::CwiseBinaryOp<Eigen::internal::scalar_product_op<float,float>,Eigen::CwiseNullaryOp<Eigen::internal::scalar_constant_op<float>,Eigen::Matrix<float,-1,1,0,-1,1> const > const ,Eigen::Map<Eigen::Matrix<float,-1,1,0,-1,1>,4,Eigen::Stride<0,0> > const >::lhs
PUBLIC	?rhs@?$CwiseBinaryOp@U?$scalar_product_op@MM@internal@Eigen@@$$CBV?$CwiseNullaryOp@U?$scalar_constant_op@M@internal@Eigen@@$$CBV?$Matrix@M$0?0$00$0A@$0?0$00@3@@3@$$CBV?$Map@V?$Matrix@M$0?0$00$0A@$0?0$00@Eigen@@$03V?$Stride@$0A@$0A@@2@@3@@Eigen@@QEBAAEBV?$Map@V?$Matrix@M$0?0$00$0A@$0?0$00@Eigen@@$03V?$Stride@$0A@$0A@@2@@2@XZ ; Eigen::CwiseBinaryOp<Eigen::internal::scalar_product_op<float,float>,Eigen::CwiseNullaryOp<Eigen::internal::scalar_constant_op<float>,Eigen::Matrix<float,-1,1,0,-1,1> const > const ,Eigen::Map<Eigen::Matrix<float,-1,1,0,-1,1>,4,Eigen::Stride<0,0> > const >::rhs
PUBLIC	?functor@?$CwiseBinaryOp@U?$scalar_product_op@MM@internal@Eigen@@$$CBV?$CwiseNullaryOp@U?$scalar_constant_op@M@internal@Eigen@@$$CBV?$Matrix@M$0?0$00$0A@$0?0$00@3@@3@$$CBV?$Map@V?$Matrix@M$0?0$00$0A@$0?0$00@Eigen@@$03V?$Stride@$0A@$0A@@2@@3@@Eigen@@QEBAAEBU?$scalar_product_op@MM@internal@2@XZ ; Eigen::CwiseBinaryOp<Eigen::internal::scalar_product_op<float,float>,Eigen::CwiseNullaryOp<Eigen::internal::scalar_constant_op<float>,Eigen::Matrix<float,-1,1,0,-1,1> const > const ,Eigen::Map<Eigen::Matrix<float,-1,1,0,-1,1>,4,Eigen::Stride<0,0> > const >::functor
PUBLIC	??0?$evaluator@$$CBV?$CwiseNullaryOp@U?$scalar_constant_op@M@internal@Eigen@@$$CBV?$Matrix@M$0?0$00$0A@$0?0$00@3@@Eigen@@@internal@Eigen@@QEAA@AEBV?$CwiseNullaryOp@U?$scalar_constant_op@M@internal@Eigen@@$$CBV?$Matrix@M$0?0$00$0A@$0?0$00@3@@2@@Z ; Eigen::internal::evaluator<Eigen::CwiseNullaryOp<Eigen::internal::scalar_constant_op<float>,Eigen::Matrix<float,-1,1,0,-1,1> const > const >::evaluator<Eigen::CwiseNullaryOp<Eigen::internal::scalar_constant_op<float>,Eigen::Matrix<float,-1,1,0,-1,1> const > const >
PUBLIC	??0?$evaluator@$$CBV?$Map@V?$Matrix@M$0?0$00$0A@$0?0$00@Eigen@@$03V?$Stride@$0A@$0A@@2@@Eigen@@@internal@Eigen@@QEAA@AEBV?$Map@V?$Matrix@M$0?0$00$0A@$0?0$00@Eigen@@$03V?$Stride@$0A@$0A@@2@@2@@Z ; Eigen::internal::evaluator<Eigen::Map<Eigen::Matrix<float,-1,1,0,-1,1>,4,Eigen::Stride<0,0> > const >::evaluator<Eigen::Map<Eigen::Matrix<float,-1,1,0,-1,1>,4,Eigen::Stride<0,0> > const >
PUBLIC	??0?$evaluator_base@V?$CwiseBinaryOp@U?$scalar_product_op@MM@internal@Eigen@@$$CBV?$CwiseNullaryOp@U?$scalar_constant_op@M@internal@Eigen@@$$CBV?$Matrix@M$0?0$00$0A@$0?0$00@3@@3@$$CBV?$Map@V?$Matrix@M$0?0$00$0A@$0?0$00@Eigen@@$03V?$Stride@$0A@$0A@@2@@3@@Eigen@@@internal@Eigen@@QEAA@XZ ; Eigen::internal::evaluator_base<Eigen::CwiseBinaryOp<Eigen::internal::scalar_product_op<float,float>,Eigen::CwiseNullaryOp<Eigen::internal::scalar_constant_op<float>,Eigen::Matrix<float,-1,1,0,-1,1> const > const ,Eigen::Map<Eigen::Matrix<float,-1,1,0,-1,1>,4,Eigen::Stride<0,0> > const > >::evaluator_base<Eigen::CwiseBinaryOp<Eigen::internal::scalar_product_op<float,float>,Eigen::CwiseNullaryOp<Eigen::internal::scalar_constant_op<float>,Eigen::Matrix<float,-1,1,0,-1,1> const > const ,Eigen::Map<Eigen::Matrix<float,-1,1,0,-1,1>,4,Eigen::Stride<0,0> > const > >
PUBLIC	??0Data@?$binary_evaluator@V?$CwiseBinaryOp@U?$scalar_product_op@MM@internal@Eigen@@$$CBV?$CwiseNullaryOp@U?$scalar_constant_op@M@internal@Eigen@@$$CBV?$Matrix@M$0?0$00$0A@$0?0$00@3@@3@$$CBV?$Map@V?$Matrix@M$0?0$00$0A@$0?0$00@Eigen@@$03V?$Stride@$0A@$0A@@2@@3@@Eigen@@UIndexBased@internal@2@U342@MM@internal@Eigen@@QEAA@AEBV?$CwiseBinaryOp@U?$scalar_product_op@MM@internal@Eigen@@$$CBV?$CwiseNullaryOp@U?$scalar_constant_op@M@internal@Eigen@@$$CBV?$Matrix@M$0?0$00$0A@$0?0$00@3@@3@$$CBV?$Map@V?$Matrix@M$0?0$00$0A@$0?0$00@Eigen@@$03V?$Stride@$0A@$0A@@2@@3@@3@@Z ; Eigen::internal::binary_evaluator<Eigen::CwiseBinaryOp<Eigen::internal::scalar_product_op<float,float>,Eigen::CwiseNullaryOp<Eigen::internal::scalar_constant_op<float>,Eigen::Matrix<float,-1,1,0,-1,1> const > const ,Eigen::Map<Eigen::Matrix<float,-1,1,0,-1,1>,4,Eigen::Stride<0,0> > const >,Eigen::internal::IndexBased,Eigen::internal::IndexBased,float,float>::Data::Data
PUBLIC	??0?$DenseBase@V?$CwiseNullaryOp@U?$scalar_constant_op@M@internal@Eigen@@V?$Matrix@M$0?0$00$0A@$0?0$00@3@@Eigen@@@Eigen@@IEAA@XZ ; Eigen::DenseBase<Eigen::CwiseNullaryOp<Eigen::internal::scalar_constant_op<float>,Eigen::Matrix<float,-1,1,0,-1,1> > >::DenseBase<Eigen::CwiseNullaryOp<Eigen::internal::scalar_constant_op<float>,Eigen::Matrix<float,-1,1,0,-1,1> > >
PUBLIC	??0?$binary_evaluator@V?$CwiseBinaryOp@U?$scalar_product_op@MM@internal@Eigen@@$$CBV?$CwiseNullaryOp@U?$scalar_constant_op@M@internal@Eigen@@$$CBV?$Matrix@M$0?0$00$0A@$0?0$00@3@@3@$$CBV?$Map@V?$Matrix@M$0?0$00$0A@$0?0$00@Eigen@@$03V?$Stride@$0A@$0A@@2@@3@@Eigen@@UIndexBased@internal@2@U342@MM@internal@Eigen@@QEAA@AEBV?$CwiseBinaryOp@U?$scalar_product_op@MM@internal@Eigen@@$$CBV?$CwiseNullaryOp@U?$scalar_constant_op@M@internal@Eigen@@$$CBV?$Matrix@M$0?0$00$0A@$0?0$00@3@@3@$$CBV?$Map@V?$Matrix@M$0?0$00$0A@$0?0$00@Eigen@@$03V?$Stride@$0A@$0A@@2@@3@@2@@Z ; Eigen::internal::binary_evaluator<Eigen::CwiseBinaryOp<Eigen::internal::scalar_product_op<float,float>,Eigen::CwiseNullaryOp<Eigen::internal::scalar_constant_op<float>,Eigen::Matrix<float,-1,1,0,-1,1> const > const ,Eigen::Map<Eigen::Matrix<float,-1,1,0,-1,1>,4,Eigen::Stride<0,0> > const >,Eigen::internal::IndexBased,Eigen::internal::IndexBased,float,float>::binary_evaluator<Eigen::CwiseBinaryOp<Eigen::internal::scalar_product_op<float,float>,Eigen::CwiseNullaryOp<Eigen::internal::scalar_constant_op<float>,Eigen::Matrix<float,-1,1,0,-1,1> const > const ,Eigen::Map<Eigen::Matrix<float,-1,1,0,-1,1>,4,Eigen::Stride<0,0> > const >,Eigen::internal::IndexBased,Eigen::internal::IndexBased,float,float>
PUBLIC	?innerSize@?$generic_dense_assignment_kernel@U?$evaluator@V?$Matrix@M$0CFI@$00$0A@$0CFI@$00@Eigen@@@internal@Eigen@@U?$evaluator@V?$CwiseBinaryOp@U?$scalar_product_op@MM@internal@Eigen@@$$CBV?$CwiseNullaryOp@U?$scalar_constant_op@M@internal@Eigen@@$$CBV?$Matrix@M$0?0$00$0A@$0?0$00@3@@3@$$CBV?$Map@V?$Matrix@M$0?0$00$0A@$0?0$00@Eigen@@$03V?$Stride@$0A@$0A@@2@@3@@Eigen@@@23@U?$add_assign_op@MM@23@$0A@@internal@Eigen@@QEBA_JXZ ; Eigen::internal::generic_dense_assignment_kernel<Eigen::internal::evaluator<Eigen::Matrix<float,600,1,0,600,1> >,Eigen::internal::evaluator<Eigen::CwiseBinaryOp<Eigen::internal::scalar_product_op<float,float>,Eigen::CwiseNullaryOp<Eigen::internal::scalar_constant_op<float>,Eigen::Matrix<float,-1,1,0,-1,1> const > const ,Eigen::Map<Eigen::Matrix<float,-1,1,0,-1,1>,4,Eigen::Stride<0,0> > const > >,Eigen::internal::add_assign_op<float,float>,0>::innerSize
PUBLIC	?outerSize@?$generic_dense_assignment_kernel@U?$evaluator@V?$Matrix@M$0CFI@$00$0A@$0CFI@$00@Eigen@@@internal@Eigen@@U?$evaluator@V?$CwiseBinaryOp@U?$scalar_product_op@MM@internal@Eigen@@$$CBV?$CwiseNullaryOp@U?$scalar_constant_op@M@internal@Eigen@@$$CBV?$Matrix@M$0?0$00$0A@$0?0$00@3@@3@$$CBV?$Map@V?$Matrix@M$0?0$00$0A@$0?0$00@Eigen@@$03V?$Stride@$0A@$0A@@2@@3@@Eigen@@@23@U?$add_assign_op@MM@23@$0A@@internal@Eigen@@QEBA_JXZ ; Eigen::internal::generic_dense_assignment_kernel<Eigen::internal::evaluator<Eigen::Matrix<float,600,1,0,600,1> >,Eigen::internal::evaluator<Eigen::CwiseBinaryOp<Eigen::internal::scalar_product_op<float,float>,Eigen::CwiseNullaryOp<Eigen::internal::scalar_constant_op<float>,Eigen::Matrix<float,-1,1,0,-1,1> const > const ,Eigen::Map<Eigen::Matrix<float,-1,1,0,-1,1>,4,Eigen::Stride<0,0> > const > >,Eigen::internal::add_assign_op<float,float>,0>::outerSize
PUBLIC	??0?$MatrixBase@V?$CwiseNullaryOp@U?$scalar_constant_op@M@internal@Eigen@@V?$Matrix@M$0?0$00$0A@$0?0$00@3@@Eigen@@@Eigen@@IEAA@XZ ; Eigen::MatrixBase<Eigen::CwiseNullaryOp<Eigen::internal::scalar_constant_op<float>,Eigen::Matrix<float,-1,1,0,-1,1> > >::MatrixBase<Eigen::CwiseNullaryOp<Eigen::internal::scalar_constant_op<float>,Eigen::Matrix<float,-1,1,0,-1,1> > >
PUBLIC	??0?$CwiseNullaryOp@U?$scalar_constant_op@M@internal@Eigen@@V?$Matrix@M$0?0$00$0A@$0?0$00@3@@Eigen@@QEAA@_J0AEBU?$scalar_constant_op@M@internal@1@@Z ; Eigen::CwiseNullaryOp<Eigen::internal::scalar_constant_op<float>,Eigen::Matrix<float,-1,1,0,-1,1> >::CwiseNullaryOp<Eigen::internal::scalar_constant_op<float>,Eigen::Matrix<float,-1,1,0,-1,1> >
PUBLIC	?run@?$Assignment@V?$Matrix@M$0CFI@$00$0A@$0CFI@$00@Eigen@@V?$CwiseNullaryOp@U?$scalar_constant_op@M@internal@Eigen@@V?$Matrix@M$0CFI@$00$0A@$0CFI@$00@3@@2@U?$assign_op@MM@internal@2@UDense2Dense@52@X@internal@Eigen@@SAXAEAV?$Matrix@M$0CFI@$00$0A@$0CFI@$00@3@AEBV?$CwiseNullaryOp@U?$scalar_constant_op@M@internal@Eigen@@V?$Matrix@M$0CFI@$00$0A@$0CFI@$00@3@@3@AEBU?$assign_op@MM@23@@Z ; Eigen::internal::Assignment<Eigen::Matrix<float,600,1,0,600,1>,Eigen::CwiseNullaryOp<Eigen::internal::scalar_constant_op<float>,Eigen::Matrix<float,600,1,0,600,1> >,Eigen::internal::assign_op<float,float>,Eigen::internal::Dense2Dense,void>::run
PUBLIC	?run@?$Assignment@V?$Map@V?$Matrix@M$0?0$00$0A@$0?0$00@Eigen@@$03V?$Stride@$0A@$0A@@2@@Eigen@@V?$Matrix@M$0CFI@$00$0A@$0CFI@$00@2@U?$assign_op@MM@internal@2@UDense2Dense@52@X@internal@Eigen@@SAXAEAV?$Map@V?$Matrix@M$0?0$00$0A@$0?0$00@Eigen@@$03V?$Stride@$0A@$0A@@2@@3@AEBV?$Matrix@M$0CFI@$00$0A@$0CFI@$00@3@AEBU?$assign_op@MM@23@@Z ; Eigen::internal::Assignment<Eigen::Map<Eigen::Matrix<float,-1,1,0,-1,1>,4,Eigen::Stride<0,0> >,Eigen::Matrix<float,600,1,0,600,1>,Eigen::internal::assign_op<float,float>,Eigen::internal::Dense2Dense,void>::run
PUBLIC	??1?$evaluator_base@V?$CwiseBinaryOp@U?$scalar_product_op@MM@internal@Eigen@@$$CBV?$CwiseNullaryOp@U?$scalar_constant_op@M@internal@Eigen@@$$CBV?$Matrix@M$0?0$00$0A@$0?0$00@3@@3@$$CBV?$Map@V?$Matrix@M$0?0$00$0A@$0?0$00@Eigen@@$03V?$Stride@$0A@$0A@@2@@3@@Eigen@@@internal@Eigen@@QEAA@XZ ; Eigen::internal::evaluator_base<Eigen::CwiseBinaryOp<Eigen::internal::scalar_product_op<float,float>,Eigen::CwiseNullaryOp<Eigen::internal::scalar_constant_op<float>,Eigen::Matrix<float,-1,1,0,-1,1> const > const ,Eigen::Map<Eigen::Matrix<float,-1,1,0,-1,1>,4,Eigen::Stride<0,0> > const > >::~evaluator_base<Eigen::CwiseBinaryOp<Eigen::internal::scalar_product_op<float,float>,Eigen::CwiseNullaryOp<Eigen::internal::scalar_constant_op<float>,Eigen::Matrix<float,-1,1,0,-1,1> const > const ,Eigen::Map<Eigen::Matrix<float,-1,1,0,-1,1>,4,Eigen::Stride<0,0> > const > >
PUBLIC	??1?$evaluator_base@V?$CwiseNullaryOp@U?$scalar_constant_op@M@internal@Eigen@@$$CBV?$Matrix@M$0?0$00$0A@$0?0$00@3@@Eigen@@@internal@Eigen@@QEAA@XZ ; Eigen::internal::evaluator_base<Eigen::CwiseNullaryOp<Eigen::internal::scalar_constant_op<float>,Eigen::Matrix<float,-1,1,0,-1,1> const > >::~evaluator_base<Eigen::CwiseNullaryOp<Eigen::internal::scalar_constant_op<float>,Eigen::Matrix<float,-1,1,0,-1,1> const > >
PUBLIC	??1?$evaluator_base@V?$Map@V?$Matrix@M$0?0$00$0A@$0?0$00@Eigen@@$03V?$Stride@$0A@$0A@@2@@Eigen@@@internal@Eigen@@QEAA@XZ ; Eigen::internal::evaluator_base<Eigen::Map<Eigen::Matrix<float,-1,1,0,-1,1>,4,Eigen::Stride<0,0> > >::~evaluator_base<Eigen::Map<Eigen::Matrix<float,-1,1,0,-1,1>,4,Eigen::Stride<0,0> > >
PUBLIC	??0?$evaluator@V?$CwiseBinaryOp@U?$scalar_product_op@MM@internal@Eigen@@$$CBV?$CwiseNullaryOp@U?$scalar_constant_op@M@internal@Eigen@@$$CBV?$Matrix@M$0?0$00$0A@$0?0$00@3@@3@$$CBV?$Map@V?$Matrix@M$0?0$00$0A@$0?0$00@Eigen@@$03V?$Stride@$0A@$0A@@2@@3@@Eigen@@@internal@Eigen@@QEAA@AEBV?$CwiseBinaryOp@U?$scalar_product_op@MM@internal@Eigen@@$$CBV?$CwiseNullaryOp@U?$scalar_constant_op@M@internal@Eigen@@$$CBV?$Matrix@M$0?0$00$0A@$0?0$00@3@@3@$$CBV?$Map@V?$Matrix@M$0?0$00$0A@$0?0$00@Eigen@@$03V?$Stride@$0A@$0A@@2@@3@@2@@Z ; Eigen::internal::evaluator<Eigen::CwiseBinaryOp<Eigen::internal::scalar_product_op<float,float>,Eigen::CwiseNullaryOp<Eigen::internal::scalar_constant_op<float>,Eigen::Matrix<float,-1,1,0,-1,1> const > const ,Eigen::Map<Eigen::Matrix<float,-1,1,0,-1,1>,4,Eigen::Stride<0,0> > const > >::evaluator<Eigen::CwiseBinaryOp<Eigen::internal::scalar_product_op<float,float>,Eigen::CwiseNullaryOp<Eigen::internal::scalar_constant_op<float>,Eigen::Matrix<float,-1,1,0,-1,1> const > const ,Eigen::Map<Eigen::Matrix<float,-1,1,0,-1,1>,4,Eigen::Stride<0,0> > const > >
PUBLIC	??0?$generic_dense_assignment_kernel@U?$evaluator@V?$Matrix@M$0CFI@$00$0A@$0CFI@$00@Eigen@@@internal@Eigen@@U?$evaluator@V?$CwiseBinaryOp@U?$scalar_product_op@MM@internal@Eigen@@$$CBV?$CwiseNullaryOp@U?$scalar_constant_op@M@internal@Eigen@@$$CBV?$Matrix@M$0?0$00$0A@$0?0$00@3@@3@$$CBV?$Map@V?$Matrix@M$0?0$00$0A@$0?0$00@Eigen@@$03V?$Stride@$0A@$0A@@2@@3@@Eigen@@@23@U?$add_assign_op@MM@23@$0A@@internal@Eigen@@QEAA@AEAU?$evaluator@V?$Matrix@M$0CFI@$00$0A@$0CFI@$00@Eigen@@@12@AEBU?$evaluator@V?$CwiseBinaryOp@U?$scalar_product_op@MM@internal@Eigen@@$$CBV?$CwiseNullaryOp@U?$scalar_constant_op@M@internal@Eigen@@$$CBV?$Matrix@M$0?0$00$0A@$0?0$00@3@@3@$$CBV?$Map@V?$Matrix@M$0?0$00$0A@$0?0$00@Eigen@@$03V?$Stride@$0A@$0A@@2@@3@@Eigen@@@12@AEBU?$add_assign_op@MM@12@AEAV?$Matrix@M$0CFI@$00$0A@$0CFI@$00@2@@Z ; Eigen::internal::generic_dense_assignment_kernel<Eigen::internal::evaluator<Eigen::Matrix<float,600,1,0,600,1> >,Eigen::internal::evaluator<Eigen::CwiseBinaryOp<Eigen::internal::scalar_product_op<float,float>,Eigen::CwiseNullaryOp<Eigen::internal::scalar_constant_op<float>,Eigen::Matrix<float,-1,1,0,-1,1> const > const ,Eigen::Map<Eigen::Matrix<float,-1,1,0,-1,1>,4,Eigen::Stride<0,0> > const > >,Eigen::internal::add_assign_op<float,float>,0>::generic_dense_assignment_kernel<Eigen::internal::evaluator<Eigen::Matrix<float,600,1,0,600,1> >,Eigen::internal::evaluator<Eigen::CwiseBinaryOp<Eigen::internal::scalar_product_op<float,float>,Eigen::CwiseNullaryOp<Eigen::internal::scalar_constant_op<float>,Eigen::Matrix<float,-1,1,0,-1,1> const > const ,Eigen::Map<Eigen::Matrix<float,-1,1,0,-1,1>,4,Eigen::Stride<0,0> > const > >,Eigen::internal::add_assign_op<float,float>,0>
PUBLIC	?run@?$dense_assignment_loop@V?$generic_dense_assignment_kernel@U?$evaluator@V?$Matrix@M$0CFI@$00$0A@$0CFI@$00@Eigen@@@internal@Eigen@@U?$evaluator@V?$CwiseBinaryOp@U?$scalar_product_op@MM@internal@Eigen@@$$CBV?$CwiseNullaryOp@U?$scalar_constant_op@M@internal@Eigen@@$$CBV?$Matrix@M$0?0$00$0A@$0?0$00@3@@3@$$CBV?$Map@V?$Matrix@M$0?0$00$0A@$0?0$00@Eigen@@$03V?$Stride@$0A@$0A@@2@@3@@Eigen@@@23@U?$add_assign_op@MM@23@$0A@@internal@Eigen@@$01$0A@@internal@Eigen@@SAXAEAV?$generic_dense_assignment_kernel@U?$evaluator@V?$Matrix@M$0CFI@$00$0A@$0CFI@$00@Eigen@@@internal@Eigen@@U?$evaluator@V?$CwiseBinaryOp@U?$scalar_product_op@MM@internal@Eigen@@$$CBV?$CwiseNullaryOp@U?$scalar_constant_op@M@internal@Eigen@@$$CBV?$Matrix@M$0?0$00$0A@$0?0$00@3@@3@$$CBV?$Map@V?$Matrix@M$0?0$00$0A@$0?0$00@Eigen@@$03V?$Stride@$0A@$0A@@2@@3@@Eigen@@@23@U?$add_assign_op@MM@23@$0A@@23@@Z ; Eigen::internal::dense_assignment_loop<Eigen::internal::generic_dense_assignment_kernel<Eigen::internal::evaluator<Eigen::Matrix<float,600,1,0,600,1> >,Eigen::internal::evaluator<Eigen::CwiseBinaryOp<Eigen::internal::scalar_product_op<float,float>,Eigen::CwiseNullaryOp<Eigen::internal::scalar_constant_op<float>,Eigen::Matrix<float,-1,1,0,-1,1> const > const ,Eigen::Map<Eigen::Matrix<float,-1,1,0,-1,1>,4,Eigen::Stride<0,0> > const > >,Eigen::internal::add_assign_op<float,float>,0>,2,0>::run
PUBLIC	??1?$mapbase_evaluator@V?$Map@V?$Matrix@M$0?0$00$0A@$0?0$00@Eigen@@$03V?$Stride@$0A@$0A@@2@@Eigen@@V?$Matrix@M$0?0$00$0A@$0?0$00@2@@internal@Eigen@@QEAA@XZ ; Eigen::internal::mapbase_evaluator<Eigen::Map<Eigen::Matrix<float,-1,1,0,-1,1>,4,Eigen::Stride<0,0> >,Eigen::Matrix<float,-1,1,0,-1,1> >::~mapbase_evaluator<Eigen::Map<Eigen::Matrix<float,-1,1,0,-1,1>,4,Eigen::Stride<0,0> >,Eigen::Matrix<float,-1,1,0,-1,1> >
PUBLIC	??1?$evaluator@V?$Map@V?$Matrix@M$0?0$00$0A@$0?0$00@Eigen@@$03V?$Stride@$0A@$0A@@2@@Eigen@@@internal@Eigen@@QEAA@XZ ; Eigen::internal::evaluator<Eigen::Map<Eigen::Matrix<float,-1,1,0,-1,1>,4,Eigen::Stride<0,0> > >::~evaluator<Eigen::Map<Eigen::Matrix<float,-1,1,0,-1,1>,4,Eigen::Stride<0,0> > >
PUBLIC	??1?$evaluator@V?$CwiseNullaryOp@U?$scalar_constant_op@M@internal@Eigen@@$$CBV?$Matrix@M$0?0$00$0A@$0?0$00@3@@Eigen@@@internal@Eigen@@QEAA@XZ ; Eigen::internal::evaluator<Eigen::CwiseNullaryOp<Eigen::internal::scalar_constant_op<float>,Eigen::Matrix<float,-1,1,0,-1,1> const > >::~evaluator<Eigen::CwiseNullaryOp<Eigen::internal::scalar_constant_op<float>,Eigen::Matrix<float,-1,1,0,-1,1> const > >
PUBLIC	??1?$evaluator@$$CBV?$Map@V?$Matrix@M$0?0$00$0A@$0?0$00@Eigen@@$03V?$Stride@$0A@$0A@@2@@Eigen@@@internal@Eigen@@QEAA@XZ ; Eigen::internal::evaluator<Eigen::Map<Eigen::Matrix<float,-1,1,0,-1,1>,4,Eigen::Stride<0,0> > const >::~evaluator<Eigen::Map<Eigen::Matrix<float,-1,1,0,-1,1>,4,Eigen::Stride<0,0> > const >
PUBLIC	??1?$evaluator@$$CBV?$CwiseNullaryOp@U?$scalar_constant_op@M@internal@Eigen@@$$CBV?$Matrix@M$0?0$00$0A@$0?0$00@3@@Eigen@@@internal@Eigen@@QEAA@XZ ; Eigen::internal::evaluator<Eigen::CwiseNullaryOp<Eigen::internal::scalar_constant_op<float>,Eigen::Matrix<float,-1,1,0,-1,1> const > const >::~evaluator<Eigen::CwiseNullaryOp<Eigen::internal::scalar_constant_op<float>,Eigen::Matrix<float,-1,1,0,-1,1> const > const >
PUBLIC	??1Data@?$binary_evaluator@V?$CwiseBinaryOp@U?$scalar_product_op@MM@internal@Eigen@@$$CBV?$CwiseNullaryOp@U?$scalar_constant_op@M@internal@Eigen@@$$CBV?$Matrix@M$0?0$00$0A@$0?0$00@3@@3@$$CBV?$Map@V?$Matrix@M$0?0$00$0A@$0?0$00@Eigen@@$03V?$Stride@$0A@$0A@@2@@3@@Eigen@@UIndexBased@internal@2@U342@MM@internal@Eigen@@QEAA@XZ ; Eigen::internal::binary_evaluator<Eigen::CwiseBinaryOp<Eigen::internal::scalar_product_op<float,float>,Eigen::CwiseNullaryOp<Eigen::internal::scalar_constant_op<float>,Eigen::Matrix<float,-1,1,0,-1,1> const > const ,Eigen::Map<Eigen::Matrix<float,-1,1,0,-1,1>,4,Eigen::Stride<0,0> > const >,Eigen::internal::IndexBased,Eigen::internal::IndexBased,float,float>::Data::~Data
PUBLIC	??1?$binary_evaluator@V?$CwiseBinaryOp@U?$scalar_product_op@MM@internal@Eigen@@$$CBV?$CwiseNullaryOp@U?$scalar_constant_op@M@internal@Eigen@@$$CBV?$Matrix@M$0?0$00$0A@$0?0$00@3@@3@$$CBV?$Map@V?$Matrix@M$0?0$00$0A@$0?0$00@Eigen@@$03V?$Stride@$0A@$0A@@2@@3@@Eigen@@UIndexBased@internal@2@U342@MM@internal@Eigen@@QEAA@XZ ; Eigen::internal::binary_evaluator<Eigen::CwiseBinaryOp<Eigen::internal::scalar_product_op<float,float>,Eigen::CwiseNullaryOp<Eigen::internal::scalar_constant_op<float>,Eigen::Matrix<float,-1,1,0,-1,1> const > const ,Eigen::Map<Eigen::Matrix<float,-1,1,0,-1,1>,4,Eigen::Stride<0,0> > const >,Eigen::internal::IndexBased,Eigen::internal::IndexBased,float,float>::~binary_evaluator<Eigen::CwiseBinaryOp<Eigen::internal::scalar_product_op<float,float>,Eigen::CwiseNullaryOp<Eigen::internal::scalar_constant_op<float>,Eigen::Matrix<float,-1,1,0,-1,1> const > const ,Eigen::Map<Eigen::Matrix<float,-1,1,0,-1,1>,4,Eigen::Stride<0,0> > const >,Eigen::internal::IndexBased,Eigen::internal::IndexBased,float,float>
PUBLIC	??1?$evaluator@V?$CwiseBinaryOp@U?$scalar_product_op@MM@internal@Eigen@@$$CBV?$CwiseNullaryOp@U?$scalar_constant_op@M@internal@Eigen@@$$CBV?$Matrix@M$0?0$00$0A@$0?0$00@3@@3@$$CBV?$Map@V?$Matrix@M$0?0$00$0A@$0?0$00@Eigen@@$03V?$Stride@$0A@$0A@@2@@3@@Eigen@@@internal@Eigen@@QEAA@XZ ; Eigen::internal::evaluator<Eigen::CwiseBinaryOp<Eigen::internal::scalar_product_op<float,float>,Eigen::CwiseNullaryOp<Eigen::internal::scalar_constant_op<float>,Eigen::Matrix<float,-1,1,0,-1,1> const > const ,Eigen::Map<Eigen::Matrix<float,-1,1,0,-1,1>,4,Eigen::Stride<0,0> > const > >::~evaluator<Eigen::CwiseBinaryOp<Eigen::internal::scalar_product_op<float,float>,Eigen::CwiseNullaryOp<Eigen::internal::scalar_constant_op<float>,Eigen::Matrix<float,-1,1,0,-1,1> const > const ,Eigen::Map<Eigen::Matrix<float,-1,1,0,-1,1>,4,Eigen::Stride<0,0> > const > >
PUBLIC	??$call_dense_assignment_loop@V?$Matrix@M$0CFI@$00$0A@$0CFI@$00@Eigen@@V?$CwiseBinaryOp@U?$scalar_product_op@MM@internal@Eigen@@$$CBV?$CwiseNullaryOp@U?$scalar_constant_op@M@internal@Eigen@@$$CBV?$Matrix@M$0?0$00$0A@$0?0$00@3@@3@$$CBV?$Map@V?$Matrix@M$0?0$00$0A@$0?0$00@Eigen@@$03V?$Stride@$0A@$0A@@2@@3@@2@U?$add_assign_op@MM@internal@2@@internal@Eigen@@YAXAEAV?$Matrix@M$0CFI@$00$0A@$0CFI@$00@1@AEBV?$CwiseBinaryOp@U?$scalar_product_op@MM@internal@Eigen@@$$CBV?$CwiseNullaryOp@U?$scalar_constant_op@M@internal@Eigen@@$$CBV?$Matrix@M$0?0$00$0A@$0?0$00@3@@3@$$CBV?$Map@V?$Matrix@M$0?0$00$0A@$0?0$00@Eigen@@$03V?$Stride@$0A@$0A@@2@@3@@1@AEBU?$add_assign_op@MM@01@@Z ; Eigen::internal::call_dense_assignment_loop<Eigen::Matrix<float,600,1,0,600,1>,Eigen::CwiseBinaryOp<Eigen::internal::scalar_product_op<float,float>,Eigen::CwiseNullaryOp<Eigen::internal::scalar_constant_op<float>,Eigen::Matrix<float,-1,1,0,-1,1> const > const ,Eigen::Map<Eigen::Matrix<float,-1,1,0,-1,1>,4,Eigen::Stride<0,0> > const >,Eigen::internal::add_assign_op<float,float> >
PUBLIC	??$call_assignment@V?$Matrix@M$0CFI@$00$0A@$0CFI@$00@Eigen@@V?$Map@V?$Matrix@M$0?0$00$0A@$0?0$00@Eigen@@$03V?$Stride@$0A@$0A@@2@@2@U?$assign_op@MM@internal@2@@internal@Eigen@@YAXAEAV?$Matrix@M$0CFI@$00$0A@$0CFI@$00@1@AEBV?$Map@V?$Matrix@M$0?0$00$0A@$0?0$00@Eigen@@$03V?$Stride@$0A@$0A@@2@@1@AEBU?$assign_op@MM@01@PEAX@Z ; Eigen::internal::call_assignment<Eigen::Matrix<float,600,1,0,600,1>,Eigen::Map<Eigen::Matrix<float,-1,1,0,-1,1>,4,Eigen::Stride<0,0> >,Eigen::internal::assign_op<float,float> >
PUBLIC	??$call_assignment_no_alias@V?$Map@V?$Matrix@M$0?0$00$0A@$0?0$00@Eigen@@$03V?$Stride@$0A@$0A@@2@@Eigen@@V?$Matrix@M$0CFI@$00$0A@$0CFI@$00@2@U?$assign_op@MM@internal@2@@internal@Eigen@@YAXAEAV?$Map@V?$Matrix@M$0?0$00$0A@$0?0$00@Eigen@@$03V?$Stride@$0A@$0A@@2@@1@AEBV?$Matrix@M$0CFI@$00$0A@$0CFI@$00@1@AEBU?$assign_op@MM@01@@Z ; Eigen::internal::call_assignment_no_alias<Eigen::Map<Eigen::Matrix<float,-1,1,0,-1,1>,4,Eigen::Stride<0,0> >,Eigen::Matrix<float,600,1,0,600,1>,Eigen::internal::assign_op<float,float> >
PUBLIC	??$call_assignment_no_alias@V?$Matrix@M$0CFI@$00$0A@$0CFI@$00@Eigen@@V?$CwiseNullaryOp@U?$scalar_constant_op@M@internal@Eigen@@V?$Matrix@M$0CFI@$00$0A@$0CFI@$00@3@@2@U?$assign_op@MM@internal@2@@internal@Eigen@@YAXAEAV?$Matrix@M$0CFI@$00$0A@$0CFI@$00@1@AEBV?$CwiseNullaryOp@U?$scalar_constant_op@M@internal@Eigen@@V?$Matrix@M$0CFI@$00$0A@$0CFI@$00@3@@1@AEBU?$assign_op@MM@01@@Z ; Eigen::internal::call_assignment_no_alias<Eigen::Matrix<float,600,1,0,600,1>,Eigen::CwiseNullaryOp<Eigen::internal::scalar_constant_op<float>,Eigen::Matrix<float,600,1,0,600,1> >,Eigen::internal::assign_op<float,float> >
PUBLIC	??$call_assignment@V?$Map@V?$Matrix@M$0?0$00$0A@$0?0$00@Eigen@@$03V?$Stride@$0A@$0A@@2@@Eigen@@V?$CwiseNullaryOp@U?$scalar_constant_op@M@internal@Eigen@@V?$Matrix@M$0?0$00$0A@$0?0$00@3@@2@@internal@Eigen@@YAXAEAV?$Map@V?$Matrix@M$0?0$00$0A@$0?0$00@Eigen@@$03V?$Stride@$0A@$0A@@2@@1@AEBV?$CwiseNullaryOp@U?$scalar_constant_op@M@internal@Eigen@@V?$Matrix@M$0?0$00$0A@$0?0$00@3@@1@@Z ; Eigen::internal::call_assignment<Eigen::Map<Eigen::Matrix<float,-1,1,0,-1,1>,4,Eigen::Stride<0,0> >,Eigen::CwiseNullaryOp<Eigen::internal::scalar_constant_op<float>,Eigen::Matrix<float,-1,1,0,-1,1> > >
PUBLIC	??$NullaryExpr@U?$scalar_constant_op@M@internal@Eigen@@@?$DenseBase@V?$Map@V?$Matrix@M$0?0$00$0A@$0?0$00@Eigen@@$03V?$Stride@$0A@$0A@@2@@Eigen@@@Eigen@@SA?BV?$CwiseNullaryOp@U?$scalar_constant_op@M@internal@Eigen@@V?$Matrix@M$0?0$00$0A@$0?0$00@3@@1@_J0AEBU?$scalar_constant_op@M@internal@1@@Z ; Eigen::DenseBase<Eigen::Map<Eigen::Matrix<float,-1,1,0,-1,1>,4,Eigen::Stride<0,0> > >::NullaryExpr<Eigen::internal::scalar_constant_op<float> >
PUBLIC	?derived@?$EigenBase@V?$CwiseNullaryOp@U?$scalar_constant_op@M@internal@Eigen@@V?$Matrix@M$0?0$00$0A@$0?0$00@3@@Eigen@@@Eigen@@QEBAAEBV?$CwiseNullaryOp@U?$scalar_constant_op@M@internal@Eigen@@V?$Matrix@M$0?0$00$0A@$0?0$00@3@@2@XZ ; Eigen::EigenBase<Eigen::CwiseNullaryOp<Eigen::internal::scalar_constant_op<float>,Eigen::Matrix<float,-1,1,0,-1,1> > >::derived
PUBLIC	?run@?$Assignment@V?$Matrix@M$0CFI@$00$0A@$0CFI@$00@Eigen@@V?$CwiseBinaryOp@U?$scalar_product_op@MM@internal@Eigen@@$$CBV?$CwiseNullaryOp@U?$scalar_constant_op@M@internal@Eigen@@$$CBV?$Matrix@M$0?0$00$0A@$0?0$00@3@@3@$$CBV?$Map@V?$Matrix@M$0?0$00$0A@$0?0$00@Eigen@@$03V?$Stride@$0A@$0A@@2@@3@@2@U?$add_assign_op@MM@internal@2@UDense2Dense@52@X@internal@Eigen@@SAXAEAV?$Matrix@M$0CFI@$00$0A@$0CFI@$00@3@AEBV?$CwiseBinaryOp@U?$scalar_product_op@MM@internal@Eigen@@$$CBV?$CwiseNullaryOp@U?$scalar_constant_op@M@internal@Eigen@@$$CBV?$Matrix@M$0?0$00$0A@$0?0$00@3@@3@$$CBV?$Map@V?$Matrix@M$0?0$00$0A@$0?0$00@Eigen@@$03V?$Stride@$0A@$0A@@2@@3@@3@AEBU?$add_assign_op@MM@23@@Z ; Eigen::internal::Assignment<Eigen::Matrix<float,600,1,0,600,1>,Eigen::CwiseBinaryOp<Eigen::internal::scalar_product_op<float,float>,Eigen::CwiseNullaryOp<Eigen::internal::scalar_constant_op<float>,Eigen::Matrix<float,-1,1,0,-1,1> const > const ,Eigen::Map<Eigen::Matrix<float,-1,1,0,-1,1>,4,Eigen::Stride<0,0> > const >,Eigen::internal::add_assign_op<float,float>,Eigen::internal::Dense2Dense,void>::run
PUBLIC	??$call_assignment@V?$Matrix@M$0CFI@$00$0A@$0CFI@$00@Eigen@@V?$Map@V?$Matrix@M$0?0$00$0A@$0?0$00@Eigen@@$03V?$Stride@$0A@$0A@@2@@2@@internal@Eigen@@YAXAEAV?$Matrix@M$0CFI@$00$0A@$0CFI@$00@1@AEBV?$Map@V?$Matrix@M$0?0$00$0A@$0?0$00@Eigen@@$03V?$Stride@$0A@$0A@@2@@1@@Z ; Eigen::internal::call_assignment<Eigen::Matrix<float,600,1,0,600,1>,Eigen::Map<Eigen::Matrix<float,-1,1,0,-1,1>,4,Eigen::Stride<0,0> > >
PUBLIC	??$call_assignment_no_alias@V?$Matrix@M$0CFI@$00$0A@$0CFI@$00@Eigen@@V?$CwiseBinaryOp@U?$scalar_product_op@MM@internal@Eigen@@$$CBV?$CwiseNullaryOp@U?$scalar_constant_op@M@internal@Eigen@@$$CBV?$Matrix@M$0?0$00$0A@$0?0$00@3@@3@$$CBV?$Map@V?$Matrix@M$0?0$00$0A@$0?0$00@Eigen@@$03V?$Stride@$0A@$0A@@2@@3@@2@U?$add_assign_op@MM@internal@2@@internal@Eigen@@YAXAEAV?$Matrix@M$0CFI@$00$0A@$0CFI@$00@1@AEBV?$CwiseBinaryOp@U?$scalar_product_op@MM@internal@Eigen@@$$CBV?$CwiseNullaryOp@U?$scalar_constant_op@M@internal@Eigen@@$$CBV?$Matrix@M$0?0$00$0A@$0?0$00@3@@3@$$CBV?$Map@V?$Matrix@M$0?0$00$0A@$0?0$00@Eigen@@$03V?$Stride@$0A@$0A@@2@@3@@1@AEBU?$add_assign_op@MM@01@@Z ; Eigen::internal::call_assignment_no_alias<Eigen::Matrix<float,600,1,0,600,1>,Eigen::CwiseBinaryOp<Eigen::internal::scalar_product_op<float,float>,Eigen::CwiseNullaryOp<Eigen::internal::scalar_constant_op<float>,Eigen::Matrix<float,-1,1,0,-1,1> const > const ,Eigen::Map<Eigen::Matrix<float,-1,1,0,-1,1>,4,Eigen::Stride<0,0> > const >,Eigen::internal::add_assign_op<float,float> >
PUBLIC	??$call_assignment@V?$Map@V?$Matrix@M$0?0$00$0A@$0?0$00@Eigen@@$03V?$Stride@$0A@$0A@@2@@Eigen@@V?$Matrix@M$0CFI@$00$0A@$0CFI@$00@2@U?$assign_op@MM@internal@2@@internal@Eigen@@YAXAEAV?$Map@V?$Matrix@M$0?0$00$0A@$0?0$00@Eigen@@$03V?$Stride@$0A@$0A@@2@@1@AEBV?$Matrix@M$0CFI@$00$0A@$0CFI@$00@1@AEBU?$assign_op@MM@01@PEAX@Z ; Eigen::internal::call_assignment<Eigen::Map<Eigen::Matrix<float,-1,1,0,-1,1>,4,Eigen::Stride<0,0> >,Eigen::Matrix<float,600,1,0,600,1>,Eigen::internal::assign_op<float,float> >
PUBLIC	??$ploadt@T__m128@@$0A@@internal@Eigen@@YA?AT__m128@@PEBM@Z ; Eigen::internal::ploadt<__m128,0>
PUBLIC	??$packet@$0BA@T__m128@@@?$evaluator@V?$PlainObjectBase@V?$Matrix@M$00$0CFI@$00$00$0CFI@@Eigen@@@Eigen@@@internal@Eigen@@QEBA?AT__m128@@_J@Z ; Eigen::internal::evaluator<Eigen::PlainObjectBase<Eigen::Matrix<float,1,600,1,1,600> > >::packet<16,__m128>
PUBLIC	??$call_assignment@V?$Matrix@M$0CFI@$00$0A@$0CFI@$00@Eigen@@V?$CwiseNullaryOp@U?$scalar_constant_op@M@internal@Eigen@@V?$Matrix@M$0CFI@$00$0A@$0CFI@$00@3@@2@U?$assign_op@MM@internal@2@@internal@Eigen@@YAXAEAV?$Matrix@M$0CFI@$00$0A@$0CFI@$00@1@AEBV?$CwiseNullaryOp@U?$scalar_constant_op@M@internal@Eigen@@V?$Matrix@M$0CFI@$00$0A@$0CFI@$00@3@@1@AEBU?$assign_op@MM@01@PEAX@Z ; Eigen::internal::call_assignment<Eigen::Matrix<float,600,1,0,600,1>,Eigen::CwiseNullaryOp<Eigen::internal::scalar_constant_op<float>,Eigen::Matrix<float,600,1,0,600,1> >,Eigen::internal::assign_op<float,float> >
PUBLIC	??$?4V?$CwiseNullaryOp@U?$scalar_constant_op@M@internal@Eigen@@V?$Matrix@M$0?0$00$0A@$0?0$00@3@@Eigen@@@?$MatrixBase@V?$Map@V?$Matrix@M$0?0$00$0A@$0?0$00@Eigen@@$03V?$Stride@$0A@$0A@@2@@Eigen@@@Eigen@@QEAAAEAV?$Map@V?$Matrix@M$0?0$00$0A@$0?0$00@Eigen@@$03V?$Stride@$0A@$0A@@2@@1@AEBV?$DenseBase@V?$CwiseNullaryOp@U?$scalar_constant_op@M@internal@Eigen@@V?$Matrix@M$0?0$00$0A@$0?0$00@3@@Eigen@@@1@@Z ; Eigen::MatrixBase<Eigen::Map<Eigen::Matrix<float,-1,1,0,-1,1>,4,Eigen::Stride<0,0> > >::operator=<Eigen::CwiseNullaryOp<Eigen::internal::scalar_constant_op<float>,Eigen::Matrix<float,-1,1,0,-1,1> > >
PUBLIC	?Constant@?$DenseBase@V?$Map@V?$Matrix@M$0?0$00$0A@$0?0$00@Eigen@@$03V?$Stride@$0A@$0A@@2@@Eigen@@@Eigen@@SA?BV?$CwiseNullaryOp@U?$scalar_constant_op@M@internal@Eigen@@V?$Matrix@M$0?0$00$0A@$0?0$00@3@@2@_J0AEBM@Z ; Eigen::DenseBase<Eigen::Map<Eigen::Matrix<float,-1,1,0,-1,1>,4,Eigen::Stride<0,0> > >::Constant
PUBLIC	?rows@?$EigenBase@V?$Map@V?$Matrix@M$0?0$00$0A@$0?0$00@Eigen@@$03V?$Stride@$0A@$0A@@2@@Eigen@@@Eigen@@QEBA_JXZ ; Eigen::EigenBase<Eigen::Map<Eigen::Matrix<float,-1,1,0,-1,1>,4,Eigen::Stride<0,0> > >::rows
PUBLIC	?cols@?$EigenBase@V?$Map@V?$Matrix@M$0?0$00$0A@$0?0$00@Eigen@@$03V?$Stride@$0A@$0A@@2@@Eigen@@@Eigen@@QEBA_JXZ ; Eigen::EigenBase<Eigen::Map<Eigen::Matrix<float,-1,1,0,-1,1>,4,Eigen::Stride<0,0> > >::cols
PUBLIC	?run@?$first_aligned_impl@$0BA@V?$CwiseBinaryOp@U?$scalar_product_op@MM@internal@Eigen@@$$CBV?$Transpose@$$CBV?$Matrix@M$00$0CFI@$00$00$0CFI@@Eigen@@@3@$$CBV?$Matrix@M$0CFI@$00$0A@$0CFI@$00@3@@Eigen@@$00@internal@Eigen@@SA_JAEBV?$CwiseBinaryOp@U?$scalar_product_op@MM@internal@Eigen@@$$CBV?$Transpose@$$CBV?$Matrix@M$00$0CFI@$00$00$0CFI@@Eigen@@@3@$$CBV?$Matrix@M$0CFI@$00$0A@$0CFI@$00@3@@3@@Z ; Eigen::internal::first_aligned_impl<16,Eigen::CwiseBinaryOp<Eigen::internal::scalar_product_op<float,float>,Eigen::Transpose<Eigen::Matrix<float,1,600,1,1,600> const > const ,Eigen::Matrix<float,600,1,0,600,1> const >,1>::run
PUBLIC	??$_set@V?$Map@V?$Matrix@M$0?0$00$0A@$0?0$00@Eigen@@$03V?$Stride@$0A@$0A@@2@@Eigen@@@?$PlainObjectBase@V?$Matrix@M$0CFI@$00$0A@$0CFI@$00@Eigen@@@Eigen@@IEAAAEAV?$Matrix@M$0CFI@$00$0A@$0CFI@$00@1@AEBV?$DenseBase@V?$Map@V?$Matrix@M$0?0$00$0A@$0?0$00@Eigen@@$03V?$Stride@$0A@$0A@@2@@Eigen@@@1@@Z ; Eigen::PlainObjectBase<Eigen::Matrix<float,600,1,0,600,1> >::_set<Eigen::Map<Eigen::Matrix<float,-1,1,0,-1,1>,4,Eigen::Stride<0,0> > >
PUBLIC	??$call_assignment@V?$Matrix@M$0CFI@$00$0A@$0CFI@$00@Eigen@@V?$CwiseBinaryOp@U?$scalar_product_op@MM@internal@Eigen@@$$CBV?$CwiseNullaryOp@U?$scalar_constant_op@M@internal@Eigen@@$$CBV?$Matrix@M$0?0$00$0A@$0?0$00@3@@3@$$CBV?$Map@V?$Matrix@M$0?0$00$0A@$0?0$00@Eigen@@$03V?$Stride@$0A@$0A@@2@@3@@2@U?$add_assign_op@MM@internal@2@@internal@Eigen@@YAXAEAV?$Matrix@M$0CFI@$00$0A@$0CFI@$00@1@AEBV?$CwiseBinaryOp@U?$scalar_product_op@MM@internal@Eigen@@$$CBV?$CwiseNullaryOp@U?$scalar_constant_op@M@internal@Eigen@@$$CBV?$Matrix@M$0?0$00$0A@$0?0$00@3@@3@$$CBV?$Map@V?$Matrix@M$0?0$00$0A@$0?0$00@Eigen@@$03V?$Stride@$0A@$0A@@2@@3@@1@AEBU?$add_assign_op@MM@01@PEAX@Z ; Eigen::internal::call_assignment<Eigen::Matrix<float,600,1,0,600,1>,Eigen::CwiseBinaryOp<Eigen::internal::scalar_product_op<float,float>,Eigen::CwiseNullaryOp<Eigen::internal::scalar_constant_op<float>,Eigen::Matrix<float,-1,1,0,-1,1> const > const ,Eigen::Map<Eigen::Matrix<float,-1,1,0,-1,1>,4,Eigen::Stride<0,0> > const >,Eigen::internal::add_assign_op<float,float> >
PUBLIC	??$call_assignment@V?$Map@V?$Matrix@M$0?0$00$0A@$0?0$00@Eigen@@$03V?$Stride@$0A@$0A@@2@@Eigen@@V?$Matrix@M$0CFI@$00$0A@$0CFI@$00@2@@internal@Eigen@@YAXAEAV?$Map@V?$Matrix@M$0?0$00$0A@$0?0$00@Eigen@@$03V?$Stride@$0A@$0A@@2@@1@AEBV?$Matrix@M$0CFI@$00$0A@$0CFI@$00@1@@Z ; Eigen::internal::call_assignment<Eigen::Map<Eigen::Matrix<float,-1,1,0,-1,1>,4,Eigen::Stride<0,0> >,Eigen::Matrix<float,600,1,0,600,1> >
PUBLIC	??$load@T__m128@@$0A@@?$blas_data_mapper@$$CBM_J$0A@$0A@$00@internal@Eigen@@QEBA?AT__m128@@_J0@Z ; Eigen::internal::blas_data_mapper<float const ,__int64,0,0,1>::load<__m128,0>
PUBLIC	??$mini@_J@numext@Eigen@@YA_JAEB_J0@Z		; Eigen::numext::mini<__int64>
PUBLIC	??$packetOp@T__m128@@@?$scalar_product_op@MM@internal@Eigen@@QEBA?AT__m128@@AEBT3@0@Z ; Eigen::internal::scalar_product_op<float,float>::packetOp<__m128>
PUBLIC	??$packet@$0BA@T__m128@@@?$evaluator@V?$PlainObjectBase@V?$Matrix@M$0CFI@$00$0A@$0CFI@$00@Eigen@@@Eigen@@@internal@Eigen@@QEBA?AT__m128@@_J@Z ; Eigen::internal::evaluator<Eigen::PlainObjectBase<Eigen::Matrix<float,600,1,0,600,1> > >::packet<16,__m128>
PUBLIC	??$packet@$0BA@T__m128@@@?$unary_evaluator@V?$Transpose@$$CBV?$Matrix@M$00$0CFI@$00$00$0CFI@@Eigen@@@Eigen@@UIndexBased@internal@2@M@internal@Eigen@@QEBA?AT__m128@@_J@Z ; Eigen::internal::unary_evaluator<Eigen::Transpose<Eigen::Matrix<float,1,600,1,1,600> const >,Eigen::internal::IndexBased,float>::packet<16,__m128>
PUBLIC	??$call_assignment@V?$Matrix@M$0CFI@$00$0A@$0CFI@$00@Eigen@@V?$CwiseNullaryOp@U?$scalar_constant_op@M@internal@Eigen@@V?$Matrix@M$0CFI@$00$0A@$0CFI@$00@3@@2@@internal@Eigen@@YAXAEAV?$Matrix@M$0CFI@$00$0A@$0CFI@$00@1@AEBV?$CwiseNullaryOp@U?$scalar_constant_op@M@internal@Eigen@@V?$Matrix@M$0CFI@$00$0A@$0CFI@$00@3@@1@@Z ; Eigen::internal::call_assignment<Eigen::Matrix<float,600,1,0,600,1>,Eigen::CwiseNullaryOp<Eigen::internal::scalar_constant_op<float>,Eigen::Matrix<float,600,1,0,600,1> > >
PUBLIC	?setConstant@?$DenseBase@V?$Map@V?$Matrix@M$0?0$00$0A@$0?0$00@Eigen@@$03V?$Stride@$0A@$0A@@2@@Eigen@@@Eigen@@QEAAAEAV?$Map@V?$Matrix@M$0?0$00$0A@$0?0$00@Eigen@@$03V?$Stride@$0A@$0A@@2@@2@AEBM@Z ; Eigen::DenseBase<Eigen::Map<Eigen::Matrix<float,-1,1,0,-1,1>,4,Eigen::Stride<0,0> > >::setConstant
PUBLIC	?value@?$variable_if_dynamic@_J$0?0@internal@Eigen@@QEBA_JXZ ; Eigen::internal::variable_if_dynamic<__int64,-1>::value
PUBLIC	??0?$DenseBase@V?$CwiseNullaryOp@U?$scalar_constant_op@M@internal@Eigen@@V?$Matrix@M$0CFI@$00$0A@$0CFI@$00@3@@Eigen@@@Eigen@@IEAA@XZ ; Eigen::DenseBase<Eigen::CwiseNullaryOp<Eigen::internal::scalar_constant_op<float>,Eigen::Matrix<float,600,1,0,600,1> > >::DenseBase<Eigen::CwiseNullaryOp<Eigen::internal::scalar_constant_op<float>,Eigen::Matrix<float,600,1,0,600,1> > >
PUBLIC	??0?$DenseBase@V?$CwiseNullaryOp@U?$scalar_constant_op@M@internal@Eigen@@$$CBV?$Matrix@M$0?0$00$0A@$0?0$00@3@@Eigen@@@Eigen@@IEAA@XZ ; Eigen::DenseBase<Eigen::CwiseNullaryOp<Eigen::internal::scalar_constant_op<float>,Eigen::Matrix<float,-1,1,0,-1,1> const > >::DenseBase<Eigen::CwiseNullaryOp<Eigen::internal::scalar_constant_op<float>,Eigen::Matrix<float,-1,1,0,-1,1> const > >
PUBLIC	??0?$DenseBase@V?$CwiseBinaryOp@U?$scalar_product_op@MM@internal@Eigen@@$$CBV?$CwiseNullaryOp@U?$scalar_constant_op@M@internal@Eigen@@$$CBV?$Matrix@M$0?0$00$0A@$0?0$00@3@@3@$$CBV?$Map@V?$Matrix@M$0?0$00$0A@$0?0$00@Eigen@@$03V?$Stride@$0A@$0A@@2@@3@@Eigen@@@Eigen@@IEAA@XZ ; Eigen::DenseBase<Eigen::CwiseBinaryOp<Eigen::internal::scalar_product_op<float,float>,Eigen::CwiseNullaryOp<Eigen::internal::scalar_constant_op<float>,Eigen::Matrix<float,-1,1,0,-1,1> const > const ,Eigen::Map<Eigen::Matrix<float,-1,1,0,-1,1>,4,Eigen::Stride<0,0> > const > >::DenseBase<Eigen::CwiseBinaryOp<Eigen::internal::scalar_product_op<float,float>,Eigen::CwiseNullaryOp<Eigen::internal::scalar_constant_op<float>,Eigen::Matrix<float,-1,1,0,-1,1> const > const ,Eigen::Map<Eigen::Matrix<float,-1,1,0,-1,1>,4,Eigen::Stride<0,0> > const > >
PUBLIC	??0?$MatrixBase@V?$CwiseNullaryOp@U?$scalar_constant_op@M@internal@Eigen@@V?$Matrix@M$0CFI@$00$0A@$0CFI@$00@3@@Eigen@@@Eigen@@IEAA@XZ ; Eigen::MatrixBase<Eigen::CwiseNullaryOp<Eigen::internal::scalar_constant_op<float>,Eigen::Matrix<float,600,1,0,600,1> > >::MatrixBase<Eigen::CwiseNullaryOp<Eigen::internal::scalar_constant_op<float>,Eigen::Matrix<float,600,1,0,600,1> > >
PUBLIC	??0?$MatrixBase@V?$CwiseNullaryOp@U?$scalar_constant_op@M@internal@Eigen@@$$CBV?$Matrix@M$0?0$00$0A@$0?0$00@3@@Eigen@@@Eigen@@IEAA@XZ ; Eigen::MatrixBase<Eigen::CwiseNullaryOp<Eigen::internal::scalar_constant_op<float>,Eigen::Matrix<float,-1,1,0,-1,1> const > >::MatrixBase<Eigen::CwiseNullaryOp<Eigen::internal::scalar_constant_op<float>,Eigen::Matrix<float,-1,1,0,-1,1> const > >
PUBLIC	??0?$Map@V?$Matrix@M$0?0$00$0A@$0?0$00@Eigen@@$03V?$Stride@$0A@$0A@@2@@Eigen@@QEAA@AEBV01@@Z ; Eigen::Map<Eigen::Matrix<float,-1,1,0,-1,1>,4,Eigen::Stride<0,0> >::Map<Eigen::Matrix<float,-1,1,0,-1,1>,4,Eigen::Stride<0,0> >
PUBLIC	??0?$CwiseNullaryOp@U?$scalar_constant_op@M@internal@Eigen@@$$CBV?$Matrix@M$0?0$00$0A@$0?0$00@3@@Eigen@@QEAA@AEBV01@@Z ; Eigen::CwiseNullaryOp<Eigen::internal::scalar_constant_op<float>,Eigen::Matrix<float,-1,1,0,-1,1> const >::CwiseNullaryOp<Eigen::internal::scalar_constant_op<float>,Eigen::Matrix<float,-1,1,0,-1,1> const >
PUBLIC	??0?$MatrixBase@V?$CwiseBinaryOp@U?$scalar_product_op@MM@internal@Eigen@@$$CBV?$CwiseNullaryOp@U?$scalar_constant_op@M@internal@Eigen@@$$CBV?$Matrix@M$0?0$00$0A@$0?0$00@3@@3@$$CBV?$Map@V?$Matrix@M$0?0$00$0A@$0?0$00@Eigen@@$03V?$Stride@$0A@$0A@@2@@3@@Eigen@@@Eigen@@IEAA@XZ ; Eigen::MatrixBase<Eigen::CwiseBinaryOp<Eigen::internal::scalar_product_op<float,float>,Eigen::CwiseNullaryOp<Eigen::internal::scalar_constant_op<float>,Eigen::Matrix<float,-1,1,0,-1,1> const > const ,Eigen::Map<Eigen::Matrix<float,-1,1,0,-1,1>,4,Eigen::Stride<0,0> > const > >::MatrixBase<Eigen::CwiseBinaryOp<Eigen::internal::scalar_product_op<float,float>,Eigen::CwiseNullaryOp<Eigen::internal::scalar_constant_op<float>,Eigen::Matrix<float,-1,1,0,-1,1> const > const ,Eigen::Map<Eigen::Matrix<float,-1,1,0,-1,1>,4,Eigen::Stride<0,0> > const > >
PUBLIC	??0?$CwiseBinaryOpImpl@U?$scalar_product_op@MM@internal@Eigen@@$$CBV?$CwiseNullaryOp@U?$scalar_constant_op@M@internal@Eigen@@$$CBV?$Matrix@M$0?0$00$0A@$0?0$00@3@@3@$$CBV?$Map@V?$Matrix@M$0?0$00$0A@$0?0$00@Eigen@@$03V?$Stride@$0A@$0A@@2@@3@UDense@3@@Eigen@@QEAA@XZ ; Eigen::CwiseBinaryOpImpl<Eigen::internal::scalar_product_op<float,float>,Eigen::CwiseNullaryOp<Eigen::internal::scalar_constant_op<float>,Eigen::Matrix<float,-1,1,0,-1,1> const > const ,Eigen::Map<Eigen::Matrix<float,-1,1,0,-1,1>,4,Eigen::Stride<0,0> > const ,Eigen::Dense>::CwiseBinaryOpImpl<Eigen::internal::scalar_product_op<float,float>,Eigen::CwiseNullaryOp<Eigen::internal::scalar_constant_op<float>,Eigen::Matrix<float,-1,1,0,-1,1> const > const ,Eigen::Map<Eigen::Matrix<float,-1,1,0,-1,1>,4,Eigen::Stride<0,0> > const ,Eigen::Dense>
PUBLIC	?derived@?$EigenBase@V?$CwiseNullaryOp@U?$scalar_constant_op@M@internal@Eigen@@V?$Matrix@M$0CFI@$00$0A@$0CFI@$00@3@@Eigen@@@Eigen@@QEBAAEBV?$CwiseNullaryOp@U?$scalar_constant_op@M@internal@Eigen@@V?$Matrix@M$0CFI@$00$0A@$0CFI@$00@3@@2@XZ ; Eigen::EigenBase<Eigen::CwiseNullaryOp<Eigen::internal::scalar_constant_op<float>,Eigen::Matrix<float,600,1,0,600,1> > >::derived
PUBLIC	??0?$CwiseNullaryOp@U?$scalar_constant_op@M@internal@Eigen@@V?$Matrix@M$0CFI@$00$0A@$0CFI@$00@3@@Eigen@@QEAA@_J0AEBU?$scalar_constant_op@M@internal@1@@Z ; Eigen::CwiseNullaryOp<Eigen::internal::scalar_constant_op<float>,Eigen::Matrix<float,600,1,0,600,1> >::CwiseNullaryOp<Eigen::internal::scalar_constant_op<float>,Eigen::Matrix<float,600,1,0,600,1> >
PUBLIC	??R?$blas_data_mapper@$$CBM_J$0A@$0A@$00@internal@Eigen@@QEBAAEBM_J0@Z ; Eigen::internal::blas_data_mapper<float const ,__int64,0,0,1>::operator()
PUBLIC	?stride@?$blas_data_mapper@$$CBM_J$0A@$0A@$00@internal@Eigen@@QEBA?B_JXZ ; Eigen::internal::blas_data_mapper<float const ,__int64,0,0,1>::stride
PUBLIC	??R?$blas_data_mapper@$$CBM_J$00$0A@$00@internal@Eigen@@QEBAAEBM_J0@Z ; Eigen::internal::blas_data_mapper<float const ,__int64,1,0,1>::operator()
PUBLIC	?derived@?$EigenBase@V?$Map@V?$Matrix@M$0?0$00$0A@$0?0$00@Eigen@@$03V?$Stride@$0A@$0A@@2@@Eigen@@@Eigen@@QEAAAEAV?$Map@V?$Matrix@M$0?0$00$0A@$0?0$00@Eigen@@$03V?$Stride@$0A@$0A@@2@@2@XZ ; Eigen::EigenBase<Eigen::Map<Eigen::Matrix<float,-1,1,0,-1,1>,4,Eigen::Stride<0,0> > >::derived
PUBLIC	?derived@?$EigenBase@V?$Map@V?$Matrix@M$0?0$00$0A@$0?0$00@Eigen@@$03V?$Stride@$0A@$0A@@2@@Eigen@@@Eigen@@QEBAAEBV?$Map@V?$Matrix@M$0?0$00$0A@$0?0$00@Eigen@@$03V?$Stride@$0A@$0A@@2@@2@XZ ; Eigen::EigenBase<Eigen::Map<Eigen::Matrix<float,-1,1,0,-1,1>,4,Eigen::Stride<0,0> > >::derived
PUBLIC	?rows@?$MapBase@V?$Map@V?$Matrix@M$0?0$00$0A@$0?0$00@Eigen@@$03V?$Stride@$0A@$0A@@2@@Eigen@@$0A@@Eigen@@QEBA_JXZ ; Eigen::MapBase<Eigen::Map<Eigen::Matrix<float,-1,1,0,-1,1>,4,Eigen::Stride<0,0> >,0>::rows
PUBLIC	?cols@?$MapBase@V?$Map@V?$Matrix@M$0?0$00$0A@$0?0$00@Eigen@@$03V?$Stride@$0A@$0A@@2@@Eigen@@$0A@@Eigen@@QEBA_JXZ ; Eigen::MapBase<Eigen::Map<Eigen::Matrix<float,-1,1,0,-1,1>,4,Eigen::Stride<0,0> >,0>::cols
PUBLIC	??0?$CwiseNullaryOp@U?$scalar_constant_op@M@internal@Eigen@@$$CBV?$Matrix@M$0?0$00$0A@$0?0$00@3@@Eigen@@QEAA@_J0AEBU?$scalar_constant_op@M@internal@1@@Z ; Eigen::CwiseNullaryOp<Eigen::internal::scalar_constant_op<float>,Eigen::Matrix<float,-1,1,0,-1,1> const >::CwiseNullaryOp<Eigen::internal::scalar_constant_op<float>,Eigen::Matrix<float,-1,1,0,-1,1> const >
PUBLIC	?derived@?$EigenBase@V?$CwiseBinaryOp@U?$scalar_product_op@MM@internal@Eigen@@$$CBV?$CwiseNullaryOp@U?$scalar_constant_op@M@internal@Eigen@@$$CBV?$Matrix@M$0?0$00$0A@$0?0$00@3@@3@$$CBV?$Map@V?$Matrix@M$0?0$00$0A@$0?0$00@Eigen@@$03V?$Stride@$0A@$0A@@2@@3@@Eigen@@@Eigen@@QEBAAEBV?$CwiseBinaryOp@U?$scalar_product_op@MM@internal@Eigen@@$$CBV?$CwiseNullaryOp@U?$scalar_constant_op@M@internal@Eigen@@$$CBV?$Matrix@M$0?0$00$0A@$0?0$00@3@@3@$$CBV?$Map@V?$Matrix@M$0?0$00$0A@$0?0$00@Eigen@@$03V?$Stride@$0A@$0A@@2@@3@@2@XZ ; Eigen::EigenBase<Eigen::CwiseBinaryOp<Eigen::internal::scalar_product_op<float,float>,Eigen::CwiseNullaryOp<Eigen::internal::scalar_constant_op<float>,Eigen::Matrix<float,-1,1,0,-1,1> const > const ,Eigen::Map<Eigen::Matrix<float,-1,1,0,-1,1>,4,Eigen::Stride<0,0> > const > >::derived
PUBLIC	??0?$CwiseBinaryOp@U?$scalar_product_op@MM@internal@Eigen@@$$CBV?$CwiseNullaryOp@U?$scalar_constant_op@M@internal@Eigen@@$$CBV?$Matrix@M$0?0$00$0A@$0?0$00@3@@3@$$CBV?$Map@V?$Matrix@M$0?0$00$0A@$0?0$00@Eigen@@$03V?$Stride@$0A@$0A@@2@@3@@Eigen@@QEAA@AEBV?$CwiseNullaryOp@U?$scalar_constant_op@M@internal@Eigen@@$$CBV?$Matrix@M$0?0$00$0A@$0?0$00@3@@1@AEBV?$Map@V?$Matrix@M$0?0$00$0A@$0?0$00@Eigen@@$03V?$Stride@$0A@$0A@@2@@1@AEBU?$scalar_product_op@MM@internal@1@@Z ; Eigen::CwiseBinaryOp<Eigen::internal::scalar_product_op<float,float>,Eigen::CwiseNullaryOp<Eigen::internal::scalar_constant_op<float>,Eigen::Matrix<float,-1,1,0,-1,1> const > const ,Eigen::Map<Eigen::Matrix<float,-1,1,0,-1,1>,4,Eigen::Stride<0,0> > const >::CwiseBinaryOp<Eigen::internal::scalar_product_op<float,float>,Eigen::CwiseNullaryOp<Eigen::internal::scalar_constant_op<float>,Eigen::Matrix<float,-1,1,0,-1,1> const > const ,Eigen::Map<Eigen::Matrix<float,-1,1,0,-1,1>,4,Eigen::Stride<0,0> > const >
PUBLIC	?pmul@?$conj_helper@MM$0A@$0A@@internal@Eigen@@QEBAMAEBM0@Z ; Eigen::internal::conj_helper<float,float,0,0>::pmul
PUBLIC	?pmadd@?$conj_helper@T__m128@@T1@$0A@$0A@@internal@Eigen@@QEBA?AT__m128@@AEBT4@00@Z ; Eigen::internal::conj_helper<__m128,__m128,0,0>::pmadd
PUBLIC	?run@?$real_default_impl@M$0A@@internal@Eigen@@SAMAEBM@Z ; Eigen::internal::real_default_impl<float,0>::run
PUBLIC	?__autoclassinit2@?$const_blas_data_mapper@M_J$0A@@internal@Eigen@@QEAAX_K@Z ; Eigen::internal::const_blas_data_mapper<float,__int64,0>::__autoclassinit2
PUBLIC	??$checkSanity@V?$Map@V?$Matrix@M$0?0$00$0A@$0?0$00@Eigen@@$03V?$Stride@$0A@$0A@@2@@Eigen@@@?$MapBase@V?$Map@V?$Matrix@M$0?0$00$0A@$0?0$00@Eigen@@$03V?$Stride@$0A@$0A@@2@@Eigen@@$0A@@Eigen@@IEBAXPEAX@Z ; Eigen::MapBase<Eigen::Map<Eigen::Matrix<float,-1,1,0,-1,1>,4,Eigen::Stride<0,0> >,0>::checkSanity<Eigen::Map<Eigen::Matrix<float,-1,1,0,-1,1>,4,Eigen::Stride<0,0> > >
PUBLIC	??$real@M@numext@Eigen@@YAMAEBM@Z		; Eigen::numext::real<float>
PUBLIC	??$construct_elements_of_array@M@internal@Eigen@@YAPEAMPEAM_K@Z ; Eigen::internal::construct_elements_of_array<float>
PUBLIC	??$destruct_elements_of_array@M@internal@Eigen@@YAXPEAM_K@Z ; Eigen::internal::destruct_elements_of_array<float>
PUBLIC	??$packet@$0BA@T__m128@@_J@?$evaluator@V?$CwiseNullaryOp@U?$scalar_constant_op@M@internal@Eigen@@V?$Matrix@M$03$0FNM@$0A@$03$0FNM@@3@@Eigen@@@internal@Eigen@@QEBA?AT__m128@@_J0@Z ; Eigen::internal::evaluator<Eigen::CwiseNullaryOp<Eigen::internal::scalar_constant_op<float>,Eigen::Matrix<float,4,1500,0,4,1500> > >::packet<16,__m128,__int64>
PUBLIC	??$packet@$0BA@T__m128@@_J@?$evaluator@V?$CwiseNullaryOp@U?$scalar_constant_op@M@internal@Eigen@@V?$Matrix@M$00$0CFI@$00$00$0CFI@@3@@Eigen@@@internal@Eigen@@QEBA?AT__m128@@_J0@Z ; Eigen::internal::evaluator<Eigen::CwiseNullaryOp<Eigen::internal::scalar_constant_op<float>,Eigen::Matrix<float,1,600,1,1,600> > >::packet<16,__m128,__int64>
PUBLIC	??$?4V?$Map@V?$Matrix@M$0?0$00$0A@$0?0$00@Eigen@@$03V?$Stride@$0A@$0A@@2@@Eigen@@@?$Matrix@M$0CFI@$00$0A@$0CFI@$00@Eigen@@QEAAAEAV01@AEBV?$DenseBase@V?$Map@V?$Matrix@M$0?0$00$0A@$0?0$00@Eigen@@$03V?$Stride@$0A@$0A@@2@@Eigen@@@1@@Z ; Eigen::Matrix<float,600,1,0,600,1>::operator=<Eigen::Map<Eigen::Matrix<float,-1,1,0,-1,1>,4,Eigen::Stride<0,0> > >
PUBLIC	??$?YV?$CwiseBinaryOp@U?$scalar_product_op@MM@internal@Eigen@@$$CBV?$CwiseNullaryOp@U?$scalar_constant_op@M@internal@Eigen@@$$CBV?$Matrix@M$0?0$00$0A@$0?0$00@3@@3@$$CBV?$Map@V?$Matrix@M$0?0$00$0A@$0?0$00@Eigen@@$03V?$Stride@$0A@$0A@@2@@3@@Eigen@@@?$MatrixBase@V?$Matrix@M$0CFI@$00$0A@$0CFI@$00@Eigen@@@Eigen@@QEAAAEAV?$Matrix@M$0CFI@$00$0A@$0CFI@$00@1@AEBV?$MatrixBase@V?$CwiseBinaryOp@U?$scalar_product_op@MM@internal@Eigen@@$$CBV?$CwiseNullaryOp@U?$scalar_constant_op@M@internal@Eigen@@$$CBV?$Matrix@M$0?0$00$0A@$0?0$00@3@@3@$$CBV?$Map@V?$Matrix@M$0?0$00$0A@$0?0$00@Eigen@@$03V?$Stride@$0A@$0A@@2@@3@@Eigen@@@1@@Z ; Eigen::MatrixBase<Eigen::Matrix<float,600,1,0,600,1> >::operator+=<Eigen::CwiseBinaryOp<Eigen::internal::scalar_product_op<float,float>,Eigen::CwiseNullaryOp<Eigen::internal::scalar_constant_op<float>,Eigen::Matrix<float,-1,1,0,-1,1> const > const ,Eigen::Map<Eigen::Matrix<float,-1,1,0,-1,1>,4,Eigen::Stride<0,0> > const > >
PUBLIC	??$?DM@Eigen@@YA?BV?$CwiseBinaryOp@U?$scalar_product_op@MM@internal@Eigen@@$$CBV?$CwiseNullaryOp@U?$scalar_constant_op@M@internal@Eigen@@$$CBV?$Matrix@M$0?0$00$0A@$0?0$00@3@@3@$$CBV?$Map@V?$Matrix@M$0?0$00$0A@$0?0$00@Eigen@@$03V?$Stride@$0A@$0A@@2@@3@@0@AEBMAEBV?$MatrixBase@V?$Map@V?$Matrix@M$0?0$00$0A@$0?0$00@Eigen@@$03V?$Stride@$0A@$0A@@2@@Eigen@@@0@@Z ; Eigen::operator*<float>
PUBLIC	??$?4V?$Matrix@M$0CFI@$00$0A@$0CFI@$00@Eigen@@@?$MatrixBase@V?$Map@V?$Matrix@M$0?0$00$0A@$0?0$00@Eigen@@$03V?$Stride@$0A@$0A@@2@@Eigen@@@Eigen@@QEAAAEAV?$Map@V?$Matrix@M$0?0$00$0A@$0?0$00@Eigen@@$03V?$Stride@$0A@$0A@@2@@1@AEBV?$DenseBase@V?$Matrix@M$0CFI@$00$0A@$0CFI@$00@Eigen@@@1@@Z ; Eigen::MatrixBase<Eigen::Map<Eigen::Matrix<float,-1,1,0,-1,1>,4,Eigen::Stride<0,0> > >::operator=<Eigen::Matrix<float,600,1,0,600,1> >
PUBLIC	?setZero@?$DenseBase@V?$Map@V?$Matrix@M$0?0$00$0A@$0?0$00@Eigen@@$03V?$Stride@$0A@$0A@@2@@Eigen@@@Eigen@@QEAAAEAV?$Map@V?$Matrix@M$0?0$00$0A@$0?0$00@Eigen@@$03V?$Stride@$0A@$0A@@2@@2@XZ ; Eigen::DenseBase<Eigen::Map<Eigen::Matrix<float,-1,1,0,-1,1>,4,Eigen::Stride<0,0> > >::setZero
PUBLIC	??$check_size_for_overflow@M@internal@Eigen@@YAX_K@Z ; Eigen::internal::check_size_for_overflow<float>
PUBLIC	?run@?$general_matrix_vector_product@_JMV?$const_blas_data_mapper@M_J$0A@@internal@Eigen@@$0A@$0A@MV?$const_blas_data_mapper@M_J$00@23@$0A@$0A@@internal@Eigen@@SAX_J0AEBV?$const_blas_data_mapper@M_J$0A@@23@AEBV?$const_blas_data_mapper@M_J$00@23@PEAM0M@Z ; Eigen::internal::general_matrix_vector_product<__int64,float,Eigen::internal::const_blas_data_mapper<float,__int64,0>,0,0,float,Eigen::internal::const_blas_data_mapper<float,__int64,1>,0,0>::run
PUBLIC	??$predux@T__m128@@@?$scalar_sum_op@MM@internal@Eigen@@QEBAMAEBT__m128@@@Z ; Eigen::internal::scalar_sum_op<float,float>::predux<__m128>
PUBLIC	??$packet@$0BA@T__m128@@@?$binary_evaluator@V?$CwiseBinaryOp@U?$scalar_product_op@MM@internal@Eigen@@$$CBV?$Transpose@$$CBV?$Matrix@M$00$0CFI@$00$00$0CFI@@Eigen@@@3@$$CBV?$Matrix@M$0CFI@$00$0A@$0CFI@$00@3@@Eigen@@UIndexBased@internal@2@U342@MM@internal@Eigen@@QEBA?AT__m128@@_J@Z ; Eigen::internal::binary_evaluator<Eigen::CwiseBinaryOp<Eigen::internal::scalar_product_op<float,float>,Eigen::Transpose<Eigen::Matrix<float,1,600,1,1,600> const > const ,Eigen::Matrix<float,600,1,0,600,1> const >,Eigen::internal::IndexBased,Eigen::internal::IndexBased,float,float>::packet<16,__m128>
PUBLIC	??$_set@V?$CwiseNullaryOp@U?$scalar_constant_op@M@internal@Eigen@@V?$Matrix@M$0CFI@$00$0A@$0CFI@$00@3@@Eigen@@@?$PlainObjectBase@V?$Matrix@M$0CFI@$00$0A@$0CFI@$00@Eigen@@@Eigen@@IEAAAEAV?$Matrix@M$0CFI@$00$0A@$0CFI@$00@1@AEBV?$DenseBase@V?$CwiseNullaryOp@U?$scalar_constant_op@M@internal@Eigen@@V?$Matrix@M$0CFI@$00$0A@$0CFI@$00@3@@Eigen@@@1@@Z ; Eigen::PlainObjectBase<Eigen::Matrix<float,600,1,0,600,1> >::_set<Eigen::CwiseNullaryOp<Eigen::internal::scalar_constant_op<float>,Eigen::Matrix<float,600,1,0,600,1> > >
PUBLIC	??$NullaryExpr@U?$scalar_constant_op@M@internal@Eigen@@@?$DenseBase@V?$Matrix@M$0CFI@$00$0A@$0CFI@$00@Eigen@@@Eigen@@SA?BV?$CwiseNullaryOp@U?$scalar_constant_op@M@internal@Eigen@@V?$Matrix@M$0CFI@$00$0A@$0CFI@$00@3@@1@_J0AEBU?$scalar_constant_op@M@internal@1@@Z ; Eigen::DenseBase<Eigen::Matrix<float,600,1,0,600,1> >::NullaryExpr<Eigen::internal::scalar_constant_op<float> >
PUBLIC	?value@?$variable_if_dynamic@_J$0A@@internal@Eigen@@SA_JXZ ; Eigen::internal::variable_if_dynamic<__int64,0>::value
PUBLIC	?rows@?$Transpose@$$CBV?$Matrix@M$00$0CFI@$00$00$0CFI@@Eigen@@@Eigen@@QEBA_JXZ ; Eigen::Transpose<Eigen::Matrix<float,1,600,1,1,600> const >::rows
PUBLIC	?cols@?$Transpose@$$CBV?$Matrix@M$00$0CFI@$00$00$0CFI@@Eigen@@@Eigen@@QEBA_JXZ ; Eigen::Transpose<Eigen::Matrix<float,1,600,1,1,600> const >::cols
PUBLIC	??0?$DenseBase@V?$Map@V?$Matrix@M$0?0$00$0A@$0?0$00@Eigen@@$03V?$Stride@$0A@$0A@@2@@Eigen@@@Eigen@@IEAA@XZ ; Eigen::DenseBase<Eigen::Map<Eigen::Matrix<float,-1,1,0,-1,1>,4,Eigen::Stride<0,0> > >::DenseBase<Eigen::Map<Eigen::Matrix<float,-1,1,0,-1,1>,4,Eigen::Stride<0,0> > >
PUBLIC	??0?$MatrixBase@V?$Map@V?$Matrix@M$0?0$00$0A@$0?0$00@Eigen@@$03V?$Stride@$0A@$0A@@2@@Eigen@@@Eigen@@IEAA@XZ ; Eigen::MatrixBase<Eigen::Map<Eigen::Matrix<float,-1,1,0,-1,1>,4,Eigen::Stride<0,0> > >::MatrixBase<Eigen::Map<Eigen::Matrix<float,-1,1,0,-1,1>,4,Eigen::Stride<0,0> > >
PUBLIC	?coeff@?$evaluator@V?$PlainObjectBase@V?$Matrix@M$00$0CFI@$00$00$0CFI@@Eigen@@@Eigen@@@internal@Eigen@@QEBAAEBM_J@Z ; Eigen::internal::evaluator<Eigen::PlainObjectBase<Eigen::Matrix<float,1,600,1,1,600> > >::coeff
PUBLIC	?rows@?$CwiseBinaryOp@U?$scalar_product_op@MM@internal@Eigen@@$$CBV?$Transpose@$$CBV?$Matrix@M$00$0CFI@$00$00$0CFI@@Eigen@@@3@$$CBV?$Matrix@M$0CFI@$00$0A@$0CFI@$00@3@@Eigen@@QEBA_JXZ ; Eigen::CwiseBinaryOp<Eigen::internal::scalar_product_op<float,float>,Eigen::Transpose<Eigen::Matrix<float,1,600,1,1,600> const > const ,Eigen::Matrix<float,600,1,0,600,1> const >::rows
PUBLIC	?cols@?$CwiseBinaryOp@U?$scalar_product_op@MM@internal@Eigen@@$$CBV?$Transpose@$$CBV?$Matrix@M$00$0CFI@$00$00$0CFI@@Eigen@@@3@$$CBV?$Matrix@M$0CFI@$00$0A@$0CFI@$00@3@@Eigen@@QEBA_JXZ ; Eigen::CwiseBinaryOp<Eigen::internal::scalar_product_op<float,float>,Eigen::Transpose<Eigen::Matrix<float,1,600,1,1,600> const > const ,Eigen::Matrix<float,600,1,0,600,1> const >::cols
PUBLIC	?outer@?$Stride@$0A@$0A@@Eigen@@QEBA_JXZ	; Eigen::Stride<0,0>::outer
PUBLIC	?inner@?$Stride@$0A@$0A@@Eigen@@QEBA_JXZ	; Eigen::Stride<0,0>::inner
PUBLIC	??0?$MapBase@V?$Map@V?$Matrix@M$0?0$00$0A@$0?0$00@Eigen@@$03V?$Stride@$0A@$0A@@2@@Eigen@@$0A@@Eigen@@QEAA@PEAM_J@Z ; Eigen::MapBase<Eigen::Map<Eigen::Matrix<float,-1,1,0,-1,1>,4,Eigen::Stride<0,0> >,0>::MapBase<Eigen::Map<Eigen::Matrix<float,-1,1,0,-1,1>,4,Eigen::Stride<0,0> >,0>
PUBLIC	?coeff@?$evaluator@V?$PlainObjectBase@V?$Matrix@M$0CFI@$00$0A@$0CFI@$00@Eigen@@@Eigen@@@internal@Eigen@@QEBAAEBM_J@Z ; Eigen::internal::evaluator<Eigen::PlainObjectBase<Eigen::Matrix<float,600,1,0,600,1> > >::coeff
PUBLIC	?rows@?$EigenBase@V?$CwiseBinaryOp@U?$scalar_product_op@MM@internal@Eigen@@$$CBV?$Transpose@$$CBV?$Matrix@M$00$0CFI@$00$00$0CFI@@Eigen@@@3@$$CBV?$Matrix@M$0CFI@$00$0A@$0CFI@$00@3@@Eigen@@@Eigen@@QEBA_JXZ ; Eigen::EigenBase<Eigen::CwiseBinaryOp<Eigen::internal::scalar_product_op<float,float>,Eigen::Transpose<Eigen::Matrix<float,1,600,1,1,600> const > const ,Eigen::Matrix<float,600,1,0,600,1> const > >::rows
PUBLIC	?cols@?$EigenBase@V?$CwiseBinaryOp@U?$scalar_product_op@MM@internal@Eigen@@$$CBV?$Transpose@$$CBV?$Matrix@M$00$0CFI@$00$00$0CFI@@Eigen@@@3@$$CBV?$Matrix@M$0CFI@$00$0A@$0CFI@$00@3@@Eigen@@@Eigen@@QEBA_JXZ ; Eigen::EigenBase<Eigen::CwiseBinaryOp<Eigen::internal::scalar_product_op<float,float>,Eigen::Transpose<Eigen::Matrix<float,1,600,1,1,600> const > const ,Eigen::Matrix<float,600,1,0,600,1> const > >::cols
PUBLIC	?coeff@?$unary_evaluator@V?$Transpose@$$CBV?$Matrix@M$00$0CFI@$00$00$0CFI@@Eigen@@@Eigen@@UIndexBased@internal@2@M@internal@Eigen@@QEBAM_J@Z ; Eigen::internal::unary_evaluator<Eigen::Transpose<Eigen::Matrix<float,1,600,1,1,600> const >,Eigen::internal::IndexBased,float>::coeff
PUBLIC	?func@Data@?$binary_evaluator@V?$CwiseBinaryOp@U?$scalar_product_op@MM@internal@Eigen@@$$CBV?$Transpose@$$CBV?$Matrix@M$00$0CFI@$00$00$0CFI@@Eigen@@@3@$$CBV?$Matrix@M$0CFI@$00$0A@$0CFI@$00@3@@Eigen@@UIndexBased@internal@2@U342@MM@internal@Eigen@@QEBAAEBU?$scalar_product_op@MM@34@XZ ; Eigen::internal::binary_evaluator<Eigen::CwiseBinaryOp<Eigen::internal::scalar_product_op<float,float>,Eigen::Transpose<Eigen::Matrix<float,1,600,1,1,600> const > const ,Eigen::Matrix<float,600,1,0,600,1> const >,Eigen::internal::IndexBased,Eigen::internal::IndexBased,float,float>::Data::func
PUBLIC	??0?$blas_data_mapper@$$CBM_J$0A@$0A@$00@internal@Eigen@@QEAA@PEBM_J1@Z ; Eigen::internal::blas_data_mapper<float const ,__int64,0,0,1>::blas_data_mapper<float const ,__int64,0,0,1>
PUBLIC	??0?$blas_data_mapper@$$CBM_J$00$0A@$00@internal@Eigen@@QEAA@PEBM_J1@Z ; Eigen::internal::blas_data_mapper<float const ,__int64,1,0,1>::blas_data_mapper<float const ,__int64,1,0,1>
PUBLIC	?_check_template_params@?$PlainObjectBase@V?$Matrix@M$0?0$00$0A@$0?0$00@Eigen@@@Eigen@@SAXXZ ; Eigen::PlainObjectBase<Eigen::Matrix<float,-1,1,0,-1,1> >::_check_template_params
PUBLIC	??0?$Stride@$0A@$0A@@Eigen@@QEAA@AEBV01@@Z	; Eigen::Stride<0,0>::Stride<0,0>
PUBLIC	??0?$MapBase@V?$Map@V?$Matrix@M$0?0$00$0A@$0?0$00@Eigen@@$03V?$Stride@$0A@$0A@@2@@Eigen@@$00@Eigen@@QEAA@PEAM_J@Z ; Eigen::MapBase<Eigen::Map<Eigen::Matrix<float,-1,1,0,-1,1>,4,Eigen::Stride<0,0> >,1>::MapBase<Eigen::Map<Eigen::Matrix<float,-1,1,0,-1,1>,4,Eigen::Stride<0,0> >,1>
PUBLIC	?cast_to_pointer_type@?$Map@V?$Matrix@M$0?0$00$0A@$0?0$00@Eigen@@$03V?$Stride@$0A@$0A@@2@@Eigen@@QEAAPEAMPEAM@Z ; Eigen::Map<Eigen::Matrix<float,-1,1,0,-1,1>,4,Eigen::Stride<0,0> >::cast_to_pointer_type
PUBLIC	?matrix@?$MatrixBase@V?$Matrix@M$0CFI@$00$0A@$0CFI@$00@Eigen@@@Eigen@@QEAAAEAV12@XZ ; Eigen::MatrixBase<Eigen::Matrix<float,600,1,0,600,1> >::matrix
PUBLIC	?size@?$EigenBase@V?$CwiseBinaryOp@U?$scalar_product_op@MM@internal@Eigen@@$$CBV?$Transpose@$$CBV?$Matrix@M$00$0CFI@$00$00$0CFI@@Eigen@@@3@$$CBV?$Matrix@M$0CFI@$00$0A@$0CFI@$00@3@@Eigen@@@Eigen@@QEBA_JXZ ; Eigen::EigenBase<Eigen::CwiseBinaryOp<Eigen::internal::scalar_product_op<float,float>,Eigen::Transpose<Eigen::Matrix<float,1,600,1,1,600> const > const ,Eigen::Matrix<float,600,1,0,600,1> const > >::size
PUBLIC	?coeff@?$binary_evaluator@V?$CwiseBinaryOp@U?$scalar_product_op@MM@internal@Eigen@@$$CBV?$Transpose@$$CBV?$Matrix@M$00$0CFI@$00$00$0CFI@@Eigen@@@3@$$CBV?$Matrix@M$0CFI@$00$0A@$0CFI@$00@3@@Eigen@@UIndexBased@internal@2@U342@MM@internal@Eigen@@QEBAM_J@Z ; Eigen::internal::binary_evaluator<Eigen::CwiseBinaryOp<Eigen::internal::scalar_product_op<float,float>,Eigen::Transpose<Eigen::Matrix<float,1,600,1,1,600> const > const ,Eigen::Matrix<float,600,1,0,600,1> const >,Eigen::internal::IndexBased,Eigen::internal::IndexBased,float,float>::coeff
PUBLIC	?extract@?$blas_traits@V?$Matrix@M$0CFI@$0CFI@$0A@$0CFI@$0CFI@@Eigen@@@internal@Eigen@@SAAEBV?$Matrix@M$0CFI@$0CFI@$0A@$0CFI@$0CFI@@3@AEBV43@@Z ; Eigen::internal::blas_traits<Eigen::Matrix<float,600,600,0,600,600> >::extract
PUBLIC	?extractScalarFactor@?$blas_traits@V?$Matrix@M$0CFI@$0CFI@$0A@$0CFI@$0CFI@@Eigen@@@internal@Eigen@@SA?BMAEBV?$Matrix@M$0CFI@$0CFI@$0A@$0CFI@$0CFI@@3@@Z ; Eigen::internal::blas_traits<Eigen::Matrix<float,600,600,0,600,600> >::extractScalarFactor
PUBLIC	?extract@?$blas_traits@V?$Matrix@M$0CFI@$00$0A@$0CFI@$00@Eigen@@@internal@Eigen@@SAAEBV?$Matrix@M$0CFI@$00$0A@$0CFI@$00@3@AEBV43@@Z ; Eigen::internal::blas_traits<Eigen::Matrix<float,600,1,0,600,1> >::extract
PUBLIC	?extractScalarFactor@?$blas_traits@V?$Matrix@M$0CFI@$00$0A@$0CFI@$00@Eigen@@@internal@Eigen@@SA?BMAEBV?$Matrix@M$0CFI@$00$0A@$0CFI@$00@3@@Z ; Eigen::internal::blas_traits<Eigen::Matrix<float,600,1,0,600,1> >::extractScalarFactor
PUBLIC	?run@?$get_factor@MM@internal@Eigen@@SAMAEBM@Z	; Eigen::internal::get_factor<float,float>::run
PUBLIC	??0?$const_blas_data_mapper@M_J$0A@@internal@Eigen@@QEAA@PEBM_J@Z ; Eigen::internal::const_blas_data_mapper<float,__int64,0>::const_blas_data_mapper<float,__int64,0>
PUBLIC	??0?$const_blas_data_mapper@M_J$00@internal@Eigen@@QEAA@PEBM_J@Z ; Eigen::internal::const_blas_data_mapper<float,__int64,1>::const_blas_data_mapper<float,__int64,1>
PUBLIC	?data@?$gemv_static_vector_if@M$0CFI@$0CFI@$0A@@internal@Eigen@@QEAAPEAMXZ ; Eigen::internal::gemv_static_vector_if<float,600,600,0>::data
PUBLIC	??0?$aligned_stack_memory_handler@M@internal@Eigen@@QEAA@PEAM_K_N@Z ; Eigen::internal::aligned_stack_memory_handler<float>::aligned_stack_memory_handler<float>
PUBLIC	??1?$aligned_stack_memory_handler@M@internal@Eigen@@QEAA@XZ ; Eigen::internal::aligned_stack_memory_handler<float>::~aligned_stack_memory_handler<float>
PUBLIC	??0?$Stride@$0A@$0A@@Eigen@@QEAA@XZ		; Eigen::Stride<0,0>::Stride<0,0>
PUBLIC	??0?$Map@V?$Matrix@M$0?0$00$0A@$0?0$00@Eigen@@$03V?$Stride@$0A@$0A@@2@@Eigen@@QEAA@PEAM_JAEBV?$Stride@$0A@$0A@@1@@Z ; Eigen::Map<Eigen::Matrix<float,-1,1,0,-1,1>,4,Eigen::Stride<0,0> >::Map<Eigen::Matrix<float,-1,1,0,-1,1>,4,Eigen::Stride<0,0> >
PUBLIC	?__autoclassinit2@?$aligned_stack_memory_handler@M@internal@Eigen@@QEAAX_K@Z ; Eigen::internal::aligned_stack_memory_handler<float>::__autoclassinit2
PUBLIC	??$run@_J@?$check_rows_cols_for_overflow@$0CDCI@@internal@Eigen@@SAX_J0@Z ; Eigen::internal::check_rows_cols_for_overflow<9000>::run<__int64>
PUBLIC	??$run@_J@?$check_rows_cols_for_overflow@$0BHHA@@internal@Eigen@@SAX_J0@Z ; Eigen::internal::check_rows_cols_for_overflow<6000>::run<__int64>
PUBLIC	??$run@_J@?$check_rows_cols_for_overflow@$0OBA@@internal@Eigen@@SAX_J0@Z ; Eigen::internal::check_rows_cols_for_overflow<3600>::run<__int64>
PUBLIC	??$run@_J@?$check_rows_cols_for_overflow@$0HAI@@internal@Eigen@@SAX_J0@Z ; Eigen::internal::check_rows_cols_for_overflow<1800>::run<__int64>
PUBLIC	??$coeff@_J@?$evaluator@V?$CwiseNullaryOp@U?$scalar_constant_op@M@internal@Eigen@@V?$Matrix@M$01$0DIE@$0A@$01$0DIE@@3@@Eigen@@@internal@Eigen@@QEBAM_J@Z ; Eigen::internal::evaluator<Eigen::CwiseNullaryOp<Eigen::internal::scalar_constant_op<float>,Eigen::Matrix<float,2,900,0,2,900> > >::coeff<__int64>
PUBLIC	??$coeff@_J@?$evaluator@V?$CwiseNullaryOp@U?$scalar_constant_op@M@internal@Eigen@@V?$Matrix@M$02$0ELA@$0A@$02$0ELA@@3@@Eigen@@@internal@Eigen@@QEBAM_J@Z ; Eigen::internal::evaluator<Eigen::CwiseNullaryOp<Eigen::internal::scalar_constant_op<float>,Eigen::Matrix<float,3,1200,0,3,1200> > >::coeff<__int64>
PUBLIC	??$coeff@_J@?$evaluator@V?$CwiseNullaryOp@U?$scalar_constant_op@M@internal@Eigen@@V?$Matrix@M$04$0HAI@$0A@$04$0HAI@@3@@Eigen@@@internal@Eigen@@QEBAM_J@Z ; Eigen::internal::evaluator<Eigen::CwiseNullaryOp<Eigen::internal::scalar_constant_op<float>,Eigen::Matrix<float,5,1800,0,5,1800> > >::coeff<__int64>
PUBLIC	??$assignPacket@$0BA@$0BA@T__m128@@@?$generic_dense_assignment_kernel@U?$evaluator@V?$Matrix@M$03$0FNM@$0A@$03$0FNM@@Eigen@@@internal@Eigen@@U?$evaluator@V?$CwiseNullaryOp@U?$scalar_constant_op@M@internal@Eigen@@V?$Matrix@M$03$0FNM@$0A@$03$0FNM@@3@@Eigen@@@23@U?$assign_op@MM@23@$0A@@internal@Eigen@@QEAAX_J0@Z ; Eigen::internal::generic_dense_assignment_kernel<Eigen::internal::evaluator<Eigen::Matrix<float,4,1500,0,4,1500> >,Eigen::internal::evaluator<Eigen::CwiseNullaryOp<Eigen::internal::scalar_constant_op<float>,Eigen::Matrix<float,4,1500,0,4,1500> > >,Eigen::internal::assign_op<float,float>,0>::assignPacket<16,16,__m128>
PUBLIC	??$assignPacket@$0BA@$0BA@T__m128@@@?$generic_dense_assignment_kernel@U?$evaluator@V?$Matrix@M$00$0CFI@$00$00$0CFI@@Eigen@@@internal@Eigen@@U?$evaluator@V?$CwiseNullaryOp@U?$scalar_constant_op@M@internal@Eigen@@V?$Matrix@M$00$0CFI@$00$00$0CFI@@3@@Eigen@@@23@U?$assign_op@MM@23@$0A@@internal@Eigen@@QEAAX_J0@Z ; Eigen::internal::generic_dense_assignment_kernel<Eigen::internal::evaluator<Eigen::Matrix<float,1,600,1,1,600> >,Eigen::internal::evaluator<Eigen::CwiseNullaryOp<Eigen::internal::scalar_constant_op<float>,Eigen::Matrix<float,1,600,1,1,600> > >,Eigen::internal::assign_op<float,float>,0>::assignPacket<16,16,__m128>
PUBLIC	??$packet@$0BA@T__m128@@_J@?$evaluator@V?$CwiseNullaryOp@U?$scalar_constant_op@M@internal@Eigen@@V?$Matrix@M$01$0DIE@$0A@$01$0DIE@@3@@Eigen@@@internal@Eigen@@QEBA?AT__m128@@_J@Z ; Eigen::internal::evaluator<Eigen::CwiseNullaryOp<Eigen::internal::scalar_constant_op<float>,Eigen::Matrix<float,2,900,0,2,900> > >::packet<16,__m128,__int64>
PUBLIC	??$packet@$0BA@T__m128@@_J@?$evaluator@V?$CwiseNullaryOp@U?$scalar_constant_op@M@internal@Eigen@@V?$Matrix@M$02$0ELA@$0A@$02$0ELA@@3@@Eigen@@@internal@Eigen@@QEBA?AT__m128@@_J@Z ; Eigen::internal::evaluator<Eigen::CwiseNullaryOp<Eigen::internal::scalar_constant_op<float>,Eigen::Matrix<float,3,1200,0,3,1200> > >::packet<16,__m128,__int64>
PUBLIC	??$packet@$0BA@T__m128@@_J@?$evaluator@V?$CwiseNullaryOp@U?$scalar_constant_op@M@internal@Eigen@@V?$Matrix@M$04$0HAI@$0A@$04$0HAI@@3@@Eigen@@@internal@Eigen@@QEBA?AT__m128@@_J@Z ; Eigen::internal::evaluator<Eigen::CwiseNullaryOp<Eigen::internal::scalar_constant_op<float>,Eigen::Matrix<float,5,1800,0,5,1800> > >::packet<16,__m128,__int64>
PUBLIC	??$run@V?$Matrix@M$0CFI@$0CFI@$0A@$0CFI@$0CFI@@Eigen@@V?$Matrix@M$0CFI@$00$0A@$0CFI@$00@2@V32@@?$gemv_dense_selector@$01$0A@$00@internal@Eigen@@SAXAEBV?$Matrix@M$0CFI@$0CFI@$0A@$0CFI@$0CFI@@2@AEBV?$Matrix@M$0CFI@$00$0A@$0CFI@$00@2@AEAV42@AEBM@Z ; Eigen::internal::gemv_dense_selector<2,0,1>::run<Eigen::Matrix<float,600,600,0,600,600>,Eigen::Matrix<float,600,1,0,600,1>,Eigen::Matrix<float,600,1,0,600,1> >
PUBLIC	??$run@V?$CwiseBinaryOp@U?$scalar_product_op@MM@internal@Eigen@@$$CBV?$Transpose@$$CBV?$Matrix@M$00$0CFI@$00$00$0CFI@@Eigen@@@3@$$CBV?$Matrix@M$0CFI@$00$0A@$0CFI@$00@3@@Eigen@@@?$redux_impl@U?$scalar_sum_op@MM@internal@Eigen@@V?$redux_evaluator@V?$CwiseBinaryOp@U?$scalar_product_op@MM@internal@Eigen@@$$CBV?$Transpose@$$CBV?$Matrix@M$00$0CFI@$00$00$0CFI@@Eigen@@@3@$$CBV?$Matrix@M$0CFI@$00$0A@$0CFI@$00@3@@Eigen@@@23@$02$0A@@internal@Eigen@@SAMAEBV?$redux_evaluator@V?$CwiseBinaryOp@U?$scalar_product_op@MM@internal@Eigen@@$$CBV?$Transpose@$$CBV?$Matrix@M$00$0CFI@$00$00$0CFI@@Eigen@@@3@$$CBV?$Matrix@M$0CFI@$00$0A@$0CFI@$00@3@@Eigen@@@12@AEBU?$scalar_sum_op@MM@12@AEBV?$CwiseBinaryOp@U?$scalar_product_op@MM@internal@Eigen@@$$CBV?$Transpose@$$CBV?$Matrix@M$00$0CFI@$00$00$0CFI@@Eigen@@@3@$$CBV?$Matrix@M$0CFI@$00$0A@$0CFI@$00@3@@2@@Z ; Eigen::internal::redux_impl<Eigen::internal::scalar_sum_op<float,float>,Eigen::internal::redux_evaluator<Eigen::CwiseBinaryOp<Eigen::internal::scalar_product_op<float,float>,Eigen::Transpose<Eigen::Matrix<float,1,600,1,1,600> const > const ,Eigen::Matrix<float,600,1,0,600,1> const > >,3,0>::run<Eigen::CwiseBinaryOp<Eigen::internal::scalar_product_op<float,float>,Eigen::Transpose<Eigen::Matrix<float,1,600,1,1,600> const > const ,Eigen::Matrix<float,600,1,0,600,1> const > >
PUBLIC	??$packetOp@T__m128@@@?$scalar_sum_op@MM@internal@Eigen@@QEBA?AT__m128@@AEBT3@0@Z ; Eigen::internal::scalar_sum_op<float,float>::packetOp<__m128>
PUBLIC	??$?4V?$CwiseNullaryOp@U?$scalar_constant_op@M@internal@Eigen@@V?$Matrix@M$0CFI@$00$0A@$0CFI@$00@3@@Eigen@@@?$Matrix@M$0CFI@$00$0A@$0CFI@$00@Eigen@@QEAAAEAV01@AEBV?$DenseBase@V?$CwiseNullaryOp@U?$scalar_constant_op@M@internal@Eigen@@V?$Matrix@M$0CFI@$00$0A@$0CFI@$00@3@@Eigen@@@1@@Z ; Eigen::Matrix<float,600,1,0,600,1>::operator=<Eigen::CwiseNullaryOp<Eigen::internal::scalar_constant_op<float>,Eigen::Matrix<float,600,1,0,600,1> > >
PUBLIC	?Constant@?$DenseBase@V?$Matrix@M$0CFI@$00$0A@$0CFI@$00@Eigen@@@Eigen@@SA?BV?$CwiseNullaryOp@U?$scalar_constant_op@M@internal@Eigen@@V?$Matrix@M$0CFI@$00$0A@$0CFI@$00@3@@2@_J0AEBM@Z ; Eigen::DenseBase<Eigen::Matrix<float,600,1,0,600,1> >::Constant
PUBLIC	??0?$evaluator@$$CBV?$Matrix@M$00$0CFI@$00$00$0CFI@@Eigen@@@internal@Eigen@@QEAA@AEBV?$Matrix@M$00$0CFI@$00$00$0CFI@@2@@Z ; Eigen::internal::evaluator<Eigen::Matrix<float,1,600,1,1,600> const >::evaluator<Eigen::Matrix<float,1,600,1,1,600> const >
PUBLIC	?nestedExpression@?$Transpose@$$CBV?$Matrix@M$00$0CFI@$00$00$0CFI@@Eigen@@@Eigen@@QEBAAEBV?$Matrix@M$00$0CFI@$00$00$0CFI@@2@XZ ; Eigen::Transpose<Eigen::Matrix<float,1,600,1,1,600> const >::nestedExpression
PUBLIC	??0?$evaluator_base@V?$Transpose@$$CBV?$Matrix@M$00$0CFI@$00$00$0CFI@@Eigen@@@Eigen@@@internal@Eigen@@QEAA@XZ ; Eigen::internal::evaluator_base<Eigen::Transpose<Eigen::Matrix<float,1,600,1,1,600> const > >::evaluator_base<Eigen::Transpose<Eigen::Matrix<float,1,600,1,1,600> const > >
PUBLIC	??0?$unary_evaluator@V?$Transpose@$$CBV?$Matrix@M$00$0CFI@$00$00$0CFI@@Eigen@@@Eigen@@UIndexBased@internal@2@M@internal@Eigen@@QEAA@AEBV?$Transpose@$$CBV?$Matrix@M$00$0CFI@$00$00$0CFI@@Eigen@@@2@@Z ; Eigen::internal::unary_evaluator<Eigen::Transpose<Eigen::Matrix<float,1,600,1,1,600> const >,Eigen::internal::IndexBased,float>::unary_evaluator<Eigen::Transpose<Eigen::Matrix<float,1,600,1,1,600> const >,Eigen::internal::IndexBased,float>
PUBLIC	??0?$evaluator@V?$Transpose@$$CBV?$Matrix@M$00$0CFI@$00$00$0CFI@@Eigen@@@Eigen@@@internal@Eigen@@QEAA@AEBV?$Transpose@$$CBV?$Matrix@M$00$0CFI@$00$00$0CFI@@Eigen@@@2@@Z ; Eigen::internal::evaluator<Eigen::Transpose<Eigen::Matrix<float,1,600,1,1,600> const > >::evaluator<Eigen::Transpose<Eigen::Matrix<float,1,600,1,1,600> const > >
PUBLIC	?lhs@?$CwiseBinaryOp@U?$scalar_product_op@MM@internal@Eigen@@$$CBV?$Transpose@$$CBV?$Matrix@M$00$0CFI@$00$00$0CFI@@Eigen@@@3@$$CBV?$Matrix@M$0CFI@$00$0A@$0CFI@$00@3@@Eigen@@QEBAAEBV?$Transpose@$$CBV?$Matrix@M$00$0CFI@$00$00$0CFI@@Eigen@@@2@XZ ; Eigen::CwiseBinaryOp<Eigen::internal::scalar_product_op<float,float>,Eigen::Transpose<Eigen::Matrix<float,1,600,1,1,600> const > const ,Eigen::Matrix<float,600,1,0,600,1> const >::lhs
PUBLIC	?rhs@?$CwiseBinaryOp@U?$scalar_product_op@MM@internal@Eigen@@$$CBV?$Transpose@$$CBV?$Matrix@M$00$0CFI@$00$00$0CFI@@Eigen@@@3@$$CBV?$Matrix@M$0CFI@$00$0A@$0CFI@$00@3@@Eigen@@QEBAAEBV?$Matrix@M$0CFI@$00$0A@$0CFI@$00@2@XZ ; Eigen::CwiseBinaryOp<Eigen::internal::scalar_product_op<float,float>,Eigen::Transpose<Eigen::Matrix<float,1,600,1,1,600> const > const ,Eigen::Matrix<float,600,1,0,600,1> const >::rhs
PUBLIC	?functor@?$CwiseBinaryOp@U?$scalar_product_op@MM@internal@Eigen@@$$CBV?$Transpose@$$CBV?$Matrix@M$00$0CFI@$00$00$0CFI@@Eigen@@@3@$$CBV?$Matrix@M$0CFI@$00$0A@$0CFI@$00@3@@Eigen@@QEBAAEBU?$scalar_product_op@MM@internal@2@XZ ; Eigen::CwiseBinaryOp<Eigen::internal::scalar_product_op<float,float>,Eigen::Transpose<Eigen::Matrix<float,1,600,1,1,600> const > const ,Eigen::Matrix<float,600,1,0,600,1> const >::functor
PUBLIC	??0?$evaluator@$$CBV?$Transpose@$$CBV?$Matrix@M$00$0CFI@$00$00$0CFI@@Eigen@@@Eigen@@@internal@Eigen@@QEAA@AEBV?$Transpose@$$CBV?$Matrix@M$00$0CFI@$00$00$0CFI@@Eigen@@@2@@Z ; Eigen::internal::evaluator<Eigen::Transpose<Eigen::Matrix<float,1,600,1,1,600> const > const >::evaluator<Eigen::Transpose<Eigen::Matrix<float,1,600,1,1,600> const > const >
PUBLIC	??0?$evaluator_base@V?$CwiseBinaryOp@U?$scalar_product_op@MM@internal@Eigen@@$$CBV?$Transpose@$$CBV?$Matrix@M$00$0CFI@$00$00$0CFI@@Eigen@@@3@$$CBV?$Matrix@M$0CFI@$00$0A@$0CFI@$00@3@@Eigen@@@internal@Eigen@@QEAA@XZ ; Eigen::internal::evaluator_base<Eigen::CwiseBinaryOp<Eigen::internal::scalar_product_op<float,float>,Eigen::Transpose<Eigen::Matrix<float,1,600,1,1,600> const > const ,Eigen::Matrix<float,600,1,0,600,1> const > >::evaluator_base<Eigen::CwiseBinaryOp<Eigen::internal::scalar_product_op<float,float>,Eigen::Transpose<Eigen::Matrix<float,1,600,1,1,600> const > const ,Eigen::Matrix<float,600,1,0,600,1> const > >
PUBLIC	??0Data@?$binary_evaluator@V?$CwiseBinaryOp@U?$scalar_product_op@MM@internal@Eigen@@$$CBV?$Transpose@$$CBV?$Matrix@M$00$0CFI@$00$00$0CFI@@Eigen@@@3@$$CBV?$Matrix@M$0CFI@$00$0A@$0CFI@$00@3@@Eigen@@UIndexBased@internal@2@U342@MM@internal@Eigen@@QEAA@AEBV?$CwiseBinaryOp@U?$scalar_product_op@MM@internal@Eigen@@$$CBV?$Transpose@$$CBV?$Matrix@M$00$0CFI@$00$00$0CFI@@Eigen@@@3@$$CBV?$Matrix@M$0CFI@$00$0A@$0CFI@$00@3@@3@@Z ; Eigen::internal::binary_evaluator<Eigen::CwiseBinaryOp<Eigen::internal::scalar_product_op<float,float>,Eigen::Transpose<Eigen::Matrix<float,1,600,1,1,600> const > const ,Eigen::Matrix<float,600,1,0,600,1> const >,Eigen::internal::IndexBased,Eigen::internal::IndexBased,float,float>::Data::Data
PUBLIC	??0?$binary_evaluator@V?$CwiseBinaryOp@U?$scalar_product_op@MM@internal@Eigen@@$$CBV?$Transpose@$$CBV?$Matrix@M$00$0CFI@$00$00$0CFI@@Eigen@@@3@$$CBV?$Matrix@M$0CFI@$00$0A@$0CFI@$00@3@@Eigen@@UIndexBased@internal@2@U342@MM@internal@Eigen@@QEAA@AEBV?$CwiseBinaryOp@U?$scalar_product_op@MM@internal@Eigen@@$$CBV?$Transpose@$$CBV?$Matrix@M$00$0CFI@$00$00$0CFI@@Eigen@@@3@$$CBV?$Matrix@M$0CFI@$00$0A@$0CFI@$00@3@@2@@Z ; Eigen::internal::binary_evaluator<Eigen::CwiseBinaryOp<Eigen::internal::scalar_product_op<float,float>,Eigen::Transpose<Eigen::Matrix<float,1,600,1,1,600> const > const ,Eigen::Matrix<float,600,1,0,600,1> const >,Eigen::internal::IndexBased,Eigen::internal::IndexBased,float,float>::binary_evaluator<Eigen::CwiseBinaryOp<Eigen::internal::scalar_product_op<float,float>,Eigen::Transpose<Eigen::Matrix<float,1,600,1,1,600> const > const ,Eigen::Matrix<float,600,1,0,600,1> const >,Eigen::internal::IndexBased,Eigen::internal::IndexBased,float,float>
PUBLIC	?resize@?$DenseStorage@M$0CDCI@$04$0HAI@$0A@@Eigen@@QEAAX_J00@Z ; Eigen::DenseStorage<float,9000,5,1800,0>::resize
PUBLIC	?resize@?$DenseStorage@M$0BHHA@$03$0FNM@$0A@@Eigen@@QEAAX_J00@Z ; Eigen::DenseStorage<float,6000,4,1500,0>::resize
PUBLIC	?resize@?$DenseStorage@M$0OBA@$02$0ELA@$0A@@Eigen@@QEAAX_J00@Z ; Eigen::DenseStorage<float,3600,3,1200,0>::resize
PUBLIC	?resize@?$DenseStorage@M$0HAI@$01$0DIE@$0A@@Eigen@@QEAAX_J00@Z ; Eigen::DenseStorage<float,1800,2,900,0>::resize
PUBLIC	?value@?$variable_if_dynamic@_J$0FNM@@internal@Eigen@@SA_JXZ ; Eigen::internal::variable_if_dynamic<__int64,1500>::value
PUBLIC	?value@?$variable_if_dynamic@_J$0ELA@@internal@Eigen@@SA_JXZ ; Eigen::internal::variable_if_dynamic<__int64,1200>::value
PUBLIC	?value@?$variable_if_dynamic@_J$0DIE@@internal@Eigen@@SA_JXZ ; Eigen::internal::variable_if_dynamic<__int64,900>::value
PUBLIC	??0?$evaluator@V?$CwiseBinaryOp@U?$scalar_product_op@MM@internal@Eigen@@$$CBV?$Transpose@$$CBV?$Matrix@M$00$0CFI@$00$00$0CFI@@Eigen@@@3@$$CBV?$Matrix@M$0CFI@$00$0A@$0CFI@$00@3@@Eigen@@@internal@Eigen@@QEAA@AEBV?$CwiseBinaryOp@U?$scalar_product_op@MM@internal@Eigen@@$$CBV?$Transpose@$$CBV?$Matrix@M$00$0CFI@$00$00$0CFI@@Eigen@@@3@$$CBV?$Matrix@M$0CFI@$00$0A@$0CFI@$00@3@@2@@Z ; Eigen::internal::evaluator<Eigen::CwiseBinaryOp<Eigen::internal::scalar_product_op<float,float>,Eigen::Transpose<Eigen::Matrix<float,1,600,1,1,600> const > const ,Eigen::Matrix<float,600,1,0,600,1> const > >::evaluator<Eigen::CwiseBinaryOp<Eigen::internal::scalar_product_op<float,float>,Eigen::Transpose<Eigen::Matrix<float,1,600,1,1,600> const > const ,Eigen::Matrix<float,600,1,0,600,1> const > >
PUBLIC	?resize@?$PlainObjectBase@V?$Matrix@M$04$0HAI@$0A@$04$0HAI@@Eigen@@@Eigen@@QEAAX_J0@Z ; Eigen::PlainObjectBase<Eigen::Matrix<float,5,1800,0,5,1800> >::resize
PUBLIC	?resize@?$PlainObjectBase@V?$Matrix@M$03$0FNM@$0A@$03$0FNM@@Eigen@@@Eigen@@QEAAX_J0@Z ; Eigen::PlainObjectBase<Eigen::Matrix<float,4,1500,0,4,1500> >::resize
PUBLIC	?resize@?$PlainObjectBase@V?$Matrix@M$02$0ELA@$0A@$02$0ELA@@Eigen@@@Eigen@@QEAAX_J0@Z ; Eigen::PlainObjectBase<Eigen::Matrix<float,3,1200,0,3,1200> >::resize
PUBLIC	?resize@?$PlainObjectBase@V?$Matrix@M$01$0DIE@$0A@$01$0DIE@@Eigen@@@Eigen@@QEAAX_J0@Z ; Eigen::PlainObjectBase<Eigen::Matrix<float,2,900,0,2,900> >::resize
PUBLIC	?rows@?$CwiseNullaryOp@U?$scalar_constant_op@M@internal@Eigen@@V?$Matrix@M$04$0HAI@$0A@$04$0HAI@@3@@Eigen@@QEBA_JXZ ; Eigen::CwiseNullaryOp<Eigen::internal::scalar_constant_op<float>,Eigen::Matrix<float,5,1800,0,5,1800> >::rows
PUBLIC	?cols@?$CwiseNullaryOp@U?$scalar_constant_op@M@internal@Eigen@@V?$Matrix@M$04$0HAI@$0A@$04$0HAI@@3@@Eigen@@QEBA_JXZ ; Eigen::CwiseNullaryOp<Eigen::internal::scalar_constant_op<float>,Eigen::Matrix<float,5,1800,0,5,1800> >::cols
PUBLIC	?rows@?$CwiseNullaryOp@U?$scalar_constant_op@M@internal@Eigen@@V?$Matrix@M$03$0FNM@$0A@$03$0FNM@@3@@Eigen@@QEBA_JXZ ; Eigen::CwiseNullaryOp<Eigen::internal::scalar_constant_op<float>,Eigen::Matrix<float,4,1500,0,4,1500> >::rows
PUBLIC	?cols@?$CwiseNullaryOp@U?$scalar_constant_op@M@internal@Eigen@@V?$Matrix@M$03$0FNM@$0A@$03$0FNM@@3@@Eigen@@QEBA_JXZ ; Eigen::CwiseNullaryOp<Eigen::internal::scalar_constant_op<float>,Eigen::Matrix<float,4,1500,0,4,1500> >::cols
PUBLIC	?rows@?$CwiseNullaryOp@U?$scalar_constant_op@M@internal@Eigen@@V?$Matrix@M$02$0ELA@$0A@$02$0ELA@@3@@Eigen@@QEBA_JXZ ; Eigen::CwiseNullaryOp<Eigen::internal::scalar_constant_op<float>,Eigen::Matrix<float,3,1200,0,3,1200> >::rows
PUBLIC	?cols@?$CwiseNullaryOp@U?$scalar_constant_op@M@internal@Eigen@@V?$Matrix@M$02$0ELA@$0A@$02$0ELA@@3@@Eigen@@QEBA_JXZ ; Eigen::CwiseNullaryOp<Eigen::internal::scalar_constant_op<float>,Eigen::Matrix<float,3,1200,0,3,1200> >::cols
PUBLIC	?rows@?$CwiseNullaryOp@U?$scalar_constant_op@M@internal@Eigen@@V?$Matrix@M$01$0DIE@$0A@$01$0DIE@@3@@Eigen@@QEBA_JXZ ; Eigen::CwiseNullaryOp<Eigen::internal::scalar_constant_op<float>,Eigen::Matrix<float,2,900,0,2,900> >::rows
PUBLIC	?cols@?$CwiseNullaryOp@U?$scalar_constant_op@M@internal@Eigen@@V?$Matrix@M$01$0DIE@$0A@$01$0DIE@@3@@Eigen@@QEBA_JXZ ; Eigen::CwiseNullaryOp<Eigen::internal::scalar_constant_op<float>,Eigen::Matrix<float,2,900,0,2,900> >::cols
PUBLIC	?rows@?$CwiseNullaryOp@U?$scalar_constant_op@M@internal@Eigen@@V?$Matrix@M$00$0CFI@$00$00$0CFI@@3@@Eigen@@QEBA_JXZ ; Eigen::CwiseNullaryOp<Eigen::internal::scalar_constant_op<float>,Eigen::Matrix<float,1,600,1,1,600> >::rows
PUBLIC	?cols@?$CwiseNullaryOp@U?$scalar_constant_op@M@internal@Eigen@@V?$Matrix@M$00$0CFI@$00$00$0CFI@@3@@Eigen@@QEBA_JXZ ; Eigen::CwiseNullaryOp<Eigen::internal::scalar_constant_op<float>,Eigen::Matrix<float,1,600,1,1,600> >::cols
PUBLIC	?func@Data@?$binary_evaluator@V?$CwiseBinaryOp@U?$scalar_sum_op@MM@internal@Eigen@@$$CBV?$Product@V?$Matrix@M$0CFI@$0CFI@$0A@$0CFI@$0CFI@@Eigen@@V?$Matrix@M$0CFI@$00$0A@$0CFI@$00@2@$0A@@3@$$CBV?$Matrix@M$0CFI@$00$0A@$0CFI@$00@3@@Eigen@@UIndexBased@internal@2@U342@MM@internal@Eigen@@QEBAAEBU?$scalar_sum_op@MM@34@XZ ; Eigen::internal::binary_evaluator<Eigen::CwiseBinaryOp<Eigen::internal::scalar_sum_op<float,float>,Eigen::Product<Eigen::Matrix<float,600,600,0,600,600>,Eigen::Matrix<float,600,1,0,600,1>,0> const ,Eigen::Matrix<float,600,1,0,600,1> const >,Eigen::internal::IndexBased,Eigen::internal::IndexBased,float,float>::Data::func
PUBLIC	?rowIndexByOuterInner@?$generic_dense_assignment_kernel@U?$evaluator@V?$Matrix@M$00$0CFI@$00$00$0CFI@@Eigen@@@internal@Eigen@@U?$evaluator@V?$CwiseNullaryOp@U?$scalar_constant_op@M@internal@Eigen@@V?$Matrix@M$00$0CFI@$00$00$0CFI@@3@@Eigen@@@23@U?$assign_op@MM@23@$0A@@internal@Eigen@@SA_J_J0@Z ; Eigen::internal::generic_dense_assignment_kernel<Eigen::internal::evaluator<Eigen::Matrix<float,1,600,1,1,600> >,Eigen::internal::evaluator<Eigen::CwiseNullaryOp<Eigen::internal::scalar_constant_op<float>,Eigen::Matrix<float,1,600,1,1,600> > >,Eigen::internal::assign_op<float,float>,0>::rowIndexByOuterInner
PUBLIC	?colIndexByOuterInner@?$generic_dense_assignment_kernel@U?$evaluator@V?$Matrix@M$00$0CFI@$00$00$0CFI@@Eigen@@@internal@Eigen@@U?$evaluator@V?$CwiseNullaryOp@U?$scalar_constant_op@M@internal@Eigen@@V?$Matrix@M$00$0CFI@$00$00$0CFI@@3@@Eigen@@@23@U?$assign_op@MM@23@$0A@@internal@Eigen@@SA_J_J0@Z ; Eigen::internal::generic_dense_assignment_kernel<Eigen::internal::evaluator<Eigen::Matrix<float,1,600,1,1,600> >,Eigen::internal::evaluator<Eigen::CwiseNullaryOp<Eigen::internal::scalar_constant_op<float>,Eigen::Matrix<float,1,600,1,1,600> > >,Eigen::internal::assign_op<float,float>,0>::colIndexByOuterInner
PUBLIC	?assignCoeff@?$generic_dense_assignment_kernel@U?$evaluator@V?$Matrix@M$01$0DIE@$0A@$01$0DIE@@Eigen@@@internal@Eigen@@U?$evaluator@V?$CwiseNullaryOp@U?$scalar_constant_op@M@internal@Eigen@@V?$Matrix@M$01$0DIE@$0A@$01$0DIE@@3@@Eigen@@@23@U?$assign_op@MM@23@$0A@@internal@Eigen@@QEAAX_J@Z ; Eigen::internal::generic_dense_assignment_kernel<Eigen::internal::evaluator<Eigen::Matrix<float,2,900,0,2,900> >,Eigen::internal::evaluator<Eigen::CwiseNullaryOp<Eigen::internal::scalar_constant_op<float>,Eigen::Matrix<float,2,900,0,2,900> > >,Eigen::internal::assign_op<float,float>,0>::assignCoeff
PUBLIC	?assignCoeff@?$generic_dense_assignment_kernel@U?$evaluator@V?$Matrix@M$02$0ELA@$0A@$02$0ELA@@Eigen@@@internal@Eigen@@U?$evaluator@V?$CwiseNullaryOp@U?$scalar_constant_op@M@internal@Eigen@@V?$Matrix@M$02$0ELA@$0A@$02$0ELA@@3@@Eigen@@@23@U?$assign_op@MM@23@$0A@@internal@Eigen@@QEAAX_J@Z ; Eigen::internal::generic_dense_assignment_kernel<Eigen::internal::evaluator<Eigen::Matrix<float,3,1200,0,3,1200> >,Eigen::internal::evaluator<Eigen::CwiseNullaryOp<Eigen::internal::scalar_constant_op<float>,Eigen::Matrix<float,3,1200,0,3,1200> > >,Eigen::internal::assign_op<float,float>,0>::assignCoeff
PUBLIC	?rowIndexByOuterInner@?$generic_dense_assignment_kernel@U?$evaluator@V?$Matrix@M$03$0FNM@$0A@$03$0FNM@@Eigen@@@internal@Eigen@@U?$evaluator@V?$CwiseNullaryOp@U?$scalar_constant_op@M@internal@Eigen@@V?$Matrix@M$03$0FNM@$0A@$03$0FNM@@3@@Eigen@@@23@U?$assign_op@MM@23@$0A@@internal@Eigen@@SA_J_J0@Z ; Eigen::internal::generic_dense_assignment_kernel<Eigen::internal::evaluator<Eigen::Matrix<float,4,1500,0,4,1500> >,Eigen::internal::evaluator<Eigen::CwiseNullaryOp<Eigen::internal::scalar_constant_op<float>,Eigen::Matrix<float,4,1500,0,4,1500> > >,Eigen::internal::assign_op<float,float>,0>::rowIndexByOuterInner
PUBLIC	?colIndexByOuterInner@?$generic_dense_assignment_kernel@U?$evaluator@V?$Matrix@M$03$0FNM@$0A@$03$0FNM@@Eigen@@@internal@Eigen@@U?$evaluator@V?$CwiseNullaryOp@U?$scalar_constant_op@M@internal@Eigen@@V?$Matrix@M$03$0FNM@$0A@$03$0FNM@@3@@Eigen@@@23@U?$assign_op@MM@23@$0A@@internal@Eigen@@SA_J_J0@Z ; Eigen::internal::generic_dense_assignment_kernel<Eigen::internal::evaluator<Eigen::Matrix<float,4,1500,0,4,1500> >,Eigen::internal::evaluator<Eigen::CwiseNullaryOp<Eigen::internal::scalar_constant_op<float>,Eigen::Matrix<float,4,1500,0,4,1500> > >,Eigen::internal::assign_op<float,float>,0>::colIndexByOuterInner
PUBLIC	?assignCoeff@?$generic_dense_assignment_kernel@U?$evaluator@V?$Matrix@M$04$0HAI@$0A@$04$0HAI@@Eigen@@@internal@Eigen@@U?$evaluator@V?$CwiseNullaryOp@U?$scalar_constant_op@M@internal@Eigen@@V?$Matrix@M$04$0HAI@$0A@$04$0HAI@@3@@Eigen@@@23@U?$assign_op@MM@23@$0A@@internal@Eigen@@QEAAX_J@Z ; Eigen::internal::generic_dense_assignment_kernel<Eigen::internal::evaluator<Eigen::Matrix<float,5,1800,0,5,1800> >,Eigen::internal::evaluator<Eigen::CwiseNullaryOp<Eigen::internal::scalar_constant_op<float>,Eigen::Matrix<float,5,1800,0,5,1800> > >,Eigen::internal::assign_op<float,float>,0>::assignCoeff
PUBLIC	??1?$evaluator_base@V?$CwiseBinaryOp@U?$scalar_product_op@MM@internal@Eigen@@$$CBV?$Transpose@$$CBV?$Matrix@M$00$0CFI@$00$00$0CFI@@Eigen@@@3@$$CBV?$Matrix@M$0CFI@$00$0A@$0CFI@$00@3@@Eigen@@@internal@Eigen@@QEAA@XZ ; Eigen::internal::evaluator_base<Eigen::CwiseBinaryOp<Eigen::internal::scalar_product_op<float,float>,Eigen::Transpose<Eigen::Matrix<float,1,600,1,1,600> const > const ,Eigen::Matrix<float,600,1,0,600,1> const > >::~evaluator_base<Eigen::CwiseBinaryOp<Eigen::internal::scalar_product_op<float,float>,Eigen::Transpose<Eigen::Matrix<float,1,600,1,1,600> const > const ,Eigen::Matrix<float,600,1,0,600,1> const > >
PUBLIC	??1?$evaluator_base@V?$Transpose@$$CBV?$Matrix@M$00$0CFI@$00$00$0CFI@@Eigen@@@Eigen@@@internal@Eigen@@QEAA@XZ ; Eigen::internal::evaluator_base<Eigen::Transpose<Eigen::Matrix<float,1,600,1,1,600> const > >::~evaluator_base<Eigen::Transpose<Eigen::Matrix<float,1,600,1,1,600> const > >
PUBLIC	??0?$redux_evaluator@V?$CwiseBinaryOp@U?$scalar_product_op@MM@internal@Eigen@@$$CBV?$Transpose@$$CBV?$Matrix@M$00$0CFI@$00$00$0CFI@@Eigen@@@3@$$CBV?$Matrix@M$0CFI@$00$0A@$0CFI@$00@3@@Eigen@@@internal@Eigen@@QEAA@AEBV?$CwiseBinaryOp@U?$scalar_product_op@MM@internal@Eigen@@$$CBV?$Transpose@$$CBV?$Matrix@M$00$0CFI@$00$00$0CFI@@Eigen@@@3@$$CBV?$Matrix@M$0CFI@$00$0A@$0CFI@$00@3@@2@@Z ; Eigen::internal::redux_evaluator<Eigen::CwiseBinaryOp<Eigen::internal::scalar_product_op<float,float>,Eigen::Transpose<Eigen::Matrix<float,1,600,1,1,600> const > const ,Eigen::Matrix<float,600,1,0,600,1> const > >::redux_evaluator<Eigen::CwiseBinaryOp<Eigen::internal::scalar_product_op<float,float>,Eigen::Transpose<Eigen::Matrix<float,1,600,1,1,600> const > const ,Eigen::Matrix<float,600,1,0,600,1> const > >
PUBLIC	??1?$evaluator@$$CBV?$Matrix@M$00$0CFI@$00$00$0CFI@@Eigen@@@internal@Eigen@@QEAA@XZ ; Eigen::internal::evaluator<Eigen::Matrix<float,1,600,1,1,600> const >::~evaluator<Eigen::Matrix<float,1,600,1,1,600> const >
PUBLIC	??1?$unary_evaluator@V?$Transpose@$$CBV?$Matrix@M$00$0CFI@$00$00$0CFI@@Eigen@@@Eigen@@UIndexBased@internal@2@M@internal@Eigen@@QEAA@XZ ; Eigen::internal::unary_evaluator<Eigen::Transpose<Eigen::Matrix<float,1,600,1,1,600> const >,Eigen::internal::IndexBased,float>::~unary_evaluator<Eigen::Transpose<Eigen::Matrix<float,1,600,1,1,600> const >,Eigen::internal::IndexBased,float>
PUBLIC	??1?$evaluator@V?$Transpose@$$CBV?$Matrix@M$00$0CFI@$00$00$0CFI@@Eigen@@@Eigen@@@internal@Eigen@@QEAA@XZ ; Eigen::internal::evaluator<Eigen::Transpose<Eigen::Matrix<float,1,600,1,1,600> const > >::~evaluator<Eigen::Transpose<Eigen::Matrix<float,1,600,1,1,600> const > >
PUBLIC	??1?$evaluator@$$CBV?$Transpose@$$CBV?$Matrix@M$00$0CFI@$00$00$0CFI@@Eigen@@@Eigen@@@internal@Eigen@@QEAA@XZ ; Eigen::internal::evaluator<Eigen::Transpose<Eigen::Matrix<float,1,600,1,1,600> const > const >::~evaluator<Eigen::Transpose<Eigen::Matrix<float,1,600,1,1,600> const > const >
PUBLIC	??1Data@?$binary_evaluator@V?$CwiseBinaryOp@U?$scalar_product_op@MM@internal@Eigen@@$$CBV?$Transpose@$$CBV?$Matrix@M$00$0CFI@$00$00$0CFI@@Eigen@@@3@$$CBV?$Matrix@M$0CFI@$00$0A@$0CFI@$00@3@@Eigen@@UIndexBased@internal@2@U342@MM@internal@Eigen@@QEAA@XZ ; Eigen::internal::binary_evaluator<Eigen::CwiseBinaryOp<Eigen::internal::scalar_product_op<float,float>,Eigen::Transpose<Eigen::Matrix<float,1,600,1,1,600> const > const ,Eigen::Matrix<float,600,1,0,600,1> const >,Eigen::internal::IndexBased,Eigen::internal::IndexBased,float,float>::Data::~Data
PUBLIC	??1?$binary_evaluator@V?$CwiseBinaryOp@U?$scalar_product_op@MM@internal@Eigen@@$$CBV?$Transpose@$$CBV?$Matrix@M$00$0CFI@$00$00$0CFI@@Eigen@@@3@$$CBV?$Matrix@M$0CFI@$00$0A@$0CFI@$00@3@@Eigen@@UIndexBased@internal@2@U342@MM@internal@Eigen@@QEAA@XZ ; Eigen::internal::binary_evaluator<Eigen::CwiseBinaryOp<Eigen::internal::scalar_product_op<float,float>,Eigen::Transpose<Eigen::Matrix<float,1,600,1,1,600> const > const ,Eigen::Matrix<float,600,1,0,600,1> const >,Eigen::internal::IndexBased,Eigen::internal::IndexBased,float,float>::~binary_evaluator<Eigen::CwiseBinaryOp<Eigen::internal::scalar_product_op<float,float>,Eigen::Transpose<Eigen::Matrix<float,1,600,1,1,600> const > const ,Eigen::Matrix<float,600,1,0,600,1> const >,Eigen::internal::IndexBased,Eigen::internal::IndexBased,float,float>
PUBLIC	??1?$evaluator@V?$CwiseBinaryOp@U?$scalar_product_op@MM@internal@Eigen@@$$CBV?$Transpose@$$CBV?$Matrix@M$00$0CFI@$00$00$0CFI@@Eigen@@@3@$$CBV?$Matrix@M$0CFI@$00$0A@$0CFI@$00@3@@Eigen@@@internal@Eigen@@QEAA@XZ ; Eigen::internal::evaluator<Eigen::CwiseBinaryOp<Eigen::internal::scalar_product_op<float,float>,Eigen::Transpose<Eigen::Matrix<float,1,600,1,1,600> const > const ,Eigen::Matrix<float,600,1,0,600,1> const > >::~evaluator<Eigen::CwiseBinaryOp<Eigen::internal::scalar_product_op<float,float>,Eigen::Transpose<Eigen::Matrix<float,1,600,1,1,600> const > const ,Eigen::Matrix<float,600,1,0,600,1> const > >
PUBLIC	??1?$redux_evaluator@V?$CwiseBinaryOp@U?$scalar_product_op@MM@internal@Eigen@@$$CBV?$Transpose@$$CBV?$Matrix@M$00$0CFI@$00$00$0CFI@@Eigen@@@3@$$CBV?$Matrix@M$0CFI@$00$0A@$0CFI@$00@3@@Eigen@@@internal@Eigen@@QEAA@XZ ; Eigen::internal::redux_evaluator<Eigen::CwiseBinaryOp<Eigen::internal::scalar_product_op<float,float>,Eigen::Transpose<Eigen::Matrix<float,1,600,1,1,600> const > const ,Eigen::Matrix<float,600,1,0,600,1> const > >::~redux_evaluator<Eigen::CwiseBinaryOp<Eigen::internal::scalar_product_op<float,float>,Eigen::Transpose<Eigen::Matrix<float,1,600,1,1,600> const > const ,Eigen::Matrix<float,600,1,0,600,1> const > >
PUBLIC	??$assignPacketByOuterInner@$0BA@$0BA@T__m128@@@?$generic_dense_assignment_kernel@U?$evaluator@V?$Matrix@M$03$0FNM@$0A@$03$0FNM@@Eigen@@@internal@Eigen@@U?$evaluator@V?$CwiseNullaryOp@U?$scalar_constant_op@M@internal@Eigen@@V?$Matrix@M$03$0FNM@$0A@$03$0FNM@@3@@Eigen@@@23@U?$assign_op@MM@23@$0A@@internal@Eigen@@QEAAX_J0@Z ; Eigen::internal::generic_dense_assignment_kernel<Eigen::internal::evaluator<Eigen::Matrix<float,4,1500,0,4,1500> >,Eigen::internal::evaluator<Eigen::CwiseNullaryOp<Eigen::internal::scalar_constant_op<float>,Eigen::Matrix<float,4,1500,0,4,1500> > >,Eigen::internal::assign_op<float,float>,0>::assignPacketByOuterInner<16,16,__m128>
PUBLIC	??$assignPacketByOuterInner@$0BA@$0BA@T__m128@@@?$generic_dense_assignment_kernel@U?$evaluator@V?$Matrix@M$00$0CFI@$00$00$0CFI@@Eigen@@@internal@Eigen@@U?$evaluator@V?$CwiseNullaryOp@U?$scalar_constant_op@M@internal@Eigen@@V?$Matrix@M$00$0CFI@$00$00$0CFI@@3@@Eigen@@@23@U?$assign_op@MM@23@$0A@@internal@Eigen@@QEAAX_J0@Z ; Eigen::internal::generic_dense_assignment_kernel<Eigen::internal::evaluator<Eigen::Matrix<float,1,600,1,1,600> >,Eigen::internal::evaluator<Eigen::CwiseNullaryOp<Eigen::internal::scalar_constant_op<float>,Eigen::Matrix<float,1,600,1,1,600> > >,Eigen::internal::assign_op<float,float>,0>::assignPacketByOuterInner<16,16,__m128>
PUBLIC	??$run@V?$generic_dense_assignment_kernel@U?$evaluator@V?$Matrix@M$01$0DIE@$0A@$01$0DIE@@Eigen@@@internal@Eigen@@U?$evaluator@V?$CwiseNullaryOp@U?$scalar_constant_op@M@internal@Eigen@@V?$Matrix@M$01$0DIE@$0A@$01$0DIE@@3@@Eigen@@@23@U?$assign_op@MM@23@$0A@@internal@Eigen@@@?$unaligned_dense_assignment_loop@$0A@@internal@Eigen@@SAXAEAV?$generic_dense_assignment_kernel@U?$evaluator@V?$Matrix@M$01$0DIE@$0A@$01$0DIE@@Eigen@@@internal@Eigen@@U?$evaluator@V?$CwiseNullaryOp@U?$scalar_constant_op@M@internal@Eigen@@V?$Matrix@M$01$0DIE@$0A@$01$0DIE@@3@@Eigen@@@23@U?$assign_op@MM@23@$0A@@12@_J1@Z ; Eigen::internal::unaligned_dense_assignment_loop<0>::run<Eigen::internal::generic_dense_assignment_kernel<Eigen::internal::evaluator<Eigen::Matrix<float,2,900,0,2,900> >,Eigen::internal::evaluator<Eigen::CwiseNullaryOp<Eigen::internal::scalar_constant_op<float>,Eigen::Matrix<float,2,900,0,2,900> > >,Eigen::internal::assign_op<float,float>,0> >
PUBLIC	??$assignPacket@$0BA@$0BA@T__m128@@@?$generic_dense_assignment_kernel@U?$evaluator@V?$Matrix@M$01$0DIE@$0A@$01$0DIE@@Eigen@@@internal@Eigen@@U?$evaluator@V?$CwiseNullaryOp@U?$scalar_constant_op@M@internal@Eigen@@V?$Matrix@M$01$0DIE@$0A@$01$0DIE@@3@@Eigen@@@23@U?$assign_op@MM@23@$0A@@internal@Eigen@@QEAAX_J@Z ; Eigen::internal::generic_dense_assignment_kernel<Eigen::internal::evaluator<Eigen::Matrix<float,2,900,0,2,900> >,Eigen::internal::evaluator<Eigen::CwiseNullaryOp<Eigen::internal::scalar_constant_op<float>,Eigen::Matrix<float,2,900,0,2,900> > >,Eigen::internal::assign_op<float,float>,0>::assignPacket<16,16,__m128>
PUBLIC	??$run@V?$generic_dense_assignment_kernel@U?$evaluator@V?$Matrix@M$01$0DIE@$0A@$01$0DIE@@Eigen@@@internal@Eigen@@U?$evaluator@V?$CwiseNullaryOp@U?$scalar_constant_op@M@internal@Eigen@@V?$Matrix@M$01$0DIE@$0A@$01$0DIE@@3@@Eigen@@@23@U?$assign_op@MM@23@$0A@@internal@Eigen@@@?$unaligned_dense_assignment_loop@$00@internal@Eigen@@SAXAEAV?$generic_dense_assignment_kernel@U?$evaluator@V?$Matrix@M$01$0DIE@$0A@$01$0DIE@@Eigen@@@internal@Eigen@@U?$evaluator@V?$CwiseNullaryOp@U?$scalar_constant_op@M@internal@Eigen@@V?$Matrix@M$01$0DIE@$0A@$01$0DIE@@3@@Eigen@@@23@U?$assign_op@MM@23@$0A@@12@_J1@Z ; Eigen::internal::unaligned_dense_assignment_loop<1>::run<Eigen::internal::generic_dense_assignment_kernel<Eigen::internal::evaluator<Eigen::Matrix<float,2,900,0,2,900> >,Eigen::internal::evaluator<Eigen::CwiseNullaryOp<Eigen::internal::scalar_constant_op<float>,Eigen::Matrix<float,2,900,0,2,900> > >,Eigen::internal::assign_op<float,float>,0> >
PUBLIC	??$run@V?$generic_dense_assignment_kernel@U?$evaluator@V?$Matrix@M$02$0ELA@$0A@$02$0ELA@@Eigen@@@internal@Eigen@@U?$evaluator@V?$CwiseNullaryOp@U?$scalar_constant_op@M@internal@Eigen@@V?$Matrix@M$02$0ELA@$0A@$02$0ELA@@3@@Eigen@@@23@U?$assign_op@MM@23@$0A@@internal@Eigen@@@?$unaligned_dense_assignment_loop@$0A@@internal@Eigen@@SAXAEAV?$generic_dense_assignment_kernel@U?$evaluator@V?$Matrix@M$02$0ELA@$0A@$02$0ELA@@Eigen@@@internal@Eigen@@U?$evaluator@V?$CwiseNullaryOp@U?$scalar_constant_op@M@internal@Eigen@@V?$Matrix@M$02$0ELA@$0A@$02$0ELA@@3@@Eigen@@@23@U?$assign_op@MM@23@$0A@@12@_J1@Z ; Eigen::internal::unaligned_dense_assignment_loop<0>::run<Eigen::internal::generic_dense_assignment_kernel<Eigen::internal::evaluator<Eigen::Matrix<float,3,1200,0,3,1200> >,Eigen::internal::evaluator<Eigen::CwiseNullaryOp<Eigen::internal::scalar_constant_op<float>,Eigen::Matrix<float,3,1200,0,3,1200> > >,Eigen::internal::assign_op<float,float>,0> >
PUBLIC	??$assignPacket@$0BA@$0BA@T__m128@@@?$generic_dense_assignment_kernel@U?$evaluator@V?$Matrix@M$02$0ELA@$0A@$02$0ELA@@Eigen@@@internal@Eigen@@U?$evaluator@V?$CwiseNullaryOp@U?$scalar_constant_op@M@internal@Eigen@@V?$Matrix@M$02$0ELA@$0A@$02$0ELA@@3@@Eigen@@@23@U?$assign_op@MM@23@$0A@@internal@Eigen@@QEAAX_J@Z ; Eigen::internal::generic_dense_assignment_kernel<Eigen::internal::evaluator<Eigen::Matrix<float,3,1200,0,3,1200> >,Eigen::internal::evaluator<Eigen::CwiseNullaryOp<Eigen::internal::scalar_constant_op<float>,Eigen::Matrix<float,3,1200,0,3,1200> > >,Eigen::internal::assign_op<float,float>,0>::assignPacket<16,16,__m128>
PUBLIC	??$run@V?$generic_dense_assignment_kernel@U?$evaluator@V?$Matrix@M$02$0ELA@$0A@$02$0ELA@@Eigen@@@internal@Eigen@@U?$evaluator@V?$CwiseNullaryOp@U?$scalar_constant_op@M@internal@Eigen@@V?$Matrix@M$02$0ELA@$0A@$02$0ELA@@3@@Eigen@@@23@U?$assign_op@MM@23@$0A@@internal@Eigen@@@?$unaligned_dense_assignment_loop@$00@internal@Eigen@@SAXAEAV?$generic_dense_assignment_kernel@U?$evaluator@V?$Matrix@M$02$0ELA@$0A@$02$0ELA@@Eigen@@@internal@Eigen@@U?$evaluator@V?$CwiseNullaryOp@U?$scalar_constant_op@M@internal@Eigen@@V?$Matrix@M$02$0ELA@$0A@$02$0ELA@@3@@Eigen@@@23@U?$assign_op@MM@23@$0A@@12@_J1@Z ; Eigen::internal::unaligned_dense_assignment_loop<1>::run<Eigen::internal::generic_dense_assignment_kernel<Eigen::internal::evaluator<Eigen::Matrix<float,3,1200,0,3,1200> >,Eigen::internal::evaluator<Eigen::CwiseNullaryOp<Eigen::internal::scalar_constant_op<float>,Eigen::Matrix<float,3,1200,0,3,1200> > >,Eigen::internal::assign_op<float,float>,0> >
PUBLIC	??$run@V?$generic_dense_assignment_kernel@U?$evaluator@V?$Matrix@M$04$0HAI@$0A@$04$0HAI@@Eigen@@@internal@Eigen@@U?$evaluator@V?$CwiseNullaryOp@U?$scalar_constant_op@M@internal@Eigen@@V?$Matrix@M$04$0HAI@$0A@$04$0HAI@@3@@Eigen@@@23@U?$assign_op@MM@23@$0A@@internal@Eigen@@@?$unaligned_dense_assignment_loop@$0A@@internal@Eigen@@SAXAEAV?$generic_dense_assignment_kernel@U?$evaluator@V?$Matrix@M$04$0HAI@$0A@$04$0HAI@@Eigen@@@internal@Eigen@@U?$evaluator@V?$CwiseNullaryOp@U?$scalar_constant_op@M@internal@Eigen@@V?$Matrix@M$04$0HAI@$0A@$04$0HAI@@3@@Eigen@@@23@U?$assign_op@MM@23@$0A@@12@_J1@Z ; Eigen::internal::unaligned_dense_assignment_loop<0>::run<Eigen::internal::generic_dense_assignment_kernel<Eigen::internal::evaluator<Eigen::Matrix<float,5,1800,0,5,1800> >,Eigen::internal::evaluator<Eigen::CwiseNullaryOp<Eigen::internal::scalar_constant_op<float>,Eigen::Matrix<float,5,1800,0,5,1800> > >,Eigen::internal::assign_op<float,float>,0> >
PUBLIC	??$assignPacket@$0BA@$0BA@T__m128@@@?$generic_dense_assignment_kernel@U?$evaluator@V?$Matrix@M$04$0HAI@$0A@$04$0HAI@@Eigen@@@internal@Eigen@@U?$evaluator@V?$CwiseNullaryOp@U?$scalar_constant_op@M@internal@Eigen@@V?$Matrix@M$04$0HAI@$0A@$04$0HAI@@3@@Eigen@@@23@U?$assign_op@MM@23@$0A@@internal@Eigen@@QEAAX_J@Z ; Eigen::internal::generic_dense_assignment_kernel<Eigen::internal::evaluator<Eigen::Matrix<float,5,1800,0,5,1800> >,Eigen::internal::evaluator<Eigen::CwiseNullaryOp<Eigen::internal::scalar_constant_op<float>,Eigen::Matrix<float,5,1800,0,5,1800> > >,Eigen::internal::assign_op<float,float>,0>::assignPacket<16,16,__m128>
PUBLIC	??$run@V?$generic_dense_assignment_kernel@U?$evaluator@V?$Matrix@M$04$0HAI@$0A@$04$0HAI@@Eigen@@@internal@Eigen@@U?$evaluator@V?$CwiseNullaryOp@U?$scalar_constant_op@M@internal@Eigen@@V?$Matrix@M$04$0HAI@$0A@$04$0HAI@@3@@Eigen@@@23@U?$assign_op@MM@23@$0A@@internal@Eigen@@@?$unaligned_dense_assignment_loop@$00@internal@Eigen@@SAXAEAV?$generic_dense_assignment_kernel@U?$evaluator@V?$Matrix@M$04$0HAI@$0A@$04$0HAI@@Eigen@@@internal@Eigen@@U?$evaluator@V?$CwiseNullaryOp@U?$scalar_constant_op@M@internal@Eigen@@V?$Matrix@M$04$0HAI@$0A@$04$0HAI@@3@@Eigen@@@23@U?$assign_op@MM@23@$0A@@12@_J1@Z ; Eigen::internal::unaligned_dense_assignment_loop<1>::run<Eigen::internal::generic_dense_assignment_kernel<Eigen::internal::evaluator<Eigen::Matrix<float,5,1800,0,5,1800> >,Eigen::internal::evaluator<Eigen::CwiseNullaryOp<Eigen::internal::scalar_constant_op<float>,Eigen::Matrix<float,5,1800,0,5,1800> > >,Eigen::internal::assign_op<float,float>,0> >
PUBLIC	??$resize_if_allowed@V?$Matrix@M$04$0HAI@$0A@$04$0HAI@@Eigen@@V?$CwiseNullaryOp@U?$scalar_constant_op@M@internal@Eigen@@V?$Matrix@M$04$0HAI@$0A@$04$0HAI@@3@@2@MM@internal@Eigen@@YAXAEAV?$Matrix@M$04$0HAI@$0A@$04$0HAI@@1@AEBV?$CwiseNullaryOp@U?$scalar_constant_op@M@internal@Eigen@@V?$Matrix@M$04$0HAI@$0A@$04$0HAI@@3@@1@AEBU?$assign_op@MM@01@@Z ; Eigen::internal::resize_if_allowed<Eigen::Matrix<float,5,1800,0,5,1800>,Eigen::CwiseNullaryOp<Eigen::internal::scalar_constant_op<float>,Eigen::Matrix<float,5,1800,0,5,1800> >,float,float>
PUBLIC	??$resize_if_allowed@V?$Matrix@M$03$0FNM@$0A@$03$0FNM@@Eigen@@V?$CwiseNullaryOp@U?$scalar_constant_op@M@internal@Eigen@@V?$Matrix@M$03$0FNM@$0A@$03$0FNM@@3@@2@MM@internal@Eigen@@YAXAEAV?$Matrix@M$03$0FNM@$0A@$03$0FNM@@1@AEBV?$CwiseNullaryOp@U?$scalar_constant_op@M@internal@Eigen@@V?$Matrix@M$03$0FNM@$0A@$03$0FNM@@3@@1@AEBU?$assign_op@MM@01@@Z ; Eigen::internal::resize_if_allowed<Eigen::Matrix<float,4,1500,0,4,1500>,Eigen::CwiseNullaryOp<Eigen::internal::scalar_constant_op<float>,Eigen::Matrix<float,4,1500,0,4,1500> >,float,float>
PUBLIC	??$resize_if_allowed@V?$Matrix@M$02$0ELA@$0A@$02$0ELA@@Eigen@@V?$CwiseNullaryOp@U?$scalar_constant_op@M@internal@Eigen@@V?$Matrix@M$02$0ELA@$0A@$02$0ELA@@3@@2@MM@internal@Eigen@@YAXAEAV?$Matrix@M$02$0ELA@$0A@$02$0ELA@@1@AEBV?$CwiseNullaryOp@U?$scalar_constant_op@M@internal@Eigen@@V?$Matrix@M$02$0ELA@$0A@$02$0ELA@@3@@1@AEBU?$assign_op@MM@01@@Z ; Eigen::internal::resize_if_allowed<Eigen::Matrix<float,3,1200,0,3,1200>,Eigen::CwiseNullaryOp<Eigen::internal::scalar_constant_op<float>,Eigen::Matrix<float,3,1200,0,3,1200> >,float,float>
PUBLIC	??$resize_if_allowed@V?$Matrix@M$01$0DIE@$0A@$01$0DIE@@Eigen@@V?$CwiseNullaryOp@U?$scalar_constant_op@M@internal@Eigen@@V?$Matrix@M$01$0DIE@$0A@$01$0DIE@@3@@2@MM@internal@Eigen@@YAXAEAV?$Matrix@M$01$0DIE@$0A@$01$0DIE@@1@AEBV?$CwiseNullaryOp@U?$scalar_constant_op@M@internal@Eigen@@V?$Matrix@M$01$0DIE@$0A@$01$0DIE@@3@@1@AEBU?$assign_op@MM@01@@Z ; Eigen::internal::resize_if_allowed<Eigen::Matrix<float,2,900,0,2,900>,Eigen::CwiseNullaryOp<Eigen::internal::scalar_constant_op<float>,Eigen::Matrix<float,2,900,0,2,900> >,float,float>
PUBLIC	??$resize_if_allowed@V?$Matrix@M$00$0CFI@$00$00$0CFI@@Eigen@@V?$CwiseNullaryOp@U?$scalar_constant_op@M@internal@Eigen@@V?$Matrix@M$00$0CFI@$00$00$0CFI@@3@@2@MM@internal@Eigen@@YAXAEAV?$Matrix@M$00$0CFI@$00$00$0CFI@@1@AEBV?$CwiseNullaryOp@U?$scalar_constant_op@M@internal@Eigen@@V?$Matrix@M$00$0CFI@$00$00$0CFI@@3@@1@AEBU?$assign_op@MM@01@@Z ; Eigen::internal::resize_if_allowed<Eigen::Matrix<float,1,600,1,1,600>,Eigen::CwiseNullaryOp<Eigen::internal::scalar_constant_op<float>,Eigen::Matrix<float,1,600,1,1,600> >,float,float>
PUBLIC	??$scaleAndAddTo@V?$Matrix@M$0CFI@$00$0A@$0CFI@$00@Eigen@@@?$generic_product_impl@V?$Matrix@M$0CFI@$0CFI@$0A@$0CFI@$0CFI@@Eigen@@V?$Matrix@M$0CFI@$00$0A@$0CFI@$00@2@UDenseShape@2@U42@$06@internal@Eigen@@SAXAEAV?$Matrix@M$0CFI@$00$0A@$0CFI@$00@2@AEBV?$Matrix@M$0CFI@$0CFI@$0A@$0CFI@$0CFI@@2@AEBV32@AEBM@Z ; Eigen::internal::generic_product_impl<Eigen::Matrix<float,600,600,0,600,600>,Eigen::Matrix<float,600,1,0,600,1>,Eigen::DenseShape,Eigen::DenseShape,7>::scaleAndAddTo<Eigen::Matrix<float,600,1,0,600,1> >
PUBLIC	??$redux@U?$scalar_sum_op@MM@internal@Eigen@@@?$DenseBase@V?$CwiseBinaryOp@U?$scalar_product_op@MM@internal@Eigen@@$$CBV?$Transpose@$$CBV?$Matrix@M$00$0CFI@$00$00$0CFI@@Eigen@@@3@$$CBV?$Matrix@M$0CFI@$00$0A@$0CFI@$00@3@@Eigen@@@Eigen@@QEBAMAEBU?$scalar_sum_op@MM@internal@1@@Z ; Eigen::DenseBase<Eigen::CwiseBinaryOp<Eigen::internal::scalar_product_op<float,float>,Eigen::Transpose<Eigen::Matrix<float,1,600,1,1,600> const > const ,Eigen::Matrix<float,600,1,0,600,1> const > >::redux<Eigen::internal::scalar_sum_op<float,float> >
PUBLIC	??$packet@$0BA@T__m128@@@?$binary_evaluator@V?$CwiseBinaryOp@U?$scalar_sum_op@MM@internal@Eigen@@$$CBV?$Product@V?$Matrix@M$0CFI@$0CFI@$0A@$0CFI@$0CFI@@Eigen@@V?$Matrix@M$0CFI@$00$0A@$0CFI@$00@2@$0A@@3@$$CBV?$Matrix@M$0CFI@$00$0A@$0CFI@$00@3@@Eigen@@UIndexBased@internal@2@U342@MM@internal@Eigen@@QEBA?AT__m128@@_J0@Z ; Eigen::internal::binary_evaluator<Eigen::CwiseBinaryOp<Eigen::internal::scalar_sum_op<float,float>,Eigen::Product<Eigen::Matrix<float,600,600,0,600,600>,Eigen::Matrix<float,600,1,0,600,1>,0> const ,Eigen::Matrix<float,600,1,0,600,1> const >,Eigen::internal::IndexBased,Eigen::internal::IndexBased,float,float>::packet<16,__m128>
PUBLIC	?setConstant@?$DenseBase@V?$Matrix@M$0CFI@$00$0A@$0CFI@$00@Eigen@@@Eigen@@QEAAAEAV?$Matrix@M$0CFI@$00$0A@$0CFI@$00@2@AEBM@Z ; Eigen::DenseBase<Eigen::Matrix<float,600,1,0,600,1> >::setConstant
PUBLIC	?run@?$copy_using_evaluator_innervec_InnerUnrolling@V?$generic_dense_assignment_kernel@U?$evaluator@V?$Matrix@M$03$0FNM@$0A@$03$0FNM@@Eigen@@@internal@Eigen@@U?$evaluator@V?$CwiseNullaryOp@U?$scalar_constant_op@M@internal@Eigen@@V?$Matrix@M$03$0FNM@$0A@$03$0FNM@@3@@Eigen@@@23@U?$assign_op@MM@23@$0A@@internal@Eigen@@$03$03$0BA@$0BA@@internal@Eigen@@SAXAEAV?$generic_dense_assignment_kernel@U?$evaluator@V?$Matrix@M$03$0FNM@$0A@$03$0FNM@@Eigen@@@internal@Eigen@@U?$evaluator@V?$CwiseNullaryOp@U?$scalar_constant_op@M@internal@Eigen@@V?$Matrix@M$03$0FNM@$0A@$03$0FNM@@3@@Eigen@@@23@U?$assign_op@MM@23@$0A@@23@_J@Z ; Eigen::internal::copy_using_evaluator_innervec_InnerUnrolling<Eigen::internal::generic_dense_assignment_kernel<Eigen::internal::evaluator<Eigen::Matrix<float,4,1500,0,4,1500> >,Eigen::internal::evaluator<Eigen::CwiseNullaryOp<Eigen::internal::scalar_constant_op<float>,Eigen::Matrix<float,4,1500,0,4,1500> > >,Eigen::internal::assign_op<float,float>,0>,4,4,16,16>::run
PUBLIC	?functor@?$CwiseNullaryOp@U?$scalar_constant_op@M@internal@Eigen@@V?$Matrix@M$04$0HAI@$0A@$04$0HAI@@3@@Eigen@@QEBAAEBU?$scalar_constant_op@M@internal@2@XZ ; Eigen::CwiseNullaryOp<Eigen::internal::scalar_constant_op<float>,Eigen::Matrix<float,5,1800,0,5,1800> >::functor
PUBLIC	?functor@?$CwiseNullaryOp@U?$scalar_constant_op@M@internal@Eigen@@V?$Matrix@M$03$0FNM@$0A@$03$0FNM@@3@@Eigen@@QEBAAEBU?$scalar_constant_op@M@internal@2@XZ ; Eigen::CwiseNullaryOp<Eigen::internal::scalar_constant_op<float>,Eigen::Matrix<float,4,1500,0,4,1500> >::functor
PUBLIC	?functor@?$CwiseNullaryOp@U?$scalar_constant_op@M@internal@Eigen@@V?$Matrix@M$02$0ELA@$0A@$02$0ELA@@3@@Eigen@@QEBAAEBU?$scalar_constant_op@M@internal@2@XZ ; Eigen::CwiseNullaryOp<Eigen::internal::scalar_constant_op<float>,Eigen::Matrix<float,3,1200,0,3,1200> >::functor
PUBLIC	?functor@?$CwiseNullaryOp@U?$scalar_constant_op@M@internal@Eigen@@V?$Matrix@M$01$0DIE@$0A@$01$0DIE@@3@@Eigen@@QEBAAEBU?$scalar_constant_op@M@internal@2@XZ ; Eigen::CwiseNullaryOp<Eigen::internal::scalar_constant_op<float>,Eigen::Matrix<float,2,900,0,2,900> >::functor
PUBLIC	?functor@?$CwiseNullaryOp@U?$scalar_constant_op@M@internal@Eigen@@V?$Matrix@M$00$0CFI@$00$00$0CFI@@3@@Eigen@@QEBAAEBU?$scalar_constant_op@M@internal@2@XZ ; Eigen::CwiseNullaryOp<Eigen::internal::scalar_constant_op<float>,Eigen::Matrix<float,1,600,1,1,600> >::functor
PUBLIC	??0?$DenseBase@V?$Transpose@$$CBV?$Matrix@M$00$0CFI@$00$00$0CFI@@Eigen@@@Eigen@@@Eigen@@IEAA@XZ ; Eigen::DenseBase<Eigen::Transpose<Eigen::Matrix<float,1,600,1,1,600> const > >::DenseBase<Eigen::Transpose<Eigen::Matrix<float,1,600,1,1,600> const > >
PUBLIC	??0?$DenseBase@V?$CwiseBinaryOp@U?$scalar_product_op@MM@internal@Eigen@@$$CBV?$Transpose@$$CBV?$Matrix@M$00$0CFI@$00$00$0CFI@@Eigen@@@3@$$CBV?$Matrix@M$0CFI@$00$0A@$0CFI@$00@3@@Eigen@@@Eigen@@IEAA@XZ ; Eigen::DenseBase<Eigen::CwiseBinaryOp<Eigen::internal::scalar_product_op<float,float>,Eigen::Transpose<Eigen::Matrix<float,1,600,1,1,600> const > const ,Eigen::Matrix<float,600,1,0,600,1> const > >::DenseBase<Eigen::CwiseBinaryOp<Eigen::internal::scalar_product_op<float,float>,Eigen::Transpose<Eigen::Matrix<float,1,600,1,1,600> const > const ,Eigen::Matrix<float,600,1,0,600,1> const > >
PUBLIC	??0?$evaluator_base@V?$CwiseNullaryOp@U?$scalar_constant_op@M@internal@Eigen@@V?$Matrix@M$00$0CFI@$00$00$0CFI@@3@@Eigen@@@internal@Eigen@@QEAA@XZ ; Eigen::internal::evaluator_base<Eigen::CwiseNullaryOp<Eigen::internal::scalar_constant_op<float>,Eigen::Matrix<float,1,600,1,1,600> > >::evaluator_base<Eigen::CwiseNullaryOp<Eigen::internal::scalar_constant_op<float>,Eigen::Matrix<float,1,600,1,1,600> > >
PUBLIC	?innerSize@?$generic_dense_assignment_kernel@U?$evaluator@V?$Matrix@M$00$0CFI@$00$00$0CFI@@Eigen@@@internal@Eigen@@U?$evaluator@V?$CwiseNullaryOp@U?$scalar_constant_op@M@internal@Eigen@@V?$Matrix@M$00$0CFI@$00$00$0CFI@@3@@Eigen@@@23@U?$assign_op@MM@23@$0A@@internal@Eigen@@QEBA_JXZ ; Eigen::internal::generic_dense_assignment_kernel<Eigen::internal::evaluator<Eigen::Matrix<float,1,600,1,1,600> >,Eigen::internal::evaluator<Eigen::CwiseNullaryOp<Eigen::internal::scalar_constant_op<float>,Eigen::Matrix<float,1,600,1,1,600> > >,Eigen::internal::assign_op<float,float>,0>::innerSize
PUBLIC	?outerSize@?$generic_dense_assignment_kernel@U?$evaluator@V?$Matrix@M$00$0CFI@$00$00$0CFI@@Eigen@@@internal@Eigen@@U?$evaluator@V?$CwiseNullaryOp@U?$scalar_constant_op@M@internal@Eigen@@V?$Matrix@M$00$0CFI@$00$00$0CFI@@3@@Eigen@@@23@U?$assign_op@MM@23@$0A@@internal@Eigen@@QEBA_JXZ ; Eigen::internal::generic_dense_assignment_kernel<Eigen::internal::evaluator<Eigen::Matrix<float,1,600,1,1,600> >,Eigen::internal::evaluator<Eigen::CwiseNullaryOp<Eigen::internal::scalar_constant_op<float>,Eigen::Matrix<float,1,600,1,1,600> > >,Eigen::internal::assign_op<float,float>,0>::outerSize
PUBLIC	??0?$evaluator_base@V?$CwiseNullaryOp@U?$scalar_constant_op@M@internal@Eigen@@V?$Matrix@M$01$0DIE@$0A@$01$0DIE@@3@@Eigen@@@internal@Eigen@@QEAA@XZ ; Eigen::internal::evaluator_base<Eigen::CwiseNullaryOp<Eigen::internal::scalar_constant_op<float>,Eigen::Matrix<float,2,900,0,2,900> > >::evaluator_base<Eigen::CwiseNullaryOp<Eigen::internal::scalar_constant_op<float>,Eigen::Matrix<float,2,900,0,2,900> > >
PUBLIC	?size@?$generic_dense_assignment_kernel@U?$evaluator@V?$Matrix@M$01$0DIE@$0A@$01$0DIE@@Eigen@@@internal@Eigen@@U?$evaluator@V?$CwiseNullaryOp@U?$scalar_constant_op@M@internal@Eigen@@V?$Matrix@M$01$0DIE@$0A@$01$0DIE@@3@@Eigen@@@23@U?$assign_op@MM@23@$0A@@internal@Eigen@@QEBA_JXZ ; Eigen::internal::generic_dense_assignment_kernel<Eigen::internal::evaluator<Eigen::Matrix<float,2,900,0,2,900> >,Eigen::internal::evaluator<Eigen::CwiseNullaryOp<Eigen::internal::scalar_constant_op<float>,Eigen::Matrix<float,2,900,0,2,900> > >,Eigen::internal::assign_op<float,float>,0>::size
PUBLIC	?dstDataPtr@?$generic_dense_assignment_kernel@U?$evaluator@V?$Matrix@M$01$0DIE@$0A@$01$0DIE@@Eigen@@@internal@Eigen@@U?$evaluator@V?$CwiseNullaryOp@U?$scalar_constant_op@M@internal@Eigen@@V?$Matrix@M$01$0DIE@$0A@$01$0DIE@@3@@Eigen@@@23@U?$assign_op@MM@23@$0A@@internal@Eigen@@QEBAPEBMXZ ; Eigen::internal::generic_dense_assignment_kernel<Eigen::internal::evaluator<Eigen::Matrix<float,2,900,0,2,900> >,Eigen::internal::evaluator<Eigen::CwiseNullaryOp<Eigen::internal::scalar_constant_op<float>,Eigen::Matrix<float,2,900,0,2,900> > >,Eigen::internal::assign_op<float,float>,0>::dstDataPtr
PUBLIC	??0?$evaluator_base@V?$CwiseNullaryOp@U?$scalar_constant_op@M@internal@Eigen@@V?$Matrix@M$02$0ELA@$0A@$02$0ELA@@3@@Eigen@@@internal@Eigen@@QEAA@XZ ; Eigen::internal::evaluator_base<Eigen::CwiseNullaryOp<Eigen::internal::scalar_constant_op<float>,Eigen::Matrix<float,3,1200,0,3,1200> > >::evaluator_base<Eigen::CwiseNullaryOp<Eigen::internal::scalar_constant_op<float>,Eigen::Matrix<float,3,1200,0,3,1200> > >
PUBLIC	?size@?$generic_dense_assignment_kernel@U?$evaluator@V?$Matrix@M$02$0ELA@$0A@$02$0ELA@@Eigen@@@internal@Eigen@@U?$evaluator@V?$CwiseNullaryOp@U?$scalar_constant_op@M@internal@Eigen@@V?$Matrix@M$02$0ELA@$0A@$02$0ELA@@3@@Eigen@@@23@U?$assign_op@MM@23@$0A@@internal@Eigen@@QEBA_JXZ ; Eigen::internal::generic_dense_assignment_kernel<Eigen::internal::evaluator<Eigen::Matrix<float,3,1200,0,3,1200> >,Eigen::internal::evaluator<Eigen::CwiseNullaryOp<Eigen::internal::scalar_constant_op<float>,Eigen::Matrix<float,3,1200,0,3,1200> > >,Eigen::internal::assign_op<float,float>,0>::size
PUBLIC	?dstDataPtr@?$generic_dense_assignment_kernel@U?$evaluator@V?$Matrix@M$02$0ELA@$0A@$02$0ELA@@Eigen@@@internal@Eigen@@U?$evaluator@V?$CwiseNullaryOp@U?$scalar_constant_op@M@internal@Eigen@@V?$Matrix@M$02$0ELA@$0A@$02$0ELA@@3@@Eigen@@@23@U?$assign_op@MM@23@$0A@@internal@Eigen@@QEBAPEBMXZ ; Eigen::internal::generic_dense_assignment_kernel<Eigen::internal::evaluator<Eigen::Matrix<float,3,1200,0,3,1200> >,Eigen::internal::evaluator<Eigen::CwiseNullaryOp<Eigen::internal::scalar_constant_op<float>,Eigen::Matrix<float,3,1200,0,3,1200> > >,Eigen::internal::assign_op<float,float>,0>::dstDataPtr
PUBLIC	??0?$evaluator_base@V?$CwiseNullaryOp@U?$scalar_constant_op@M@internal@Eigen@@V?$Matrix@M$03$0FNM@$0A@$03$0FNM@@3@@Eigen@@@internal@Eigen@@QEAA@XZ ; Eigen::internal::evaluator_base<Eigen::CwiseNullaryOp<Eigen::internal::scalar_constant_op<float>,Eigen::Matrix<float,4,1500,0,4,1500> > >::evaluator_base<Eigen::CwiseNullaryOp<Eigen::internal::scalar_constant_op<float>,Eigen::Matrix<float,4,1500,0,4,1500> > >
PUBLIC	?outerSize@?$generic_dense_assignment_kernel@U?$evaluator@V?$Matrix@M$03$0FNM@$0A@$03$0FNM@@Eigen@@@internal@Eigen@@U?$evaluator@V?$CwiseNullaryOp@U?$scalar_constant_op@M@internal@Eigen@@V?$Matrix@M$03$0FNM@$0A@$03$0FNM@@3@@Eigen@@@23@U?$assign_op@MM@23@$0A@@internal@Eigen@@QEBA_JXZ ; Eigen::internal::generic_dense_assignment_kernel<Eigen::internal::evaluator<Eigen::Matrix<float,4,1500,0,4,1500> >,Eigen::internal::evaluator<Eigen::CwiseNullaryOp<Eigen::internal::scalar_constant_op<float>,Eigen::Matrix<float,4,1500,0,4,1500> > >,Eigen::internal::assign_op<float,float>,0>::outerSize
PUBLIC	??0?$evaluator_base@V?$CwiseNullaryOp@U?$scalar_constant_op@M@internal@Eigen@@V?$Matrix@M$04$0HAI@$0A@$04$0HAI@@3@@Eigen@@@internal@Eigen@@QEAA@XZ ; Eigen::internal::evaluator_base<Eigen::CwiseNullaryOp<Eigen::internal::scalar_constant_op<float>,Eigen::Matrix<float,5,1800,0,5,1800> > >::evaluator_base<Eigen::CwiseNullaryOp<Eigen::internal::scalar_constant_op<float>,Eigen::Matrix<float,5,1800,0,5,1800> > >
PUBLIC	?size@?$generic_dense_assignment_kernel@U?$evaluator@V?$Matrix@M$04$0HAI@$0A@$04$0HAI@@Eigen@@@internal@Eigen@@U?$evaluator@V?$CwiseNullaryOp@U?$scalar_constant_op@M@internal@Eigen@@V?$Matrix@M$04$0HAI@$0A@$04$0HAI@@3@@Eigen@@@23@U?$assign_op@MM@23@$0A@@internal@Eigen@@QEBA_JXZ ; Eigen::internal::generic_dense_assignment_kernel<Eigen::internal::evaluator<Eigen::Matrix<float,5,1800,0,5,1800> >,Eigen::internal::evaluator<Eigen::CwiseNullaryOp<Eigen::internal::scalar_constant_op<float>,Eigen::Matrix<float,5,1800,0,5,1800> > >,Eigen::internal::assign_op<float,float>,0>::size
PUBLIC	?dstDataPtr@?$generic_dense_assignment_kernel@U?$evaluator@V?$Matrix@M$04$0HAI@$0A@$04$0HAI@@Eigen@@@internal@Eigen@@U?$evaluator@V?$CwiseNullaryOp@U?$scalar_constant_op@M@internal@Eigen@@V?$Matrix@M$04$0HAI@$0A@$04$0HAI@@3@@Eigen@@@23@U?$assign_op@MM@23@$0A@@internal@Eigen@@QEBAPEBMXZ ; Eigen::internal::generic_dense_assignment_kernel<Eigen::internal::evaluator<Eigen::Matrix<float,5,1800,0,5,1800> >,Eigen::internal::evaluator<Eigen::CwiseNullaryOp<Eigen::internal::scalar_constant_op<float>,Eigen::Matrix<float,5,1800,0,5,1800> > >,Eigen::internal::assign_op<float,float>,0>::dstDataPtr
PUBLIC	?run@?$copy_using_evaluator_innervec_InnerUnrolling@V?$generic_dense_assignment_kernel@U?$evaluator@V?$Matrix@M$03$0FNM@$0A@$03$0FNM@@Eigen@@@internal@Eigen@@U?$evaluator@V?$CwiseNullaryOp@U?$scalar_constant_op@M@internal@Eigen@@V?$Matrix@M$03$0FNM@$0A@$03$0FNM@@3@@Eigen@@@23@U?$assign_op@MM@23@$0A@@internal@Eigen@@$0A@$03$0BA@$0BA@@internal@Eigen@@SAXAEAV?$generic_dense_assignment_kernel@U?$evaluator@V?$Matrix@M$03$0FNM@$0A@$03$0FNM@@Eigen@@@internal@Eigen@@U?$evaluator@V?$CwiseNullaryOp@U?$scalar_constant_op@M@internal@Eigen@@V?$Matrix@M$03$0FNM@$0A@$03$0FNM@@3@@Eigen@@@23@U?$assign_op@MM@23@$0A@@23@_J@Z ; Eigen::internal::copy_using_evaluator_innervec_InnerUnrolling<Eigen::internal::generic_dense_assignment_kernel<Eigen::internal::evaluator<Eigen::Matrix<float,4,1500,0,4,1500> >,Eigen::internal::evaluator<Eigen::CwiseNullaryOp<Eigen::internal::scalar_constant_op<float>,Eigen::Matrix<float,4,1500,0,4,1500> > >,Eigen::internal::assign_op<float,float>,0>,0,4,16,16>::run
PUBLIC	??0?$MatrixBase@V?$Transpose@$$CBV?$Matrix@M$00$0CFI@$00$00$0CFI@@Eigen@@@Eigen@@@Eigen@@IEAA@XZ ; Eigen::MatrixBase<Eigen::Transpose<Eigen::Matrix<float,1,600,1,1,600> const > >::MatrixBase<Eigen::Transpose<Eigen::Matrix<float,1,600,1,1,600> const > >
PUBLIC	??0?$TransposeImpl@$$CBV?$Matrix@M$00$0CFI@$00$00$0CFI@@Eigen@@UDense@2@@Eigen@@IEAA@XZ ; Eigen::TransposeImpl<Eigen::Matrix<float,1,600,1,1,600> const ,Eigen::Dense>::TransposeImpl<Eigen::Matrix<float,1,600,1,1,600> const ,Eigen::Dense>
PUBLIC	??0?$MatrixBase@V?$CwiseBinaryOp@U?$scalar_product_op@MM@internal@Eigen@@$$CBV?$Transpose@$$CBV?$Matrix@M$00$0CFI@$00$00$0CFI@@Eigen@@@3@$$CBV?$Matrix@M$0CFI@$00$0A@$0CFI@$00@3@@Eigen@@@Eigen@@IEAA@XZ ; Eigen::MatrixBase<Eigen::CwiseBinaryOp<Eigen::internal::scalar_product_op<float,float>,Eigen::Transpose<Eigen::Matrix<float,1,600,1,1,600> const > const ,Eigen::Matrix<float,600,1,0,600,1> const > >::MatrixBase<Eigen::CwiseBinaryOp<Eigen::internal::scalar_product_op<float,float>,Eigen::Transpose<Eigen::Matrix<float,1,600,1,1,600> const > const ,Eigen::Matrix<float,600,1,0,600,1> const > >
PUBLIC	??0?$CwiseBinaryOpImpl@U?$scalar_product_op@MM@internal@Eigen@@$$CBV?$Transpose@$$CBV?$Matrix@M$00$0CFI@$00$00$0CFI@@Eigen@@@3@$$CBV?$Matrix@M$0CFI@$00$0A@$0CFI@$00@3@UDense@3@@Eigen@@QEAA@XZ ; Eigen::CwiseBinaryOpImpl<Eigen::internal::scalar_product_op<float,float>,Eigen::Transpose<Eigen::Matrix<float,1,600,1,1,600> const > const ,Eigen::Matrix<float,600,1,0,600,1> const ,Eigen::Dense>::CwiseBinaryOpImpl<Eigen::internal::scalar_product_op<float,float>,Eigen::Transpose<Eigen::Matrix<float,1,600,1,1,600> const > const ,Eigen::Matrix<float,600,1,0,600,1> const ,Eigen::Dense>
PUBLIC	?derived@?$EigenBase@V?$Transpose@$$CBV?$Matrix@M$00$0CFI@$00$00$0CFI@@Eigen@@@Eigen@@@Eigen@@QEBAAEBV?$Transpose@$$CBV?$Matrix@M$00$0CFI@$00$00$0CFI@@Eigen@@@2@XZ ; Eigen::EigenBase<Eigen::Transpose<Eigen::Matrix<float,1,600,1,1,600> const > >::derived
PUBLIC	??0?$Transpose@$$CBV?$Matrix@M$00$0CFI@$00$00$0CFI@@Eigen@@@Eigen@@QEAA@AEBV?$Matrix@M$00$0CFI@$00$00$0CFI@@1@@Z ; Eigen::Transpose<Eigen::Matrix<float,1,600,1,1,600> const >::Transpose<Eigen::Matrix<float,1,600,1,1,600> const >
PUBLIC	?derived@?$EigenBase@V?$CwiseBinaryOp@U?$scalar_product_op@MM@internal@Eigen@@$$CBV?$Transpose@$$CBV?$Matrix@M$00$0CFI@$00$00$0CFI@@Eigen@@@3@$$CBV?$Matrix@M$0CFI@$00$0A@$0CFI@$00@3@@Eigen@@@Eigen@@QEBAAEBV?$CwiseBinaryOp@U?$scalar_product_op@MM@internal@Eigen@@$$CBV?$Transpose@$$CBV?$Matrix@M$00$0CFI@$00$00$0CFI@@Eigen@@@3@$$CBV?$Matrix@M$0CFI@$00$0A@$0CFI@$00@3@@2@XZ ; Eigen::EigenBase<Eigen::CwiseBinaryOp<Eigen::internal::scalar_product_op<float,float>,Eigen::Transpose<Eigen::Matrix<float,1,600,1,1,600> const > const ,Eigen::Matrix<float,600,1,0,600,1> const > >::derived
PUBLIC	??0?$CwiseBinaryOp@U?$scalar_product_op@MM@internal@Eigen@@$$CBV?$Transpose@$$CBV?$Matrix@M$00$0CFI@$00$00$0CFI@@Eigen@@@3@$$CBV?$Matrix@M$0CFI@$00$0A@$0CFI@$00@3@@Eigen@@QEAA@AEBV?$Transpose@$$CBV?$Matrix@M$00$0CFI@$00$00$0CFI@@Eigen@@@1@AEBV?$Matrix@M$0CFI@$00$0A@$0CFI@$00@1@AEBU?$scalar_product_op@MM@internal@1@@Z ; Eigen::CwiseBinaryOp<Eigen::internal::scalar_product_op<float,float>,Eigen::Transpose<Eigen::Matrix<float,1,600,1,1,600> const > const ,Eigen::Matrix<float,600,1,0,600,1> const >::CwiseBinaryOp<Eigen::internal::scalar_product_op<float,float>,Eigen::Transpose<Eigen::Matrix<float,1,600,1,1,600> const > const ,Eigen::Matrix<float,600,1,0,600,1> const >
PUBLIC	??1?$evaluator_base@V?$CwiseNullaryOp@U?$scalar_constant_op@M@internal@Eigen@@V?$Matrix@M$00$0CFI@$00$00$0CFI@@3@@Eigen@@@internal@Eigen@@QEAA@XZ ; Eigen::internal::evaluator_base<Eigen::CwiseNullaryOp<Eigen::internal::scalar_constant_op<float>,Eigen::Matrix<float,1,600,1,1,600> > >::~evaluator_base<Eigen::CwiseNullaryOp<Eigen::internal::scalar_constant_op<float>,Eigen::Matrix<float,1,600,1,1,600> > >
PUBLIC	??0?$evaluator@V?$CwiseNullaryOp@U?$scalar_constant_op@M@internal@Eigen@@V?$Matrix@M$00$0CFI@$00$00$0CFI@@3@@Eigen@@@internal@Eigen@@QEAA@AEBV?$CwiseNullaryOp@U?$scalar_constant_op@M@internal@Eigen@@V?$Matrix@M$00$0CFI@$00$00$0CFI@@3@@2@@Z ; Eigen::internal::evaluator<Eigen::CwiseNullaryOp<Eigen::internal::scalar_constant_op<float>,Eigen::Matrix<float,1,600,1,1,600> > >::evaluator<Eigen::CwiseNullaryOp<Eigen::internal::scalar_constant_op<float>,Eigen::Matrix<float,1,600,1,1,600> > >
PUBLIC	??0?$generic_dense_assignment_kernel@U?$evaluator@V?$Matrix@M$00$0CFI@$00$00$0CFI@@Eigen@@@internal@Eigen@@U?$evaluator@V?$CwiseNullaryOp@U?$scalar_constant_op@M@internal@Eigen@@V?$Matrix@M$00$0CFI@$00$00$0CFI@@3@@Eigen@@@23@U?$assign_op@MM@23@$0A@@internal@Eigen@@QEAA@AEAU?$evaluator@V?$Matrix@M$00$0CFI@$00$00$0CFI@@Eigen@@@12@AEBU?$evaluator@V?$CwiseNullaryOp@U?$scalar_constant_op@M@internal@Eigen@@V?$Matrix@M$00$0CFI@$00$00$0CFI@@3@@Eigen@@@12@AEBU?$assign_op@MM@12@AEAV?$Matrix@M$00$0CFI@$00$00$0CFI@@2@@Z ; Eigen::internal::generic_dense_assignment_kernel<Eigen::internal::evaluator<Eigen::Matrix<float,1,600,1,1,600> >,Eigen::internal::evaluator<Eigen::CwiseNullaryOp<Eigen::internal::scalar_constant_op<float>,Eigen::Matrix<float,1,600,1,1,600> > >,Eigen::internal::assign_op<float,float>,0>::generic_dense_assignment_kernel<Eigen::internal::evaluator<Eigen::Matrix<float,1,600,1,1,600> >,Eigen::internal::evaluator<Eigen::CwiseNullaryOp<Eigen::internal::scalar_constant_op<float>,Eigen::Matrix<float,1,600,1,1,600> > >,Eigen::internal::assign_op<float,float>,0>
PUBLIC	?run@?$dense_assignment_loop@V?$generic_dense_assignment_kernel@U?$evaluator@V?$Matrix@M$00$0CFI@$00$00$0CFI@@Eigen@@@internal@Eigen@@U?$evaluator@V?$CwiseNullaryOp@U?$scalar_constant_op@M@internal@Eigen@@V?$Matrix@M$00$0CFI@$00$00$0CFI@@3@@Eigen@@@23@U?$assign_op@MM@23@$0A@@internal@Eigen@@$01$0A@@internal@Eigen@@SAXAEAV?$generic_dense_assignment_kernel@U?$evaluator@V?$Matrix@M$00$0CFI@$00$00$0CFI@@Eigen@@@internal@Eigen@@U?$evaluator@V?$CwiseNullaryOp@U?$scalar_constant_op@M@internal@Eigen@@V?$Matrix@M$00$0CFI@$00$00$0CFI@@3@@Eigen@@@23@U?$assign_op@MM@23@$0A@@23@@Z ; Eigen::internal::dense_assignment_loop<Eigen::internal::generic_dense_assignment_kernel<Eigen::internal::evaluator<Eigen::Matrix<float,1,600,1,1,600> >,Eigen::internal::evaluator<Eigen::CwiseNullaryOp<Eigen::internal::scalar_constant_op<float>,Eigen::Matrix<float,1,600,1,1,600> > >,Eigen::internal::assign_op<float,float>,0>,2,0>::run
PUBLIC	??1?$evaluator_base@V?$CwiseNullaryOp@U?$scalar_constant_op@M@internal@Eigen@@V?$Matrix@M$01$0DIE@$0A@$01$0DIE@@3@@Eigen@@@internal@Eigen@@QEAA@XZ ; Eigen::internal::evaluator_base<Eigen::CwiseNullaryOp<Eigen::internal::scalar_constant_op<float>,Eigen::Matrix<float,2,900,0,2,900> > >::~evaluator_base<Eigen::CwiseNullaryOp<Eigen::internal::scalar_constant_op<float>,Eigen::Matrix<float,2,900,0,2,900> > >
PUBLIC	??0?$evaluator@V?$CwiseNullaryOp@U?$scalar_constant_op@M@internal@Eigen@@V?$Matrix@M$01$0DIE@$0A@$01$0DIE@@3@@Eigen@@@internal@Eigen@@QEAA@AEBV?$CwiseNullaryOp@U?$scalar_constant_op@M@internal@Eigen@@V?$Matrix@M$01$0DIE@$0A@$01$0DIE@@3@@2@@Z ; Eigen::internal::evaluator<Eigen::CwiseNullaryOp<Eigen::internal::scalar_constant_op<float>,Eigen::Matrix<float,2,900,0,2,900> > >::evaluator<Eigen::CwiseNullaryOp<Eigen::internal::scalar_constant_op<float>,Eigen::Matrix<float,2,900,0,2,900> > >
PUBLIC	??0?$generic_dense_assignment_kernel@U?$evaluator@V?$Matrix@M$01$0DIE@$0A@$01$0DIE@@Eigen@@@internal@Eigen@@U?$evaluator@V?$CwiseNullaryOp@U?$scalar_constant_op@M@internal@Eigen@@V?$Matrix@M$01$0DIE@$0A@$01$0DIE@@3@@Eigen@@@23@U?$assign_op@MM@23@$0A@@internal@Eigen@@QEAA@AEAU?$evaluator@V?$Matrix@M$01$0DIE@$0A@$01$0DIE@@Eigen@@@12@AEBU?$evaluator@V?$CwiseNullaryOp@U?$scalar_constant_op@M@internal@Eigen@@V?$Matrix@M$01$0DIE@$0A@$01$0DIE@@3@@Eigen@@@12@AEBU?$assign_op@MM@12@AEAV?$Matrix@M$01$0DIE@$0A@$01$0DIE@@2@@Z ; Eigen::internal::generic_dense_assignment_kernel<Eigen::internal::evaluator<Eigen::Matrix<float,2,900,0,2,900> >,Eigen::internal::evaluator<Eigen::CwiseNullaryOp<Eigen::internal::scalar_constant_op<float>,Eigen::Matrix<float,2,900,0,2,900> > >,Eigen::internal::assign_op<float,float>,0>::generic_dense_assignment_kernel<Eigen::internal::evaluator<Eigen::Matrix<float,2,900,0,2,900> >,Eigen::internal::evaluator<Eigen::CwiseNullaryOp<Eigen::internal::scalar_constant_op<float>,Eigen::Matrix<float,2,900,0,2,900> > >,Eigen::internal::assign_op<float,float>,0>
PUBLIC	?run@?$dense_assignment_loop@V?$generic_dense_assignment_kernel@U?$evaluator@V?$Matrix@M$01$0DIE@$0A@$01$0DIE@@Eigen@@@internal@Eigen@@U?$evaluator@V?$CwiseNullaryOp@U?$scalar_constant_op@M@internal@Eigen@@V?$Matrix@M$01$0DIE@$0A@$01$0DIE@@3@@Eigen@@@23@U?$assign_op@MM@23@$0A@@internal@Eigen@@$02$0A@@internal@Eigen@@SAXAEAV?$generic_dense_assignment_kernel@U?$evaluator@V?$Matrix@M$01$0DIE@$0A@$01$0DIE@@Eigen@@@internal@Eigen@@U?$evaluator@V?$CwiseNullaryOp@U?$scalar_constant_op@M@internal@Eigen@@V?$Matrix@M$01$0DIE@$0A@$01$0DIE@@3@@Eigen@@@23@U?$assign_op@MM@23@$0A@@23@@Z ; Eigen::internal::dense_assignment_loop<Eigen::internal::generic_dense_assignment_kernel<Eigen::internal::evaluator<Eigen::Matrix<float,2,900,0,2,900> >,Eigen::internal::evaluator<Eigen::CwiseNullaryOp<Eigen::internal::scalar_constant_op<float>,Eigen::Matrix<float,2,900,0,2,900> > >,Eigen::internal::assign_op<float,float>,0>,3,0>::run
PUBLIC	??1?$evaluator_base@V?$CwiseNullaryOp@U?$scalar_constant_op@M@internal@Eigen@@V?$Matrix@M$02$0ELA@$0A@$02$0ELA@@3@@Eigen@@@internal@Eigen@@QEAA@XZ ; Eigen::internal::evaluator_base<Eigen::CwiseNullaryOp<Eigen::internal::scalar_constant_op<float>,Eigen::Matrix<float,3,1200,0,3,1200> > >::~evaluator_base<Eigen::CwiseNullaryOp<Eigen::internal::scalar_constant_op<float>,Eigen::Matrix<float,3,1200,0,3,1200> > >
PUBLIC	??0?$evaluator@V?$CwiseNullaryOp@U?$scalar_constant_op@M@internal@Eigen@@V?$Matrix@M$02$0ELA@$0A@$02$0ELA@@3@@Eigen@@@internal@Eigen@@QEAA@AEBV?$CwiseNullaryOp@U?$scalar_constant_op@M@internal@Eigen@@V?$Matrix@M$02$0ELA@$0A@$02$0ELA@@3@@2@@Z ; Eigen::internal::evaluator<Eigen::CwiseNullaryOp<Eigen::internal::scalar_constant_op<float>,Eigen::Matrix<float,3,1200,0,3,1200> > >::evaluator<Eigen::CwiseNullaryOp<Eigen::internal::scalar_constant_op<float>,Eigen::Matrix<float,3,1200,0,3,1200> > >
PUBLIC	??0?$generic_dense_assignment_kernel@U?$evaluator@V?$Matrix@M$02$0ELA@$0A@$02$0ELA@@Eigen@@@internal@Eigen@@U?$evaluator@V?$CwiseNullaryOp@U?$scalar_constant_op@M@internal@Eigen@@V?$Matrix@M$02$0ELA@$0A@$02$0ELA@@3@@Eigen@@@23@U?$assign_op@MM@23@$0A@@internal@Eigen@@QEAA@AEAU?$evaluator@V?$Matrix@M$02$0ELA@$0A@$02$0ELA@@Eigen@@@12@AEBU?$evaluator@V?$CwiseNullaryOp@U?$scalar_constant_op@M@internal@Eigen@@V?$Matrix@M$02$0ELA@$0A@$02$0ELA@@3@@Eigen@@@12@AEBU?$assign_op@MM@12@AEAV?$Matrix@M$02$0ELA@$0A@$02$0ELA@@2@@Z ; Eigen::internal::generic_dense_assignment_kernel<Eigen::internal::evaluator<Eigen::Matrix<float,3,1200,0,3,1200> >,Eigen::internal::evaluator<Eigen::CwiseNullaryOp<Eigen::internal::scalar_constant_op<float>,Eigen::Matrix<float,3,1200,0,3,1200> > >,Eigen::internal::assign_op<float,float>,0>::generic_dense_assignment_kernel<Eigen::internal::evaluator<Eigen::Matrix<float,3,1200,0,3,1200> >,Eigen::internal::evaluator<Eigen::CwiseNullaryOp<Eigen::internal::scalar_constant_op<float>,Eigen::Matrix<float,3,1200,0,3,1200> > >,Eigen::internal::assign_op<float,float>,0>
PUBLIC	?run@?$dense_assignment_loop@V?$generic_dense_assignment_kernel@U?$evaluator@V?$Matrix@M$02$0ELA@$0A@$02$0ELA@@Eigen@@@internal@Eigen@@U?$evaluator@V?$CwiseNullaryOp@U?$scalar_constant_op@M@internal@Eigen@@V?$Matrix@M$02$0ELA@$0A@$02$0ELA@@3@@Eigen@@@23@U?$assign_op@MM@23@$0A@@internal@Eigen@@$02$0A@@internal@Eigen@@SAXAEAV?$generic_dense_assignment_kernel@U?$evaluator@V?$Matrix@M$02$0ELA@$0A@$02$0ELA@@Eigen@@@internal@Eigen@@U?$evaluator@V?$CwiseNullaryOp@U?$scalar_constant_op@M@internal@Eigen@@V?$Matrix@M$02$0ELA@$0A@$02$0ELA@@3@@Eigen@@@23@U?$assign_op@MM@23@$0A@@23@@Z ; Eigen::internal::dense_assignment_loop<Eigen::internal::generic_dense_assignment_kernel<Eigen::internal::evaluator<Eigen::Matrix<float,3,1200,0,3,1200> >,Eigen::internal::evaluator<Eigen::CwiseNullaryOp<Eigen::internal::scalar_constant_op<float>,Eigen::Matrix<float,3,1200,0,3,1200> > >,Eigen::internal::assign_op<float,float>,0>,3,0>::run
PUBLIC	??1?$evaluator_base@V?$CwiseNullaryOp@U?$scalar_constant_op@M@internal@Eigen@@V?$Matrix@M$03$0FNM@$0A@$03$0FNM@@3@@Eigen@@@internal@Eigen@@QEAA@XZ ; Eigen::internal::evaluator_base<Eigen::CwiseNullaryOp<Eigen::internal::scalar_constant_op<float>,Eigen::Matrix<float,4,1500,0,4,1500> > >::~evaluator_base<Eigen::CwiseNullaryOp<Eigen::internal::scalar_constant_op<float>,Eigen::Matrix<float,4,1500,0,4,1500> > >
PUBLIC	??0?$evaluator@V?$CwiseNullaryOp@U?$scalar_constant_op@M@internal@Eigen@@V?$Matrix@M$03$0FNM@$0A@$03$0FNM@@3@@Eigen@@@internal@Eigen@@QEAA@AEBV?$CwiseNullaryOp@U?$scalar_constant_op@M@internal@Eigen@@V?$Matrix@M$03$0FNM@$0A@$03$0FNM@@3@@2@@Z ; Eigen::internal::evaluator<Eigen::CwiseNullaryOp<Eigen::internal::scalar_constant_op<float>,Eigen::Matrix<float,4,1500,0,4,1500> > >::evaluator<Eigen::CwiseNullaryOp<Eigen::internal::scalar_constant_op<float>,Eigen::Matrix<float,4,1500,0,4,1500> > >
PUBLIC	??0?$generic_dense_assignment_kernel@U?$evaluator@V?$Matrix@M$03$0FNM@$0A@$03$0FNM@@Eigen@@@internal@Eigen@@U?$evaluator@V?$CwiseNullaryOp@U?$scalar_constant_op@M@internal@Eigen@@V?$Matrix@M$03$0FNM@$0A@$03$0FNM@@3@@Eigen@@@23@U?$assign_op@MM@23@$0A@@internal@Eigen@@QEAA@AEAU?$evaluator@V?$Matrix@M$03$0FNM@$0A@$03$0FNM@@Eigen@@@12@AEBU?$evaluator@V?$CwiseNullaryOp@U?$scalar_constant_op@M@internal@Eigen@@V?$Matrix@M$03$0FNM@$0A@$03$0FNM@@3@@Eigen@@@12@AEBU?$assign_op@MM@12@AEAV?$Matrix@M$03$0FNM@$0A@$03$0FNM@@2@@Z ; Eigen::internal::generic_dense_assignment_kernel<Eigen::internal::evaluator<Eigen::Matrix<float,4,1500,0,4,1500> >,Eigen::internal::evaluator<Eigen::CwiseNullaryOp<Eigen::internal::scalar_constant_op<float>,Eigen::Matrix<float,4,1500,0,4,1500> > >,Eigen::internal::assign_op<float,float>,0>::generic_dense_assignment_kernel<Eigen::internal::evaluator<Eigen::Matrix<float,4,1500,0,4,1500> >,Eigen::internal::evaluator<Eigen::CwiseNullaryOp<Eigen::internal::scalar_constant_op<float>,Eigen::Matrix<float,4,1500,0,4,1500> > >,Eigen::internal::assign_op<float,float>,0>
PUBLIC	?run@?$dense_assignment_loop@V?$generic_dense_assignment_kernel@U?$evaluator@V?$Matrix@M$03$0FNM@$0A@$03$0FNM@@Eigen@@@internal@Eigen@@U?$evaluator@V?$CwiseNullaryOp@U?$scalar_constant_op@M@internal@Eigen@@V?$Matrix@M$03$0FNM@$0A@$03$0FNM@@3@@Eigen@@@23@U?$assign_op@MM@23@$0A@@internal@Eigen@@$01$00@internal@Eigen@@SAXAEAV?$generic_dense_assignment_kernel@U?$evaluator@V?$Matrix@M$03$0FNM@$0A@$03$0FNM@@Eigen@@@internal@Eigen@@U?$evaluator@V?$CwiseNullaryOp@U?$scalar_constant_op@M@internal@Eigen@@V?$Matrix@M$03$0FNM@$0A@$03$0FNM@@3@@Eigen@@@23@U?$assign_op@MM@23@$0A@@23@@Z ; Eigen::internal::dense_assignment_loop<Eigen::internal::generic_dense_assignment_kernel<Eigen::internal::evaluator<Eigen::Matrix<float,4,1500,0,4,1500> >,Eigen::internal::evaluator<Eigen::CwiseNullaryOp<Eigen::internal::scalar_constant_op<float>,Eigen::Matrix<float,4,1500,0,4,1500> > >,Eigen::internal::assign_op<float,float>,0>,2,1>::run
PUBLIC	??1?$evaluator_base@V?$CwiseNullaryOp@U?$scalar_constant_op@M@internal@Eigen@@V?$Matrix@M$04$0HAI@$0A@$04$0HAI@@3@@Eigen@@@internal@Eigen@@QEAA@XZ ; Eigen::internal::evaluator_base<Eigen::CwiseNullaryOp<Eigen::internal::scalar_constant_op<float>,Eigen::Matrix<float,5,1800,0,5,1800> > >::~evaluator_base<Eigen::CwiseNullaryOp<Eigen::internal::scalar_constant_op<float>,Eigen::Matrix<float,5,1800,0,5,1800> > >
PUBLIC	??0?$evaluator@V?$CwiseNullaryOp@U?$scalar_constant_op@M@internal@Eigen@@V?$Matrix@M$04$0HAI@$0A@$04$0HAI@@3@@Eigen@@@internal@Eigen@@QEAA@AEBV?$CwiseNullaryOp@U?$scalar_constant_op@M@internal@Eigen@@V?$Matrix@M$04$0HAI@$0A@$04$0HAI@@3@@2@@Z ; Eigen::internal::evaluator<Eigen::CwiseNullaryOp<Eigen::internal::scalar_constant_op<float>,Eigen::Matrix<float,5,1800,0,5,1800> > >::evaluator<Eigen::CwiseNullaryOp<Eigen::internal::scalar_constant_op<float>,Eigen::Matrix<float,5,1800,0,5,1800> > >
PUBLIC	??0?$generic_dense_assignment_kernel@U?$evaluator@V?$Matrix@M$04$0HAI@$0A@$04$0HAI@@Eigen@@@internal@Eigen@@U?$evaluator@V?$CwiseNullaryOp@U?$scalar_constant_op@M@internal@Eigen@@V?$Matrix@M$04$0HAI@$0A@$04$0HAI@@3@@Eigen@@@23@U?$assign_op@MM@23@$0A@@internal@Eigen@@QEAA@AEAU?$evaluator@V?$Matrix@M$04$0HAI@$0A@$04$0HAI@@Eigen@@@12@AEBU?$evaluator@V?$CwiseNullaryOp@U?$scalar_constant_op@M@internal@Eigen@@V?$Matrix@M$04$0HAI@$0A@$04$0HAI@@3@@Eigen@@@12@AEBU?$assign_op@MM@12@AEAV?$Matrix@M$04$0HAI@$0A@$04$0HAI@@2@@Z ; Eigen::internal::generic_dense_assignment_kernel<Eigen::internal::evaluator<Eigen::Matrix<float,5,1800,0,5,1800> >,Eigen::internal::evaluator<Eigen::CwiseNullaryOp<Eigen::internal::scalar_constant_op<float>,Eigen::Matrix<float,5,1800,0,5,1800> > >,Eigen::internal::assign_op<float,float>,0>::generic_dense_assignment_kernel<Eigen::internal::evaluator<Eigen::Matrix<float,5,1800,0,5,1800> >,Eigen::internal::evaluator<Eigen::CwiseNullaryOp<Eigen::internal::scalar_constant_op<float>,Eigen::Matrix<float,5,1800,0,5,1800> > >,Eigen::internal::assign_op<float,float>,0>
PUBLIC	?run@?$dense_assignment_loop@V?$generic_dense_assignment_kernel@U?$evaluator@V?$Matrix@M$04$0HAI@$0A@$04$0HAI@@Eigen@@@internal@Eigen@@U?$evaluator@V?$CwiseNullaryOp@U?$scalar_constant_op@M@internal@Eigen@@V?$Matrix@M$04$0HAI@$0A@$04$0HAI@@3@@Eigen@@@23@U?$assign_op@MM@23@$0A@@internal@Eigen@@$02$0A@@internal@Eigen@@SAXAEAV?$generic_dense_assignment_kernel@U?$evaluator@V?$Matrix@M$04$0HAI@$0A@$04$0HAI@@Eigen@@@internal@Eigen@@U?$evaluator@V?$CwiseNullaryOp@U?$scalar_constant_op@M@internal@Eigen@@V?$Matrix@M$04$0HAI@$0A@$04$0HAI@@3@@Eigen@@@23@U?$assign_op@MM@23@$0A@@23@@Z ; Eigen::internal::dense_assignment_loop<Eigen::internal::generic_dense_assignment_kernel<Eigen::internal::evaluator<Eigen::Matrix<float,5,1800,0,5,1800> >,Eigen::internal::evaluator<Eigen::CwiseNullaryOp<Eigen::internal::scalar_constant_op<float>,Eigen::Matrix<float,5,1800,0,5,1800> > >,Eigen::internal::assign_op<float,float>,0>,3,0>::run
PUBLIC	??1?$evaluator@V?$CwiseNullaryOp@U?$scalar_constant_op@M@internal@Eigen@@V?$Matrix@M$04$0HAI@$0A@$04$0HAI@@3@@Eigen@@@internal@Eigen@@QEAA@XZ ; Eigen::internal::evaluator<Eigen::CwiseNullaryOp<Eigen::internal::scalar_constant_op<float>,Eigen::Matrix<float,5,1800,0,5,1800> > >::~evaluator<Eigen::CwiseNullaryOp<Eigen::internal::scalar_constant_op<float>,Eigen::Matrix<float,5,1800,0,5,1800> > >
PUBLIC	??1?$evaluator@V?$CwiseNullaryOp@U?$scalar_constant_op@M@internal@Eigen@@V?$Matrix@M$03$0FNM@$0A@$03$0FNM@@3@@Eigen@@@internal@Eigen@@QEAA@XZ ; Eigen::internal::evaluator<Eigen::CwiseNullaryOp<Eigen::internal::scalar_constant_op<float>,Eigen::Matrix<float,4,1500,0,4,1500> > >::~evaluator<Eigen::CwiseNullaryOp<Eigen::internal::scalar_constant_op<float>,Eigen::Matrix<float,4,1500,0,4,1500> > >
PUBLIC	??1?$evaluator@V?$CwiseNullaryOp@U?$scalar_constant_op@M@internal@Eigen@@V?$Matrix@M$02$0ELA@$0A@$02$0ELA@@3@@Eigen@@@internal@Eigen@@QEAA@XZ ; Eigen::internal::evaluator<Eigen::CwiseNullaryOp<Eigen::internal::scalar_constant_op<float>,Eigen::Matrix<float,3,1200,0,3,1200> > >::~evaluator<Eigen::CwiseNullaryOp<Eigen::internal::scalar_constant_op<float>,Eigen::Matrix<float,3,1200,0,3,1200> > >
PUBLIC	??1?$evaluator@V?$CwiseNullaryOp@U?$scalar_constant_op@M@internal@Eigen@@V?$Matrix@M$01$0DIE@$0A@$01$0DIE@@3@@Eigen@@@internal@Eigen@@QEAA@XZ ; Eigen::internal::evaluator<Eigen::CwiseNullaryOp<Eigen::internal::scalar_constant_op<float>,Eigen::Matrix<float,2,900,0,2,900> > >::~evaluator<Eigen::CwiseNullaryOp<Eigen::internal::scalar_constant_op<float>,Eigen::Matrix<float,2,900,0,2,900> > >
PUBLIC	??1?$evaluator@V?$CwiseNullaryOp@U?$scalar_constant_op@M@internal@Eigen@@V?$Matrix@M$00$0CFI@$00$00$0CFI@@3@@Eigen@@@internal@Eigen@@QEAA@XZ ; Eigen::internal::evaluator<Eigen::CwiseNullaryOp<Eigen::internal::scalar_constant_op<float>,Eigen::Matrix<float,1,600,1,1,600> > >::~evaluator<Eigen::CwiseNullaryOp<Eigen::internal::scalar_constant_op<float>,Eigen::Matrix<float,1,600,1,1,600> > >
PUBLIC	??$call_dense_assignment_loop@V?$Matrix@M$04$0HAI@$0A@$04$0HAI@@Eigen@@V?$CwiseNullaryOp@U?$scalar_constant_op@M@internal@Eigen@@V?$Matrix@M$04$0HAI@$0A@$04$0HAI@@3@@2@U?$assign_op@MM@internal@2@@internal@Eigen@@YAXAEAV?$Matrix@M$04$0HAI@$0A@$04$0HAI@@1@AEBV?$CwiseNullaryOp@U?$scalar_constant_op@M@internal@Eigen@@V?$Matrix@M$04$0HAI@$0A@$04$0HAI@@3@@1@AEBU?$assign_op@MM@01@@Z ; Eigen::internal::call_dense_assignment_loop<Eigen::Matrix<float,5,1800,0,5,1800>,Eigen::CwiseNullaryOp<Eigen::internal::scalar_constant_op<float>,Eigen::Matrix<float,5,1800,0,5,1800> >,Eigen::internal::assign_op<float,float> >
PUBLIC	??$call_dense_assignment_loop@V?$Matrix@M$03$0FNM@$0A@$03$0FNM@@Eigen@@V?$CwiseNullaryOp@U?$scalar_constant_op@M@internal@Eigen@@V?$Matrix@M$03$0FNM@$0A@$03$0FNM@@3@@2@U?$assign_op@MM@internal@2@@internal@Eigen@@YAXAEAV?$Matrix@M$03$0FNM@$0A@$03$0FNM@@1@AEBV?$CwiseNullaryOp@U?$scalar_constant_op@M@internal@Eigen@@V?$Matrix@M$03$0FNM@$0A@$03$0FNM@@3@@1@AEBU?$assign_op@MM@01@@Z ; Eigen::internal::call_dense_assignment_loop<Eigen::Matrix<float,4,1500,0,4,1500>,Eigen::CwiseNullaryOp<Eigen::internal::scalar_constant_op<float>,Eigen::Matrix<float,4,1500,0,4,1500> >,Eigen::internal::assign_op<float,float> >
PUBLIC	??$call_dense_assignment_loop@V?$Matrix@M$02$0ELA@$0A@$02$0ELA@@Eigen@@V?$CwiseNullaryOp@U?$scalar_constant_op@M@internal@Eigen@@V?$Matrix@M$02$0ELA@$0A@$02$0ELA@@3@@2@U?$assign_op@MM@internal@2@@internal@Eigen@@YAXAEAV?$Matrix@M$02$0ELA@$0A@$02$0ELA@@1@AEBV?$CwiseNullaryOp@U?$scalar_constant_op@M@internal@Eigen@@V?$Matrix@M$02$0ELA@$0A@$02$0ELA@@3@@1@AEBU?$assign_op@MM@01@@Z ; Eigen::internal::call_dense_assignment_loop<Eigen::Matrix<float,3,1200,0,3,1200>,Eigen::CwiseNullaryOp<Eigen::internal::scalar_constant_op<float>,Eigen::Matrix<float,3,1200,0,3,1200> >,Eigen::internal::assign_op<float,float> >
PUBLIC	??$call_dense_assignment_loop@V?$Matrix@M$01$0DIE@$0A@$01$0DIE@@Eigen@@V?$CwiseNullaryOp@U?$scalar_constant_op@M@internal@Eigen@@V?$Matrix@M$01$0DIE@$0A@$01$0DIE@@3@@2@U?$assign_op@MM@internal@2@@internal@Eigen@@YAXAEAV?$Matrix@M$01$0DIE@$0A@$01$0DIE@@1@AEBV?$CwiseNullaryOp@U?$scalar_constant_op@M@internal@Eigen@@V?$Matrix@M$01$0DIE@$0A@$01$0DIE@@3@@1@AEBU?$assign_op@MM@01@@Z ; Eigen::internal::call_dense_assignment_loop<Eigen::Matrix<float,2,900,0,2,900>,Eigen::CwiseNullaryOp<Eigen::internal::scalar_constant_op<float>,Eigen::Matrix<float,2,900,0,2,900> >,Eigen::internal::assign_op<float,float> >
PUBLIC	??$call_dense_assignment_loop@V?$Matrix@M$00$0CFI@$00$00$0CFI@@Eigen@@V?$CwiseNullaryOp@U?$scalar_constant_op@M@internal@Eigen@@V?$Matrix@M$00$0CFI@$00$00$0CFI@@3@@2@U?$assign_op@MM@internal@2@@internal@Eigen@@YAXAEAV?$Matrix@M$00$0CFI@$00$00$0CFI@@1@AEBV?$CwiseNullaryOp@U?$scalar_constant_op@M@internal@Eigen@@V?$Matrix@M$00$0CFI@$00$00$0CFI@@3@@1@AEBU?$assign_op@MM@01@@Z ; Eigen::internal::call_dense_assignment_loop<Eigen::Matrix<float,1,600,1,1,600>,Eigen::CwiseNullaryOp<Eigen::internal::scalar_constant_op<float>,Eigen::Matrix<float,1,600,1,1,600> >,Eigen::internal::assign_op<float,float> >
PUBLIC	??$scaleAndAddTo@V?$Matrix@M$0CFI@$00$0A@$0CFI@$00@Eigen@@@?$generic_product_impl_base@V?$Matrix@M$0CFI@$0CFI@$0A@$0CFI@$0CFI@@Eigen@@V?$Matrix@M$0CFI@$00$0A@$0CFI@$00@2@U?$generic_product_impl@V?$Matrix@M$0CFI@$0CFI@$0A@$0CFI@$0CFI@@Eigen@@V?$Matrix@M$0CFI@$00$0A@$0CFI@$00@2@UDenseShape@2@U42@$06@internal@2@@internal@Eigen@@SAXAEAV?$Matrix@M$0CFI@$00$0A@$0CFI@$00@2@AEBV?$Matrix@M$0CFI@$0CFI@$0A@$0CFI@$0CFI@@2@AEBV32@AEBM@Z ; Eigen::internal::generic_product_impl_base<Eigen::Matrix<float,600,600,0,600,600>,Eigen::Matrix<float,600,1,0,600,1>,Eigen::internal::generic_product_impl<Eigen::Matrix<float,600,600,0,600,600>,Eigen::Matrix<float,600,1,0,600,1>,Eigen::DenseShape,Eigen::DenseShape,7> >::scaleAndAddTo<Eigen::Matrix<float,600,1,0,600,1> >
PUBLIC	??$_init2@_J_J@?$PlainObjectBase@V?$Matrix@M$0CFI@$00$0A@$0CFI@$00@Eigen@@@Eigen@@IEAAX_J0PEA_J@Z ; Eigen::PlainObjectBase<Eigen::Matrix<float,600,1,0,600,1> >::_init2<__int64,__int64>
PUBLIC	?sum@?$DenseBase@V?$CwiseBinaryOp@U?$scalar_product_op@MM@internal@Eigen@@$$CBV?$Transpose@$$CBV?$Matrix@M$00$0CFI@$00$00$0CFI@@Eigen@@@3@$$CBV?$Matrix@M$0CFI@$00$0A@$0CFI@$00@3@@Eigen@@@Eigen@@QEBAMXZ ; Eigen::DenseBase<Eigen::CwiseBinaryOp<Eigen::internal::scalar_product_op<float,float>,Eigen::Transpose<Eigen::Matrix<float,1,600,1,1,600> const > const ,Eigen::Matrix<float,600,1,0,600,1> const > >::sum
PUBLIC	??$cwiseProduct@V?$Matrix@M$0CFI@$00$0A@$0CFI@$00@Eigen@@@?$MatrixBase@V?$Transpose@$$CBV?$Matrix@M$00$0CFI@$00$00$0CFI@@Eigen@@@Eigen@@@Eigen@@QEBA?BV?$CwiseBinaryOp@U?$scalar_product_op@MM@internal@Eigen@@$$CBV?$Transpose@$$CBV?$Matrix@M$00$0CFI@$00$00$0CFI@@Eigen@@@3@$$CBV?$Matrix@M$0CFI@$00$0A@$0CFI@$00@3@@1@AEBV?$MatrixBase@V?$Matrix@M$0CFI@$00$0A@$0CFI@$00@Eigen@@@1@@Z ; Eigen::MatrixBase<Eigen::Transpose<Eigen::Matrix<float,1,600,1,1,600> const > >::cwiseProduct<Eigen::Matrix<float,600,1,0,600,1> >
PUBLIC	??$_init2@_J_J@?$PlainObjectBase@V?$Matrix@M$00$00$0A@$00$00@Eigen@@@Eigen@@IEAAX_J0PEA_J@Z ; Eigen::PlainObjectBase<Eigen::Matrix<float,1,1,0,1,1> >::_init2<__int64,__int64>
PUBLIC	??$assignPacket@$0BA@$0BA@T__m128@@@?$generic_dense_assignment_kernel@U?$evaluator@V?$Matrix@M$0CFI@$00$0A@$0CFI@$00@Eigen@@@internal@Eigen@@U?$evaluator@V?$CwiseBinaryOp@U?$scalar_sum_op@MM@internal@Eigen@@$$CBV?$Product@V?$Matrix@M$0CFI@$0CFI@$0A@$0CFI@$0CFI@@Eigen@@V?$Matrix@M$0CFI@$00$0A@$0CFI@$00@2@$0A@@3@$$CBV?$Matrix@M$0CFI@$00$0A@$0CFI@$00@3@@Eigen@@@23@U?$assign_op@MM@23@$0A@@internal@Eigen@@QEAAX_J0@Z ; Eigen::internal::generic_dense_assignment_kernel<Eigen::internal::evaluator<Eigen::Matrix<float,600,1,0,600,1> >,Eigen::internal::evaluator<Eigen::CwiseBinaryOp<Eigen::internal::scalar_sum_op<float,float>,Eigen::Product<Eigen::Matrix<float,600,600,0,600,600>,Eigen::Matrix<float,600,1,0,600,1>,0> const ,Eigen::Matrix<float,600,1,0,600,1> const > >,Eigen::internal::assign_op<float,float>,0>::assignPacket<16,16,__m128>
PUBLIC	??$assignPacket@$0BA@T__m128@@@?$assign_op@MM@internal@Eigen@@QEBAXPEAMAEBT__m128@@@Z ; Eigen::internal::assign_op<float,float>::assignPacket<16,__m128>
PUBLIC	?setZero@?$DenseBase@V?$Matrix@M$0CFI@$00$0A@$0CFI@$00@Eigen@@@Eigen@@QEAAAEAV?$Matrix@M$0CFI@$00$0A@$0CFI@$00@2@XZ ; Eigen::DenseBase<Eigen::Matrix<float,600,1,0,600,1> >::setZero
PUBLIC	?transpose@?$DenseBase@V?$Matrix@M$00$0CFI@$00$00$0CFI@@Eigen@@@Eigen@@QEBA?BV?$Transpose@$$CBV?$Matrix@M$00$0CFI@$00$00$0CFI@@Eigen@@@2@XZ ; Eigen::DenseBase<Eigen::Matrix<float,1,600,1,1,600> >::transpose
PUBLIC	?coeffRef@?$PlainObjectBase@V?$Matrix@M$00$00$0A@$00$00@Eigen@@@Eigen@@QEAAAEAM_J0@Z ; Eigen::PlainObjectBase<Eigen::Matrix<float,1,1,0,1,1> >::coeffRef
PUBLIC	?rows@?$CwiseBinaryOp@U?$scalar_sum_op@MM@internal@Eigen@@$$CBV?$Product@V?$Matrix@M$00$0CFI@$00$00$0CFI@@Eigen@@V?$Matrix@M$0CFI@$00$0A@$0CFI@$00@2@$0A@@3@$$CBV?$Matrix@M$00$00$0A@$00$00@3@@Eigen@@QEBA_JXZ ; Eigen::CwiseBinaryOp<Eigen::internal::scalar_sum_op<float,float>,Eigen::Product<Eigen::Matrix<float,1,600,1,1,600>,Eigen::Matrix<float,600,1,0,600,1>,0> const ,Eigen::Matrix<float,1,1,0,1,1> const >::rows
PUBLIC	?cols@?$CwiseBinaryOp@U?$scalar_sum_op@MM@internal@Eigen@@$$CBV?$Product@V?$Matrix@M$00$0CFI@$00$00$0CFI@@Eigen@@V?$Matrix@M$0CFI@$00$0A@$0CFI@$00@2@$0A@@3@$$CBV?$Matrix@M$00$00$0A@$00$00@3@@Eigen@@QEBA_JXZ ; Eigen::CwiseBinaryOp<Eigen::internal::scalar_sum_op<float,float>,Eigen::Product<Eigen::Matrix<float,1,600,1,1,600>,Eigen::Matrix<float,600,1,0,600,1>,0> const ,Eigen::Matrix<float,1,1,0,1,1> const >::cols
PUBLIC	?rows@?$CwiseBinaryOp@U?$scalar_sum_op@MM@internal@Eigen@@$$CBV?$Product@V?$Matrix@M$0CFI@$0CFI@$0A@$0CFI@$0CFI@@Eigen@@V?$Matrix@M$0CFI@$00$0A@$0CFI@$00@2@$0A@@3@$$CBV?$Matrix@M$0CFI@$00$0A@$0CFI@$00@3@@Eigen@@QEBA_JXZ ; Eigen::CwiseBinaryOp<Eigen::internal::scalar_sum_op<float,float>,Eigen::Product<Eigen::Matrix<float,600,600,0,600,600>,Eigen::Matrix<float,600,1,0,600,1>,0> const ,Eigen::Matrix<float,600,1,0,600,1> const >::rows
PUBLIC	?cols@?$CwiseBinaryOp@U?$scalar_sum_op@MM@internal@Eigen@@$$CBV?$Product@V?$Matrix@M$0CFI@$0CFI@$0A@$0CFI@$0CFI@@Eigen@@V?$Matrix@M$0CFI@$00$0A@$0CFI@$00@2@$0A@@3@$$CBV?$Matrix@M$0CFI@$00$0A@$0CFI@$00@3@@Eigen@@QEBA_JXZ ; Eigen::CwiseBinaryOp<Eigen::internal::scalar_sum_op<float,float>,Eigen::Product<Eigen::Matrix<float,600,600,0,600,600>,Eigen::Matrix<float,600,1,0,600,1>,0> const ,Eigen::Matrix<float,600,1,0,600,1> const >::cols
PUBLIC	?coeffRef@?$evaluator@V?$PlainObjectBase@V?$Matrix@M$0CFI@$0CFI@$0A@$0CFI@$0CFI@@Eigen@@@Eigen@@@internal@Eigen@@QEAAAEAM_J0@Z ; Eigen::internal::evaluator<Eigen::PlainObjectBase<Eigen::Matrix<float,600,600,0,600,600> > >::coeffRef
